(dp1
S'output'
p2
S'Unable to open included view file: C:\\Documents and Settings\\Administrador\\Desktop\\template_site\\web2py\\applications\\site_one\\views\\default\teste.html'
p3
sS'layer'
p4
S'ParserContainer'
p5
sS'code'
p6
S"{{extend 'layout.html'}}\r\n<h1>Hello World</h1>\r\n{{include 'default\\teste.html'}}"
p7
sS'snapshot'
p8
(dp9
S'exception'
p10
(dp11
S'__getslice__'
p12
S"<method-wrapper '__getslice__' of exceptions.IOError object>"
p13
sS'__str__'
p14
S"<method-wrapper '__str__' of exceptions.IOError object>"
p15
sS'__reduce__'
p16
S'<built-in method __reduce__ of exceptions.IOError object>'
p17
sS'__dict__'
p18
S'{}'
p19
sS'__sizeof__'
p20
S'<built-in method __sizeof__ of exceptions.IOError object>'
p21
sS'__init__'
p22
S"<method-wrapper '__init__' of exceptions.IOError object>"
p23
sS'__setattr__'
p24
S"<method-wrapper '__setattr__' of exceptions.IOError object>"
p25
sS'__reduce_ex__'
p26
S'<built-in method __reduce_ex__ of exceptions.IOError object>'
p27
sS'__new__'
p28
S'<built-in method __new__ of type object>'
p29
sS'errno'
p30
S'22'
p31
sS'__format__'
p32
S'<built-in method __format__ of exceptions.IOError object>'
p33
sS'__class__'
p34
S"<type 'exceptions.IOError'>"
p35
sS'filename'
p36
S"'C:\\\\Documents and Settings\\\\Administrador\\\\Desktop\\\\...2py\\\\applications\\\\site_one\\\\views\\\\default\\teste.html'"
p37
sS'__doc__'
p38
S"'I/O operation failed.'"
p39
sS'__getitem__'
p40
S"<method-wrapper '__getitem__' of exceptions.IOError object>"
p41
sS'__setstate__'
p42
S'<built-in method __setstate__ of exceptions.IOError object>'
p43
sS'__getattribute__'
p44
S"<method-wrapper '__getattribute__' of exceptions.IOError object>"
p45
sS'args'
p46
S'(22, "invalid mode (\'rb\') or filename")'
p47
sS'__subclasshook__'
p48
S'<built-in method __subclasshook__ of type object>'
p49
sS'__unicode__'
p50
S'<built-in method __unicode__ of exceptions.IOError object>'
p51
sS'strerror'
p52
S'"invalid mode (\'rb\') or filename"'
p53
sS'__delattr__'
p54
S"<method-wrapper '__delattr__' of exceptions.IOError object>"
p55
sS'__repr__'
p56
S"<method-wrapper '__repr__' of exceptions.IOError object>"
p57
sS'__hash__'
p58
S"<method-wrapper '__hash__' of exceptions.IOError object>"
p59
ssS'evalue'
p60
S"[Errno 22] invalid mode ('rb') or filename: 'C:\\\\Documents and Settings\\\\Administrador\\\\Desktop\\\\template_site\\\\web2py\\\\applications\\\\site_one\\\\views\\\\default\\teste.html'"
p61
sS'frames'
p62
(lp63
(dp64
S'file'
p65
S'C:\\Documents and Settings\\Administrador\\Desktop\\template_site\\web2py\\gluon\\template.py'
p66
sS'dump'
p67
(dp68
S'builtinopen'
p69
S'<built-in function open>'
p70
sS'fileobj'
p71
S'undefined'
p72
sS'filepath'
p73
S"'C:\\\\Documents and Settings\\\\Administrador\\\\Desktop\\\\...2py\\\\applications\\\\site_one\\\\views\\\\default\\teste.html'"
p74
ssS'lnum'
p75
I450
sS'lines'
p76
(dp77
I448
S'        # try to read the text.'
p78
sI449
S'        try:'
p79
sI450
S"            fileobj = open(filepath, 'rb')"
p80
sI451
S'            text = fileobj.read()'
p81
sI452
S'            fileobj.close()'
p82
sI453
S'        except IOError:'
p83
sI454
S"            self._raise_error('Unable to open included view file: ' + filepath)"
p84
sI445
S'        # Get the path of the file on the system.'
p85
sI446
S'        filepath = self.path and os.path.join(self.path, filename) or filename'
p86
sI447
S''
ssS'call'
p87
S"(self=<gluon.template.TemplateParser object>, filename='default\\teste.html')"
p88
sS'func'
p89
S'_get_file_text'
p90
sasS'pyver'
p91
S'Python 2.7.8: C:\\Python27\\python.exe (prefix: C:\\Python27)'
p92
sS'etype'
p93
S"<type 'exceptions.IOError'>"
p94
sS'date'
p95
S'Mon Jun 29 13:18:06 2015'
p96
sS'locals'
p97
(dp98
S'self'
p99
S'<gluon.template.TemplateParser object>'
p100
sS'filepath'
p101
S"'C:\\\\Documents and Settings\\\\Administrador\\\\Desktop\\\\...2py\\\\applications\\\\site_one\\\\views\\\\default\\teste.html'"
p102
sS'context'
p103
S"{'A': <class 'gluon.html.A'>, 'ANY_OF': <class 'gluon.validators.ANY_OF'>, 'ASSIGNJS': <function ASSIGNJS>, 'AppConfig': <function AppConfig>, 'Auth': <class 'gluon.tools.Auth'>, 'B': <class 'gluon.html.B'>, 'BEAUTIFY': <class 'gluon.html.BEAUTIFY'>, 'BODY': <class 'gluon.html.BODY'>, 'BR': <class 'gluon.html.BR'>, 'BUTTON': <class 'gluon.html.BUTTON'>, ...}"
p104
sg36
S"'default\\teste.html'"
p105
sssS'traceback'
p106
S'Traceback (most recent call last):\n  File "C:\\Documents and Settings\\Administrador\\Desktop\\template_site\\web2py\\gluon\\template.py", line 450, in _get_file_text\n    fileobj = open(filepath, \'rb\')\nIOError: [Errno 22] invalid mode (\'rb\') or filename: \'C:\\\\Documents and Settings\\\\Administrador\\\\Desktop\\\\template_site\\\\web2py\\\\applications\\\\site_one\\\\views\\\\default\\teste.html\'\n'
p107
s.