(dp1
S'output'
p2
S"<type 'exceptions.NameError'> name 'form' is not defined"
p3
sS'layer'
p4
S'C:\\Users\\TecSUS-3\\Desktop\\template_site\\web2py\\applications\\site_two_alterado\\views\\Veiculo/meu_user.html'
p5
sS'code'
p6
S'right_sidebar_enabled=False\nresponse.write(\'\\r\\n\', escape=False)\nleft_sidebar_enabled=True\nresponse.write(\'\\r\\n\', escape=False)\n\'message\' in globals()\nresponse.write(\'\\r\\n\\r\\n\', escape=False)\nresponse.write(\'<!DOCTYPE html>\\n<!--[if (gt IE 9)|!(IE)]><!--> <html class="no-js" lang="\', escape=False)\nresponse.write(T.accepted_language or \'en\')\nresponse.write(\'"> <!--<![endif]-->\\n  <head>\\n    <meta charset="utf-8">\\n    <!-- www.phpied.com/conditional-comments-block-downloads/ -->\\n    <!-- Always force latest IE rendering engine\\n         (even in intranet) & Chrome Frame\\n         Remove this if you use the .htaccess -->\\n    <meta http-equiv="X-UA-Compatible" content="IE=edge\', escape=False)\nresponse.write(not request.is_local and \',chrome=1\' or \'\')\nresponse.write(\'">\\n    <!--  Mobile Viewport Fix\\n          j.mp/mobileviewport & davidbcalhoun.com/2010/viewport-metatag\\n          device-width: Occupy full width of the screen in its current orientation\\n          initial-scale = 1.0 retains dimensions instead of zooming out if page height > device height\\n          user-scalable = yes allows the user to zoom in -->\\n    <meta name="viewport" content="width=device-width, initial-scale=1.0">\\n    <title>\', escape=False)\nresponse.write(response.title or request.application)\nresponse.write(\'</title>\\n    <!-- http://dev.w3.org/html5/markup/meta.name.html -->\\n    <meta name="application-name" content="\', escape=False)\nresponse.write(request.application)\nresponse.write(\'">\\n    <!-- Speaking of Google, don\\\'t forget to set your site up:\\n         http://google.com/webmasters -->\\n    <meta name="google-site-verification" content="">\\n    <!-- include stylesheets -->\\n    <link rel="stylesheet" href="\', escape=False)\nresponse.write(URL(\'static\',\'css/bootstrap.min.css\'))\nresponse.write(\'"/>\\n    <link rel="stylesheet" href="\', escape=False)\nresponse.write(URL(\'static\',\'css/bootstrap-theme.min.css\'))\nresponse.write(\'"/>\\n    <link rel="stylesheet" href="\', escape=False)\nresponse.write(URL(\'static\',\'css/web2py-bootstrap3.css\'))\nresponse.write(\'"/>\\n    <link rel="shortcut icon" href="\', escape=False)\nresponse.write(URL(\'static\',\'images/favicon.ico\'))\nresponse.write(\'" type="image/x-icon">\\n    <link rel="apple-touch-icon" href="\', escape=False)\nresponse.write(URL(\'static\',\'images/favicon.png\'))\nresponse.write(\'">\\n    <!-- All JavaScript at the bottom, except for Modernizr which enables\\n         HTML5 elements & feature detects -->\\n    <script src="\', escape=False)\nresponse.write(URL(\'static\',\'js/modernizr-2.8.3.min.js\'))\nresponse.write(\'"></script>\\n    <!--[if lt IE 9]>\\n        <script src="\', escape=False)\nresponse.write(URL(\'static\',\'js/respond-1.4.2.min.js\'))\nresponse.write(\'"></script>\\n        <![endif]-->\\n    <!-- Favicons -->\\n    \', escape=False)\nresponse.write(\'<script type="text/javascript"><!--\\n    // These variables are used by the web2py_ajax_init function in web2py_ajax.js (which is loaded below).\\n    var w2p_ajax_confirm_message = "\', escape=False)\nresponse.write(T(\'Are you sure you want to delete this object?\'))\nresponse.write(\'";\\n    var w2p_ajax_disable_with_message = "\', escape=False)\nresponse.write(T(\'Working...\'))\nresponse.write(\'";\\n    var w2p_ajax_date_format = "\', escape=False)\nresponse.write(T(\'%Y-%m-%d\'))\nresponse.write(\'";\\n    var w2p_ajax_datetime_format = "\', escape=False)\nresponse.write(T(\'%Y-%m-%d %H:%M:%S\'))\nresponse.write(\'";\\n    var ajax_error_500 = \\\'\', escape=False)\nresponse.write(T.M(\'An error occured, please [[reload %s]] the page\') % URL(args=request.args, vars=request.get_vars))\nresponse.write("\'\\n    //--></script>\\n", escape=False)\nresponse.files.insert(0,URL(\'static\',\'js/jquery.js\'))\nresponse.files.insert(1,URL(\'static\',\'css/calendar.css\'))\nresponse.files.insert(2,URL(\'static\',\'js/calendar.js\'))\nresponse.files.insert(3,URL(\'static\',\'js/web2py.js\'))\nresponse.include_meta()\nresponse.include_files()\nresponse.write(\'\\n\', escape=False)\nresponse.write(\' <!-- this includes jquery.js, calendar.js/.css and web2py.js -->\\n    \', escape=False)\nresponse.write(\'\\n    \', escape=False)\n# using sidebars need to know what sidebar you want to use\nmc0 = \'col-md-12\'\nmc1 = \'col-md-9\'\nmc2 = \'col-md-6\'\nleft_sidebar_enabled = globals().get(\'left_sidebar_enabled\', False)\nright_sidebar_enabled = globals().get(\'right_sidebar_enabled\', False)\nmiddle_column = {0: mc0, 1: mc1, 2: mc2}[\n(left_sidebar_enabled and 1 or 0)+(right_sidebar_enabled and 1 or 0)]\nresponse.write(\'\\n  </head>\\n  <body>\\n    <!--[if lt IE 8]><p class="browserupgrade">You are using an <strong>outdated</strong> browser. Please <a href="http://browsehappy.com/">upgrade your browser</a> to improve your experience.</p><![endif]-->\\n    <div class="flash alert alert-dismissable">\', escape=False)\nresponse.write(response.flash or \'\')\nresponse.write(\'</div>\\n    <!-- Navbar ======================================= -->\\n    <nav class="navbar navbar-inverse navbar-fixed-top" role="navigation">\\n      <div class="container-fluid">\\n        <div class="navbar-header">\\n          <button type="button" class="navbar-toggle" data-toggle="collapse" data-target=".navbar-collapse">\\n            <span class="sr-only">Toggle navigation</span>\\n            <span class="icon-bar"></span>\\n            <span class="icon-bar"></span>\\n            <span class="icon-bar"></span>\\n          </button>\\n          \', escape=False)\nresponse.write(response.logo or \'\')\nresponse.write(\'\\n        </div>\\n        <div class="collapse navbar-collapse navbar-ex1-collapse">\\n          <ul class="nav navbar-nav navbar-right">\\n            \', escape=False)\nresponse.write(\'auth\' in globals() and auth.navbar(\'Welcome\',mode=\'dropdown\') or \'\')\nresponse.write(\'\\n          </ul>\\n          \', escape=False)\nif response.menu:\n    response.write(\'\\n          \', escape=False)\n    response.write(MENU(response.menu, _class=\'nav navbar-nav\',li_class=\'dropdown\',ul_class=\'dropdown-menu\'))\n    response.write(\'\\n          \', escape=False)\n    pass\nresponse.write(\'\\n        </div>\\n      </div>\\n    </nav>\\n    <!-- Masthead ===================================== -->    \\n    \', escape=False)\nresponse.write(\'\\r\\n    <header class="container-fluid teste">\\r\\n      <div class="jumbotron text-center">\\r\\n        \', escape=False)\nif response.title:\n    response.write(\'\\r\\n          <h1>\', escape=False)\n    response.write(title)\n    response.write(\'\\r\\n          <small>\', escape=False)\n    response.write(response.subtitle or \'\')\n    response.write(\'</small></h1>\\r\\n        \', escape=False)\n    pass\nresponse.write(\'\\r\\n      </div>\\r\\n    </header>\\r\\n\', escape=False)\nresponse.write(\'\\n    <!-- Main ========================================= -->\\n    <!-- Begin page content -->\\n    <div class="container-fluid">\\n      \', escape=False)\nif left_sidebar_enabled:\n    response.write(\'\\n        <div class="col-md-3 left-sidebar">\\n            \', escape=False)\n    response.write(\'\\r\\n<div class="panel panel-info">\\r\\n  <div class="panel-heading"><h3 class="panel-title"><a class="btn-block"\\r\\n      href="\', escape=False)\n    response.write(URL(\'admin\',\'default\',\'index\'))\n    response.write(\'">\\r\\n      <i class="glyphicon glyphicon-cog"></i>\\r\\n      \', escape=False)\n    response.write(T("Op\xc3\xa7\xc3\xb5es"))\n    response.write(\'\\r\\n    </a></h3>\\r\\n  </div>\\r\\n  <div class="panel-body">\\r\\n     <div>\\r\\n      \', escape=False)\n    response.write(MENU(response.MeuMenu,_class=\'sf-menu\'))\n    response.write(\'\\r\\n     </div>\\r\\n  </div>\\r\\n</div>\\r\\n\', escape=False)\n    response.write(\'\\n        </div>\\n      \', escape=False)\n    pass\nresponse.write(\'\\n\\n      <div class="\', escape=False)\nresponse.write(middle_column)\nresponse.write(\'">\\n        \', escape=False)\nresponse.write(\'\\r\\n\\r\\n    <h2>\', escape=False)\nresponse.write(request.args(0))\nresponse.write(\'</h2>\\r\\n\\r\\n    \', escape=False)\nresponse.write(form)\nresponse.write(\'\\r\\n\\r\\n    \', escape=False)\nif request.args(0)==\'login\':\n    response.write(\'\\r\\n\\r\\n        <a href="\', escape=False)\n    response.write(URL(args=\'register\'))\n    response.write(\'" >register</a><br />\\r\\n        <a href="\', escape=False)\n    response.write(URL(args=\'request_reset_password\'))\n    response.write(\'" >lost password</a><br />\\r\\n\\r\\n    \', escape=False)\n    pass\nresponse.write(\'\\r\\n\\r\\n\', escape=False)\nresponse.write(\'\\n      </div>\\n\\n      \', escape=False)\nif right_sidebar_enabled:\n    response.write(\'\\n        <div class="col-md-3">\\n            \', escape=False)\n    response.write(\'\\n            <h3>Right Sidebar</h3>\\n            <p></p>\\n            \', escape=False)\n    response.write(\'\\n        </div>\\n      \', escape=False)\n    pass\nresponse.write(\'\\n\\n    </div>\\n\\n    \', escape=False)\nresponse.write(\' <!-- this is default footer -->      \\n    <footer class="footer">\\n      <div class="container-fluid">\\n        <div class="copyright pull-left">\', escape=False)\nresponse.write(T(\'Copyright\'))\nresponse.write(\' &#169; \', escape=False)\nresponse.write(request.now.year)\nresponse.write(\'</div>\\n          <div id="poweredBy" class="pull-right">\\n            \', escape=False)\nresponse.write(T(\'Powered by\'))\nresponse.write(\'\\n            <a href="http://www.web2py.com/">web2py</a>\\n          </div>\\n      </div>\\n    </footer>\\n    \', escape=False)\nresponse.write(\'\\n    <!-- The javascript =============================== -->\\n    <script src="\', escape=False)\nresponse.write(URL(\'static\',\'js/bootstrap.min.js\'))\nresponse.write(\'"></script>\\n    <script src="\', escape=False)\nresponse.write(URL(\'static\',\'js/web2py-bootstrap3.js\'))\nresponse.write(\'"></script>\\n    \', escape=False)\nresponse.write(\'\\n    \', escape=False)\nif response.google_analytics_id:\n    response.write(\'\\n    <!-- Analytics ==================================== -->\\n    <script src="\', escape=False)\n    response.write(URL(\'static\',\'js/analytics.min.js\'))\n    response.write(\'"></script>\\n    <script type="text/javascript">\\n      analytics.initialize({\\n      \\\'Google Analytics\\\':{trackingId:\\\'\', escape=False)\n    response.write(response.google_analytics_id)\n    response.write("\'}\\n      });\\n    </script>\\n    ", escape=False)\n    pass\nresponse.write(\'\\n    <!-- Share ============================y============ -->\\n    <script src="\', escape=False)\nresponse.write(URL(\'static\',\'js/share.js\',vars=dict(static=URL(\'static\',\'images\'))))\nresponse.write(\'"></script>\\n  </body>\\n</html>\\n\', escape=False)'
p7
sS'snapshot'
p8
(dp9
S'exception'
p10
(dp11
S'__hash__'
p12
S"<method-wrapper '__hash__' of exceptions.NameError object>"
p13
sS'__setattr__'
p14
S"<method-wrapper '__setattr__' of exceptions.NameError object>"
p15
sS'__reduce_ex__'
p16
S'<built-in method __reduce_ex__ of exceptions.NameError object>'
p17
sS'__getslice__'
p18
S"<method-wrapper '__getslice__' of exceptions.NameError object>"
p19
sS'__getitem__'
p20
S"<method-wrapper '__getitem__' of exceptions.NameError object>"
p21
sS'__setstate__'
p22
S'<built-in method __setstate__ of exceptions.NameError object>'
p23
sS'__reduce__'
p24
S'<built-in method __reduce__ of exceptions.NameError object>'
p25
sS'__str__'
p26
S"<method-wrapper '__str__' of exceptions.NameError object>"
p27
sS'__format__'
p28
S'<built-in method __format__ of exceptions.NameError object>'
p29
sS'__getattribute__'
p30
S"<method-wrapper '__getattribute__' of exceptions.NameError object>"
p31
sS'__class__'
p32
S"<type 'exceptions.NameError'>"
p33
sS'__unicode__'
p34
S'<built-in method __unicode__ of exceptions.NameError object>'
p35
sS'__delattr__'
p36
S"<method-wrapper '__delattr__' of exceptions.NameError object>"
p37
sS'__subclasshook__'
p38
S'<built-in method __subclasshook__ of type object>'
p39
sS'__repr__'
p40
S"<method-wrapper '__repr__' of exceptions.NameError object>"
p41
sS'args'
p42
S'("name \'form\' is not defined",)'
p43
sS'__dict__'
p44
S'{}'
p45
sS'__sizeof__'
p46
S'<built-in method __sizeof__ of exceptions.NameError object>'
p47
sS'__doc__'
p48
S"'Name not found globally.'"
p49
sS'__init__'
p50
S"<method-wrapper '__init__' of exceptions.NameError object>"
p51
sS'__new__'
p52
S'<built-in method __new__ of type object>'
p53
ssS'evalue'
p54
S"name 'form' is not defined"
p55
sS'request'
p56
cgluon.html
XML_unpickle
p57
(S's5`\x00\x00<div><table><tr><td style="font-weight:bold;vertical-align:top;">ajax</td><td style="vertical-align:top;">:</td><td><div>False</div></td></tr><tr><td style="font-weight:bold;vertical-align:top;">application</td><td style="vertical-align:top;">:</td><td><div>site_two_alterado</div></td></tr><tr><td style="font-weight:bold;vertical-align:top;">args</td><td style="vertical-align:top;">:</td><td><div><table></table></div></td></tr><tr><td style="font-weight:bold;vertical-align:top;">cid</td><td style="vertical-align:top;">:</td><td><div>None</div></td></tr><tr><td style="font-weight:bold;vertical-align:top;">client</td><td style="vertical-align:top;">:</td><td><div>127.0.0.1</div></td></tr><tr><td style="font-weight:bold;vertical-align:top;">controller</td><td style="vertical-align:top;">:</td><td><div>Veiculo</div></td></tr><tr><td style="font-weight:bold;vertical-align:top;">cookies</td><td style="vertical-align:top;">:</td><td><div><table><tr><td style="font-weight:bold;vertical-align:top;">session_id_admin</td><td style="vertical-align:top;">:</td><td><div>127.0.0.1-9b8d0c96-156a-42b9-a039-0d0abb93fa76<table><tr><td style="font-weight:bold;vertical-align:top;">comment</td><td style="vertical-align:top;">:</td><td><div></div></td></tr><tr><td style="font-weight:bold;vertical-align:top;">domain</td><td style="vertical-align:top;">:</td><td><div></div></td></tr><tr><td style="font-weight:bold;vertical-align:top;">expires</td><td style="vertical-align:top;">:</td><td><div></div></td></tr><tr><td style="font-weight:bold;vertical-align:top;">httponly</td><td style="vertical-align:top;">:</td><td><div></div></td></tr><tr><td style="font-weight:bold;vertical-align:top;">max-age</td><td style="vertical-align:top;">:</td><td><div></div></td></tr><tr><td style="font-weight:bold;vertical-align:top;">path</td><td style="vertical-align:top;">:</td><td><div></div></td></tr><tr><td style="font-weight:bold;vertical-align:top;">secure</td><td style="vertical-align:top;">:</td><td><div></div></td></tr><tr><td style="font-weight:bold;vertical-align:top;">version</td><td style="vertical-align:top;">:</td><td><div></div></td></tr></table></div></td></tr><tr><td style="font-weight:bold;vertical-align:top;">session_id_site_two_alterado</td><td style="vertical-align:top;">:</td><td><div>127.0.0.1-f7bb48da-bbfc-47db-987c-d381661c8a3c<table><tr><td style="font-weight:bold;vertical-align:top;">comment</td><td style="vertical-align:top;">:</td><td><div></div></td></tr><tr><td style="font-weight:bold;vertical-align:top;">domain</td><td style="vertical-align:top;">:</td><td><div></div></td></tr><tr><td style="font-weight:bold;vertical-align:top;">expires</td><td style="vertical-align:top;">:</td><td><div></div></td></tr><tr><td style="font-weight:bold;vertical-align:top;">httponly</td><td style="vertical-align:top;">:</td><td><div></div></td></tr><tr><td style="font-weight:bold;vertical-align:top;">max-age</td><td style="vertical-align:top;">:</td><td><div></div></td></tr><tr><td style="font-weight:bold;vertical-align:top;">path</td><td style="vertical-align:top;">:</td><td><div></div></td></tr><tr><td style="font-weight:bold;vertical-align:top;">secure</td><td style="vertical-align:top;">:</td><td><div></div></td></tr><tr><td style="font-weight:bold;vertical-align:top;">version</td><td style="vertical-align:top;">:</td><td><div></div></td></tr></table></div></td></tr><tr><td style="font-weight:bold;vertical-align:top;">session_id_welcome</td><td style="vertical-align:top;">:</td><td><div>127.0.0.1-4c27730d-35bd-40c8-99ef-1acdff163a0e<table><tr><td style="font-weight:bold;vertical-align:top;">comment</td><td style="vertical-align:top;">:</td><td><div></div></td></tr><tr><td style="font-weight:bold;vertical-align:top;">domain</td><td style="vertical-align:top;">:</td><td><div></div></td></tr><tr><td style="font-weight:bold;vertical-align:top;">expires</td><td style="vertical-align:top;">:</td><td><div></div></td></tr><tr><td style="font-weight:bold;vertical-align:top;">httponly</td><td style="vertical-align:top;">:</td><td><div></div></td></tr><tr><td style="font-weight:bold;vertical-align:top;">max-age</td><td style="vertical-align:top;">:</td><td><div></div></td></tr><tr><td style="font-weight:bold;vertical-align:top;">path</td><td style="vertical-align:top;">:</td><td><div></div></td></tr><tr><td style="font-weight:bold;vertical-align:top;">secure</td><td style="vertical-align:top;">:</td><td><div></div></td></tr><tr><td style="font-weight:bold;vertical-align:top;">version</td><td style="vertical-align:top;">:</td><td><div></div></td></tr></table></div></td></tr></table></div></td></tr><tr><td style="font-weight:bold;vertical-align:top;">env</td><td style="vertical-align:top;">:</td><td><div><table><tr><td style="font-weight:bold;vertical-align:top;">HTTP_ACCEPT</td><td style="vertical-align:top;">:</td><td><div>text/html,application/xhtml+xml,application/xml;q=0.9,image/webp,*/*;q=0.8</div></td></tr><tr><td style="font-weight:bold;vertical-align:top;">HTTP_ACCEPT_ENCODING</td><td style="vertical-align:top;">:</td><td><div>gzip, deflate, sdch</div></td></tr><tr><td style="font-weight:bold;vertical-align:top;">HTTP_ACCEPT_LANGUAGE</td><td style="vertical-align:top;">:</td><td><div>pt-BR,pt;q=0.8,en-US;q=0.6,en;q=0.4</div></td></tr><tr><td style="font-weight:bold;vertical-align:top;">HTTP_CACHE_CONTROL</td><td style="vertical-align:top;">:</td><td><div>max-age=0</div></td></tr><tr><td style="font-weight:bold;vertical-align:top;">HTTP_CONNECTION</td><td style="vertical-align:top;">:</td><td><div>keep-alive</div></td></tr><tr><td style="font-weight:bold;vertical-align:top;">HTTP_COOKIE</td><td style="vertical-align:top;">:</td><td><div>session_id_welcome=127.0.0.1-4c27730d-35bd-40c8-99ef-1acdff163a0e; session_id_site_two_alterado=127.0.0.1-f7bb48da-bbfc-47db-987c-d381661c8a3c; session_id_admin=127.0.0.1-9b8d0c96-156a-42b9-a039-0d0abb93fa76</div></td></tr><tr><td style="font-weight:bold;vertical-align:top;">HTTP_HOST</td><td style="vertical-align:top;">:</td><td><div>127.0.0.1:8000</div></td></tr><tr><td style="font-weight:bold;vertical-align:top;">HTTP_UPGRADE_INSECURE_REQUESTS</td><td style="vertical-align:top;">:</td><td><div>1</div></td></tr><tr><td style="font-weight:bold;vertical-align:top;">HTTP_USER_AGENT</td><td style="vertical-align:top;">:</td><td><div>Mozilla/5.0 (Windows NT 6.1; WOW64) AppleWebKit/537.36 (KHTML, like Gecko) Chrome/44.0.2403.157 Safari/537.36</div></td></tr><tr><td style="font-weight:bold;vertical-align:top;">PATH_INFO</td><td style="vertical-align:top;">:</td><td><div>/site_two_alterado/Veiculo/meu_user</div></td></tr><tr><td style="font-weight:bold;vertical-align:top;">QUERY_STRING</td><td style="vertical-align:top;">:</td><td><div></div></td></tr><tr><td style="font-weight:bold;vertical-align:top;">REMOTE_ADDR</td><td style="vertical-align:top;">:</td><td><div>127.0.0.1</div></td></tr><tr><td style="font-weight:bold;vertical-align:top;">REMOTE_PORT</td><td style="vertical-align:top;">:</td><td><div>50286</div></td></tr><tr><td style="font-weight:bold;vertical-align:top;">REQUEST_METHOD</td><td style="vertical-align:top;">:</td><td><div>GET</div></td></tr><tr><td style="font-weight:bold;vertical-align:top;">SCRIPT_NAME</td><td style="vertical-align:top;">:</td><td><div></div></td></tr><tr><td style="font-weight:bold;vertical-align:top;">SERVER_NAME</td><td style="vertical-align:top;">:</td><td><div>TecSUS-3-PC</div></td></tr><tr><td style="font-weight:bold;vertical-align:top;">SERVER_PORT</td><td style="vertical-align:top;">:</td><td><div>8000</div></td></tr><tr><td style="font-weight:bold;vertical-align:top;">SERVER_PROTOCOL</td><td style="vertical-align:top;">:</td><td><div>HTTP/1.1</div></td></tr><tr><td style="font-weight:bold;vertical-align:top;">SERVER_SOFTWARE</td><td style="vertical-align:top;">:</td><td><div>Rocket 1.2.6</div></td></tr><tr><td style="font-weight:bold;vertical-align:top;">app_folders</td><td style="vertical-align:top;">:</td><td><div>set([&#x27;C:\\\\Users\\\\TecSUS-3\\\\Desktop\\\\template_site\\\\web2py\\\\applications\\\\admin\\\\&#x27;, &#x27;C:\\\\Users\\\\TecSUS-3\\\\Desktop\\\\template_site\\\\web2py\\\\applications\\\\site_two_alterado\\\\&#x27;, &#x27;C:\\\\Users\\\\TecSUS-3\\\\Desktop\\\\template_site\\\\web2py\\\\applications\\\\welcome\\\\&#x27;])</div></td></tr><tr><td style="font-weight:bold;vertical-align:top;">applications_parent</td><td style="vertical-align:top;">:</td><td><div>C:\\Users\\TecSUS-3\\Desktop\\template_site\\web2py</div></td></tr><tr><td style="font-weight:bold;vertical-align:top;">cmd_args</td><td style="vertical-align:top;">:</td><td><div><table></table></div></td></tr><tr><td style="font-weight:bold;vertical-align:top;">cmd_options</td><td style="vertical-align:top;">:</td><td><div>&lt;Values at 0x3807cb0: {&#x27;verbose&#x27;: False, &#x27;ip&#x27;: &#x27;127.0.0.1&#x27;, &#x27;debuglevel&#x27;: 30, &#x27;with_scheduler&#x27;: False, &#x27;ips&#x27;: [&#x27;192.241.173.135&#x27;], &#x27;shutdown_timeout&#x27;: 5, &#x27;taskbar&#x27;: False, &#x27;with_coverage&#x27;: False, &#x27;scheduler_groups&#x27;: None, &#x27;port&#x27;: 8000, &#x27;maxthreads&#x27;: None, &#x27;softcron&#x27;: False, &#x27;server_name&#x27;: &#x27;TecSUS-3-PC&#x27;, &#x27;bpython&#x27;: False, &#x27;nogui&#x27;: False, &#x27;pid_filename&#x27;: &#x27;httpserver.pid&#x27;, &#x27;print_errors&#x27;: False, &#x27;extcron&#x27;: False, &#x27;runcron&#x27;: False, &#x27;run_system_tests&#x27;: False, &#x27;test&#x27;: None, &#x27;folder&#x27;: &#x27;C:\\\\Users\\\\TecSUS-3\\\\Desktop\\\\template_site\\\\web2py&#x27;, &#x27;config&#x27;: &#x27;&#x27;, &#x27;minthreads&#x27;: None, &#x27;shell&#x27;: None, &#x27;run&#x27;: &#x27;&#x27;, &#x27;log_filename&#x27;: &#x27;httpserver.log&#x27;, &#x27;profiler_dir&#x27;: None, &#x27;args&#x27;: [&#x27;&#x27;], &#x27;socket_timeout&#x27;: 5, &#x27;ssl_ca_certificate&#x27;: None, &#x27;scheduler&#x27;: None, &#x27;interfaces&#x27;: None, &#x27;ssl_private_key&#x27;: &#x27;&#x27;, &#x27;gae&#x27;: None, &#x27;password&#x27;: &#x27;&lt;ask&gt;&#x27;, &#x27;request_queue_size&#x27;: 5, &#x27;ssl_certificate&#x27;: &#x27;&#x27;, &#x27;cronjob&#x27;: False, &#x27;numthreads&#x27;: None, &#x27;quiet&#x27;: False, &#x27;import_models&#x27;: False, &#x27;timeout&#x27;: 10, &#x27;plain&#x27;: False, &#x27;nobanner&#x27;: False}&gt;</div></td></tr><tr><td style="font-weight:bold;vertical-align:top;">db_sessions</td><td style="vertical-align:top;">:</td><td><div>set([])</div></td></tr><tr><td style="font-weight:bold;vertical-align:top;">debugging</td><td style="vertical-align:top;">:</td><td><div>False</div></td></tr><tr><td style="font-weight:bold;vertical-align:top;">gluon_parent</td><td style="vertical-align:top;">:</td><td><div>C:\\Users\\TecSUS-3\\Desktop\\template_site\\web2py</div></td></tr><tr><td style="font-weight:bold;vertical-align:top;">http_accept</td><td style="vertical-align:top;">:</td><td><div>text/html,application/xhtml+xml,application/xml;q=0.9,image/webp,*/*;q=0.8</div></td></tr><tr><td style="font-weight:bold;vertical-align:top;">http_accept_encoding</td><td style="vertical-align:top;">:</td><td><div>gzip, deflate, sdch</div></td></tr><tr><td style="font-weight:bold;vertical-align:top;">http_accept_language</td><td style="vertical-align:top;">:</td><td><div>pt-BR,pt;q=0.8,en-US;q=0.6,en;q=0.4</div></td></tr><tr><td style="font-weight:bold;vertical-align:top;">http_cache_control</td><td style="vertical-align:top;">:</td><td><div>max-age=0</div></td></tr><tr><td style="font-weight:bold;vertical-align:top;">http_connection</td><td style="vertical-align:top;">:</td><td><div>keep-alive</div></td></tr><tr><td style="font-weight:bold;vertical-align:top;">http_cookie</td><td style="vertical-align:top;">:</td><td><div>session_id_welcome=127.0.0.1-4c27730d-35bd-40c8-99ef-1acdff163a0e; session_id_site_two_alterado=127.0.0.1-f7bb48da-bbfc-47db-987c-d381661c8a3c; session_id_admin=127.0.0.1-9b8d0c96-156a-42b9-a039-0d0abb93fa76</div></td></tr><tr><td style="font-weight:bold;vertical-align:top;">http_host</td><td style="vertical-align:top;">:</td><td><div>127.0.0.1:8000</div></td></tr><tr><td style="font-weight:bold;vertical-align:top;">http_upgrade_insecure_requests</td><td style="vertical-align:top;">:</td><td><div>1</div></td></tr><tr><td style="font-weight:bold;vertical-align:top;">http_user_agent</td><td style="vertical-align:top;">:</td><td><div>Mozilla/5.0 (Windows NT 6.1; WOW64) AppleWebKit/537.36 (KHTML, like Gecko) Chrome/44.0.2403.157 Safari/537.36</div></td></tr><tr><td style="font-weight:bold;vertical-align:top;">is_jython</td><td style="vertical-align:top;">:</td><td><div>False</div></td></tr><tr><td style="font-weight:bold;vertical-align:top;">is_pypy</td><td style="vertical-align:top;">:</td><td><div>False</div></td></tr><tr><td style="font-weight:bold;vertical-align:top;">is_source</td><td style="vertical-align:top;">:</td><td><div>True</div></td></tr><tr><td style="font-weight:bold;vertical-align:top;">local_hosts</td><td style="vertical-align:top;">:</td><td><div><table><tr><td><div>192.241.173.135</div></td></tr><tr><td><div>fe80::487:2eff:2cf4:8cd6%11</div></td></tr><tr><td><div>TecSUS-3-PC</div></td></tr><tr><td><div>TecSUS-3-PC.tecsus.com.br</div></td></tr><tr><td><div>::ffff:127.0.0.1</div></td></tr><tr><td><div>::1</div></td></tr><tr><td><div>fe80::5efe:192.168.0.18%12</div></td></tr><tr><td><div>192.168.0.18</div></td></tr><tr><td><div>127.0.0.1</div></td></tr></table></div></td></tr><tr><td style="font-weight:bold;vertical-align:top;">path_info</td><td style="vertical-align:top;">:</td><td><div>/site_two_alterado/Veiculo/meu_user</div></td></tr><tr><td style="font-weight:bold;vertical-align:top;">query_string</td><td style="vertical-align:top;">:</td><td><div></div></td></tr><tr><td style="font-weight:bold;vertical-align:top;">remote_addr</td><td style="vertical-align:top;">:</td><td><div>127.0.0.1</div></td></tr><tr><td style="font-weight:bold;vertical-align:top;">remote_port</td><td style="vertical-align:top;">:</td><td><div>50286</div></td></tr><tr><td style="font-weight:bold;vertical-align:top;">request_method</td><td style="vertical-align:top;">:</td><td><div>GET</div></td></tr><tr><td style="font-weight:bold;vertical-align:top;">request_uri</td><td style="vertical-align:top;">:</td><td><div>/site_two_alterado/Veiculo/meu_user</div></td></tr><tr><td style="font-weight:bold;vertical-align:top;">script_name</td><td style="vertical-align:top;">:</td><td><div></div></td></tr><tr><td style="font-weight:bold;vertical-align:top;">server_name</td><td style="vertical-align:top;">:</td><td><div>TecSUS-3-PC</div></td></tr><tr><td style="font-weight:bold;vertical-align:top;">server_port</td><td style="vertical-align:top;">:</td><td><div>8000</div></td></tr><tr><td style="font-weight:bold;vertical-align:top;">server_protocol</td><td style="vertical-align:top;">:</td><td><div>HTTP/1.1</div></td></tr><tr><td style="font-weight:bold;vertical-align:top;">server_software</td><td style="vertical-align:top;">:</td><td><div>Rocket 1.2.6</div></td></tr><tr><td style="font-weight:bold;vertical-align:top;">web2py_path</td><td style="vertical-align:top;">:</td><td><div>C:\\Users\\TecSUS-3\\Desktop\\template_site\\web2py</div></td></tr><tr><td style="font-weight:bold;vertical-align:top;">web2py_version</td><td style="vertical-align:top;">:</td><td><div>2.10.4-stable+timestamp.2015.04.26.15.11.54</div></td></tr><tr><td style="font-weight:bold;vertical-align:top;">wsgi.errors</td><td style="vertical-align:top;">:</td><td><div>&lt;open file &#x27;&lt;stderr&gt;&#x27;, mode &#x27;w&#x27; at 0x01D4D0D0&gt;</div></td></tr><tr><td style="font-weight:bold;vertical-align:top;">wsgi.file_wrapper</td><td style="vertical-align:top;">:</td><td><div>&lt;class wsgiref.util.FileWrapper at 0x037A2F10&gt;</div></td></tr><tr><td style="font-weight:bold;vertical-align:top;">wsgi.input</td><td style="vertical-align:top;">:</td><td><div>&lt;socket._fileobject object at 0x0A50BF30&gt;</div></td></tr><tr><td style="font-weight:bold;vertical-align:top;">wsgi.multiprocess</td><td style="vertical-align:top;">:</td><td><div>False</div></td></tr><tr><td style="font-weight:bold;vertical-align:top;">wsgi.multithread</td><td style="vertical-align:top;">:</td><td><div>True</div></td></tr><tr><td style="font-weight:bold;vertical-align:top;">wsgi.run_once</td><td style="vertical-align:top;">:</td><td><div>False</div></td></tr><tr><td style="font-weight:bold;vertical-align:top;">wsgi.url_scheme</td><td style="vertical-align:top;">:</td><td><div>http</div></td></tr><tr><td style="font-weight:bold;vertical-align:top;">wsgi.version</td><td style="vertical-align:top;">:</td><td><div><table><tr><td><div>1</div></td></tr><tr><td><div>0</div></td></tr></table></div></td></tr><tr><td style="font-weight:bold;vertical-align:top;">wsgi_errors</td><td style="vertical-align:top;">:</td><td><div>&lt;open file &#x27;&lt;stderr&gt;&#x27;, mode &#x27;w&#x27; at 0x01D4D0D0&gt;</div></td></tr><tr><td style="font-weight:bold;vertical-align:top;">wsgi_file_wrapper</td><td style="vertical-align:top;">:</td><td><div>&lt;class wsgiref.util.FileWrapper at 0x037A2F10&gt;</div></td></tr><tr><td style="font-weight:bold;vertical-align:top;">wsgi_input</td><td style="vertical-align:top;">:</td><td><div>&lt;socket._fileobject object at 0x0A50BF30&gt;</div></td></tr><tr><td style="font-weight:bold;vertical-align:top;">wsgi_multiprocess</td><td style="vertical-align:top;">:</td><td><div>False</div></td></tr><tr><td style="font-weight:bold;vertical-align:top;">wsgi_multithread</td><td style="vertical-align:top;">:</td><td><div>True</div></td></tr><tr><td style="font-weight:bold;vertical-align:top;">wsgi_run_once</td><td style="vertical-align:top;">:</td><td><div>False</div></td></tr><tr><td style="font-weight:bold;vertical-align:top;">wsgi_url_scheme</td><td style="vertical-align:top;">:</td><td><div>http</div></td></tr><tr><td style="font-weight:bold;vertical-align:top;">wsgi_version</td><td style="vertical-align:top;">:</td><td><div><table><tr><td><div>1</div></td></tr><tr><td><div>0</div></td></tr></table></div></td></tr></table></div></td></tr><tr><td style="font-weight:bold;vertical-align:top;">extension</td><td style="vertical-align:top;">:</td><td><div>html</div></td></tr><tr><td style="font-weight:bold;vertical-align:top;">folder</td><td style="vertical-align:top;">:</td><td><div>C:\\Users\\TecSUS-3\\Desktop\\template_site\\web2py\\applications\\site_two_alterado\\</div></td></tr><tr><td style="font-weight:bold;vertical-align:top;">function</td><td style="vertical-align:top;">:</td><td><div>meu_user</div></td></tr><tr><td style="font-weight:bold;vertical-align:top;">global_settings</td><td style="vertical-align:top;">:</td><td><div><table><tr><td style="font-weight:bold;vertical-align:top;">app_folders</td><td style="vertical-align:top;">:</td><td><div>set([&#x27;C:\\\\Users\\\\TecSUS-3\\\\Desktop\\\\template_site\\\\web2py\\\\applications\\\\admin\\\\&#x27;, &#x27;C:\\\\Users\\\\TecSUS-3\\\\Desktop\\\\template_site\\\\web2py\\\\applications\\\\site_two_alterado\\\\&#x27;, &#x27;C:\\\\Users\\\\TecSUS-3\\\\Desktop\\\\template_site\\\\web2py\\\\applications\\\\welcome\\\\&#x27;])</div></td></tr><tr><td style="font-weight:bold;vertical-align:top;">applications_parent</td><td style="vertical-align:top;">:</td><td><div>C:\\Users\\TecSUS-3\\Desktop\\template_site\\web2py</div></td></tr><tr><td style="font-weight:bold;vertical-align:top;">cmd_args</td><td style="vertical-align:top;">:</td><td><div><table></table></div></td></tr><tr><td style="font-weight:bold;vertical-align:top;">cmd_options</td><td style="vertical-align:top;">:</td><td><div>&lt;Values at 0x3807cb0: {&#x27;verbose&#x27;: False, &#x27;ip&#x27;: &#x27;127.0.0.1&#x27;, &#x27;debuglevel&#x27;: 30, &#x27;with_scheduler&#x27;: False, &#x27;ips&#x27;: [&#x27;192.241.173.135&#x27;], &#x27;shutdown_timeout&#x27;: 5, &#x27;taskbar&#x27;: False, &#x27;with_coverage&#x27;: False, &#x27;scheduler_groups&#x27;: None, &#x27;port&#x27;: 8000, &#x27;maxthreads&#x27;: None, &#x27;softcron&#x27;: False, &#x27;server_name&#x27;: &#x27;TecSUS-3-PC&#x27;, &#x27;bpython&#x27;: False, &#x27;nogui&#x27;: False, &#x27;pid_filename&#x27;: &#x27;httpserver.pid&#x27;, &#x27;print_errors&#x27;: False, &#x27;extcron&#x27;: False, &#x27;runcron&#x27;: False, &#x27;run_system_tests&#x27;: False, &#x27;test&#x27;: None, &#x27;folder&#x27;: &#x27;C:\\\\Users\\\\TecSUS-3\\\\Desktop\\\\template_site\\\\web2py&#x27;, &#x27;config&#x27;: &#x27;&#x27;, &#x27;minthreads&#x27;: None, &#x27;shell&#x27;: None, &#x27;run&#x27;: &#x27;&#x27;, &#x27;log_filename&#x27;: &#x27;httpserver.log&#x27;, &#x27;profiler_dir&#x27;: None, &#x27;args&#x27;: [&#x27;&#x27;], &#x27;socket_timeout&#x27;: 5, &#x27;ssl_ca_certificate&#x27;: None, &#x27;scheduler&#x27;: None, &#x27;interfaces&#x27;: None, &#x27;ssl_private_key&#x27;: &#x27;&#x27;, &#x27;gae&#x27;: None, &#x27;password&#x27;: &#x27;&lt;ask&gt;&#x27;, &#x27;request_queue_size&#x27;: 5, &#x27;ssl_certificate&#x27;: &#x27;&#x27;, &#x27;cronjob&#x27;: False, &#x27;numthreads&#x27;: None, &#x27;quiet&#x27;: False, &#x27;import_models&#x27;: False, &#x27;timeout&#x27;: 10, &#x27;plain&#x27;: False, &#x27;nobanner&#x27;: False}&gt;</div></td></tr><tr><td style="font-weight:bold;vertical-align:top;">db_sessions</td><td style="vertical-align:top;">:</td><td><div>set([])</div></td></tr><tr><td style="font-weight:bold;vertical-align:top;">debugging</td><td style="vertical-align:top;">:</td><td><div>False</div></td></tr><tr><td style="font-weight:bold;vertical-align:top;">gluon_parent</td><td style="vertical-align:top;">:</td><td><div>C:\\Users\\TecSUS-3\\Desktop\\template_site\\web2py</div></td></tr><tr><td style="font-weight:bold;vertical-align:top;">is_jython</td><td style="vertical-align:top;">:</td><td><div>False</div></td></tr><tr><td style="font-weight:bold;vertical-align:top;">is_pypy</td><td style="vertical-align:top;">:</td><td><div>False</div></td></tr><tr><td style="font-weight:bold;vertical-align:top;">is_source</td><td style="vertical-align:top;">:</td><td><div>True</div></td></tr><tr><td style="font-weight:bold;vertical-align:top;">local_hosts</td><td style="vertical-align:top;">:</td><td><div><table><tr><td><div>192.241.173.135</div></td></tr><tr><td><div>fe80::487:2eff:2cf4:8cd6%11</div></td></tr><tr><td><div>TecSUS-3-PC</div></td></tr><tr><td><div>TecSUS-3-PC.tecsus.com.br</div></td></tr><tr><td><div>::ffff:127.0.0.1</div></td></tr><tr><td><div>::1</div></td></tr><tr><td><div>fe80::5efe:192.168.0.18%12</div></td></tr><tr><td><div>192.168.0.18</div></td></tr><tr><td><div>127.0.0.1</div></td></tr></table></div></td></tr><tr><td style="font-weight:bold;vertical-align:top;">web2py_version</td><td style="vertical-align:top;">:</td><td><div>2.10.4-stable+timestamp.2015.04.26.15.11.54</div></td></tr></table></div></td></tr><tr><td style="font-weight:bold;vertical-align:top;">is_https</td><td style="vertical-align:top;">:</td><td><div>False</div></td></tr><tr><td style="font-weight:bold;vertical-align:top;">is_local</td><td style="vertical-align:top;">:</td><td><div>True</div></td></tr><tr><td style="font-weight:bold;vertical-align:top;">is_restful</td><td style="vertical-align:top;">:</td><td><div>False</div></td></tr><tr><td style="font-weight:bold;vertical-align:top;">is_sheduler</td><td style="vertical-align:top;">:</td><td><div>None</div></td></tr><tr><td style="font-weight:bold;vertical-align:top;">is_shell</td><td style="vertical-align:top;">:</td><td><div>None</div></td></tr><tr><td style="font-weight:bold;vertical-align:top;">now</td><td style="vertical-align:top;">:</td><td><div>datetime.datetime(2015, 8, 26, 9, 59, 24, 984000)</div></td></tr><tr><td style="font-weight:bold;vertical-align:top;">raw_args</td><td style="vertical-align:top;">:</td><td><div></div></td></tr><tr><td style="font-weight:bold;vertical-align:top;">raw_extension</td><td style="vertical-align:top;">:</td><td><div>None</div></td></tr><tr><td style="font-weight:bold;vertical-align:top;">url</td><td style="vertical-align:top;">:</td><td><div>/site_two_alterado/Veiculo/meu_user</div></td></tr><tr><td style="font-weight:bold;vertical-align:top;">utcnow</td><td style="vertical-align:top;">:</td><td><div>datetime.datetime(2015, 8, 26, 12, 59, 24, 984000)</div></td></tr><tr><td style="font-weight:bold;vertical-align:top;">uuid</td><td style="vertical-align:top;">:</td><td><div>site_two_alterado/127.0.0.1.2015-08-26.09-59-24.e3f4c4bd-eb6a-416f-9be9-6d9941be93b2</div></td></tr><tr><td style="font-weight:bold;vertical-align:top;">wsgi</td><td style="vertical-align:top;">:</td><td><div>&lt;gluon.main.LazyWSGI object at 0x09C3CA10&gt;</div></td></tr></table></div>'
tRp58
sS'frames'
p59
(lp60
(dp61
S'file'
p62
S'C:\\Users\\TecSUS-3\\Desktop\\template_site\\web2py\\gluon\\restricted.py'
p63
sS'dump'
p64
(dp65
S'environment'
p66
S"{'A': <class 'gluon.html.A'>, 'ANY_OF': <class 'gluon.validators.ANY_OF'>, 'ASSIGNJS': <function ASSIGNJS>, 'AppConfig': <function AppConfig>, 'Auth': <class 'gluon.tools.Auth'>, 'B': <class 'gluon.html.B'>, 'BEAUTIFY': <class 'gluon.html.BEAUTIFY'>, 'BODY': <class 'gluon.html.BODY'>, 'BR': <class 'gluon.html.BR'>, 'BUTTON': <class 'gluon.html.BUTTON'>, ...}"
p67
sS'ccode'
p68
S'<code object <module> at 09A51650, file "C:\\User...wo_alterado\\views\\Veiculo/meu_user.html", line 1>'
p69
ssS'lnum'
p70
I227
sS'lines'
p71
(dp72
I224
S'            ccode = code'
p73
sI225
S'        else:'
p74
sI226
S'            ccode = compile2(code, layer)'
p75
sI227
S'        exec ccode in environment'
p76
sI228
S'    except HTTP:'
p77
sI229
S'        raise'
p78
sI230
S'    except RestrictedError:'
p79
sI231
S'        # do not encapsulate (obfuscate) the original RestrictedError'
p80
sI222
S'    try:'
p81
sI223
S'        if isinstance(code, types.CodeType):'
p82
ssS'call'
p83
S'(code=\'right_sidebar_enabled=False\\nresponse.write(\\\'\\\\r\\\\n..."></script>\\\\n  </body>\\\\n</html>\\\\n\\\', escape=False)\', environment={\'A\': <class \'gluon.html.A\'>, \'ANY_OF\': <class \'gluon.validators.ANY_OF\'>, \'ASSIGNJS\': <function ASSIGNJS>, \'AppConfig\': <function AppConfig>, \'Auth\': <class \'gluon.tools.Auth\'>, \'B\': <class \'gluon.html.B\'>, \'BEAUTIFY\': <class \'gluon.html.BEAUTIFY\'>, \'BODY\': <class \'gluon.html.BODY\'>, \'BR\': <class \'gluon.html.BR\'>, \'BUTTON\': <class \'gluon.html.BUTTON\'>, ...}, layer=r\'C:\\Users\\TecSUS-3\\Desktop\\template_site\\web2py\\a...ons\\site_two_alterado\\views\\Veiculo/meu_user.html\')'
p84
sS'func'
p85
S'restricted'
p86
sa(dp87
g62
S'C:\\Users\\TecSUS-3\\Desktop\\template_site\\web2py\\applications\\site_two_alterado\\views\\Veiculo\\meu_user.html'
p88
sg64
(dp89
sg70
I98
sg71
(dp90
I96
S'response.write(request.args(0))'
p91
sI97
S"response.write('</h2>\\r\\n\\r\\n    ', escape=False)"
p92
sI98
S'response.write(form)'
p93
sI99
S"response.write('\\r\\n\\r\\n    ', escape=False)"
p94
sI100
S"if request.args(0)=='login':"
p95
sI101
S'    response.write(\'\\r\\n\\r\\n        <a href="\', escape=False)'
p96
sI102
S"    response.write(URL(args='register'))"
p97
sI103
S'    response.write(\'" >register</a><br />\\r\\n        <a href="\', escape=False)'
p98
sI104
S"    response.write(URL(args='request_reset_password'))"
p99
sI105
S'    response.write(\'" >lost password</a><br />\\r\\n\\r\\n    \', escape=False)'
p100
sI106
S'    pass'
p101
sI107
S"response.write('\\r\\n\\r\\n', escape=False)"
p102
sI108
S"response.write('\\n      </div>\\n\\n      ', escape=False)"
p103
sI89
S"    response.write('\\r\\n     </div>\\r\\n  </div>\\r\\n</div>\\r\\n', escape=False)"
p104
sI90
S"    response.write('\\n        </div>\\n      ', escape=False)"
p105
sI91
S'    pass'
p106
sI92
S'response.write(\'\\n\\n      <div class="\', escape=False)'
p107
sI93
S'response.write(middle_column)'
p108
sI94
S'response.write(\'">\\n        \', escape=False)'
p109
sI95
S"response.write('\\r\\n\\r\\n    <h2>', escape=False)"
p110
ssg83
S'()'
p111
sg85
S'<module>'
p112
sasS'pyver'
p113
S'Python 2.7.8: C:\\Python27\\python.exe (prefix: C:\\Python27)'
p114
sS'session'
p115
g57
(S's \x01\x00\x00<div><table><tr><td style="font-weight:bold;vertical-align:top;">counter</td><td style="vertical-align:top;">:</td><td><div>5</div></td></tr><tr><td style="font-weight:bold;vertical-align:top;">flashed</td><td style="vertical-align:top;">:</td><td><div>False</div></td></tr></table></div>'
tRp116
sS'etype'
p117
S"<type 'exceptions.NameError'>"
p118
sS'date'
p119
S'Wed Aug 26 09:59:25 2015'
p120
sS'response'
p121
g57
(S's\xf4T\x00\x00<div><table><tr><td style="font-weight:bold;vertical-align:top;">MeuMenu</td><td style="vertical-align:top;">:</td><td><div><table><tr><td><div><table><tr><td><div>Principal</div></td></tr><tr><td><div>False</div></td></tr><tr><td><div>http://127.0.0.1:8000/site_two_alterado/Veiculo/Inicio</div></td></tr></table></div></td></tr><tr><td><div><table><tr><td><div>Cadastro de Comprador</div></td></tr><tr><td><div>False</div></td></tr><tr><td><div>http://127.0.0.1:8000/site_two_alterado/Veiculo/comprador</div></td></tr></table></div></td></tr><tr><td><div><table><tr><td><div>Cadastro de Carro</div></td></tr><tr><td><div>False</div></td></tr><tr><td><div>http://127.0.0.1:8000/site_two_alterado/Veiculo/carro</div></td></tr></table></div></td></tr><tr><td><div><table><tr><td><div>Cadastro de Vendedor</div></td></tr><tr><td><div>False</div></td></tr><tr><td><div>http://127.0.0.1:8000/site_two_alterado/Veiculo/vendedor</div></td></tr></table></div></td></tr><tr><td><div><table><tr><td><div>Cadastro de Marca</div></td></tr><tr><td><div>False</div></td></tr><tr><td><div>http://127.0.0.1:8000/site_two_alterado/Veiculo/marca</div></td></tr></table></div></td></tr><tr><td><div><table><tr><td><div>Admin</div></td></tr><tr><td><div>False</div></td></tr><tr><td><div>http://127.0.0.1:8000/site_two_alterado/Veiculo/admin</div></td></tr></table></div></td></tr><tr><td><div><table><tr><td><div>Venda</div></td></tr><tr><td><div>False</div></td></tr><tr><td><div>http://127.0.0.1:8000/site_two_alterado/Veiculo/venda</div></td></tr></table></div></td></tr><tr><td><div><table><tr><td><div>Contato</div></td></tr><tr><td><div>False</div></td></tr><tr><td><div>http://127.0.0.1:8000/site_two_alterado/Veiculo/send_email</div></td></tr></table></div></td></tr></table></div></td></tr><tr><td style="font-weight:bold;vertical-align:top;">body</td><td style="vertical-align:top;">:</td><td><div>&lt;cStringIO.StringO object at 0x09CECA80&gt;</div></td></tr><tr><td style="font-weight:bold;vertical-align:top;">cookies</td><td style="vertical-align:top;">:</td><td><div><table><tr><td style="font-weight:bold;vertical-align:top;">session_id_site_two_alterado</td><td style="vertical-align:top;">:</td><td><div>127.0.0.1-f7bb48da-bbfc-47db-987c-d381661c8a3c<table><tr><td style="font-weight:bold;vertical-align:top;">comment</td><td style="vertical-align:top;">:</td><td><div></div></td></tr><tr><td style="font-weight:bold;vertical-align:top;">domain</td><td style="vertical-align:top;">:</td><td><div></div></td></tr><tr><td style="font-weight:bold;vertical-align:top;">expires</td><td style="vertical-align:top;">:</td><td><div></div></td></tr><tr><td style="font-weight:bold;vertical-align:top;">httponly</td><td style="vertical-align:top;">:</td><td><div></div></td></tr><tr><td style="font-weight:bold;vertical-align:top;">max-age</td><td style="vertical-align:top;">:</td><td><div></div></td></tr><tr><td style="font-weight:bold;vertical-align:top;">path</td><td style="vertical-align:top;">:</td><td><div>/</div></td></tr><tr><td style="font-weight:bold;vertical-align:top;">secure</td><td style="vertical-align:top;">:</td><td><div></div></td></tr><tr><td style="font-weight:bold;vertical-align:top;">version</td><td style="vertical-align:top;">:</td><td><div></div></td></tr></table></div></td></tr></table></div></td></tr><tr><td style="font-weight:bold;vertical-align:top;">delimiters</td><td style="vertical-align:top;">:</td><td><div><table><tr><td><div>{{</div></td></tr><tr><td><div>}}</div></td></tr></table></div></td></tr><tr><td style="font-weight:bold;vertical-align:top;">files</td><td style="vertical-align:top;">:</td><td><div><table><tr><td><div>/site_two_alterado/static/js/jquery.js</div></td></tr><tr><td><div>/site_two_alterado/static/css/calendar.css</div></td></tr><tr><td><div>/site_two_alterado/static/js/calendar.js</div></td></tr><tr><td><div>/site_two_alterado/static/js/web2py.js</div></td></tr></table></div></td></tr><tr><td style="font-weight:bold;vertical-align:top;">flash</td><td style="vertical-align:top;">:</td><td><div></div></td></tr><tr><td style="font-weight:bold;vertical-align:top;">form_label_separator</td><td style="vertical-align:top;">:</td><td><div></div></td></tr><tr><td style="font-weight:bold;vertical-align:top;">formstyle</td><td style="vertical-align:top;">:</td><td><div>bootstrap3_inline</div></td></tr><tr><td style="font-weight:bold;vertical-align:top;">generic_patterns</td><td style="vertical-align:top;">:</td><td><div><table><tr><td><div>*</div></td></tr></table></div></td></tr><tr><td style="font-weight:bold;vertical-align:top;">google_analytics_id</td><td style="vertical-align:top;">:</td><td><div>None</div></td></tr><tr><td style="font-weight:bold;vertical-align:top;">headers</td><td style="vertical-align:top;">:</td><td><div><table><tr><td style="font-weight:bold;vertical-align:top;">X-Powered-By</td><td style="vertical-align:top;">:</td><td><div>web2py</div></td></tr></table></div></td></tr><tr><td style="font-weight:bold;vertical-align:top;">logo</td><td style="vertical-align:top;">:</td><td><div><a class="navbar-brand" href="http://www.web2py.com/" id="web2py-logo"><b>web<span>2</span>py</b>&trade;&nbsp;</a></div></td></tr><tr><td style="font-weight:bold;vertical-align:top;">menu</td><td style="vertical-align:top;">:</td><td><div><table><tr><td><div><table><tr><td><div>Principal</div></td></tr><tr><td><div>False</div></td></tr><tr><td><div>/site_two_alterado/default/index</div></td></tr><tr><td><div><table></table></div></td></tr></table></div></td></tr><tr><td><div><table><tr><td><div>Meus sites</div></td></tr><tr><td><div>False</div></td></tr><tr><td><div>/admin/default/site</div></td></tr></table></div></td></tr><tr><td><div><table><tr><td><div>Esta aplica\xc3\xa7\xc3\xa3o</div></td></tr><tr><td><div>False</div></td></tr><tr><td><div>#</div></td></tr><tr><td><div><table><tr><td><div><table><tr><td><div>Design</div></td></tr><tr><td><div>False</div></td></tr><tr><td><div>/admin/default/design/site_two_alterado</div></td></tr></table></div></td></tr><tr><td><div><li class="divider"></li></div></td></tr><tr><td><div><table><tr><td><div>Controlador</div></td></tr><tr><td><div>False</div></td></tr><tr><td><div>/admin/default/edit/site_two_alterado/controllers/Veiculo.py</div></td></tr></table></div></td></tr><tr><td><div><table><tr><td><div>Visualiza\xc3\xa7\xc3\xa3o</div></td></tr><tr><td><div>False</div></td></tr><tr><td><div>/admin/default/edit/site_two_alterado/views/Veiculo/meu_user.html</div></td></tr></table></div></td></tr><tr><td><div><table><tr><td><div>Modelo BD</div></td></tr><tr><td><div>False</div></td></tr><tr><td><div>/admin/default/edit/site_two_alterado/models/db.py</div></td></tr></table></div></td></tr><tr><td><div><table><tr><td><div>Modelo de Menu</div></td></tr><tr><td><div>False</div></td></tr><tr><td><div>/admin/default/edit/site_two_alterado/models/menu.py</div></td></tr></table></div></td></tr><tr><td><div><table><tr><td><div>Config.ini</div></td></tr><tr><td><div>False</div></td></tr><tr><td><div>/admin/default/edit/site_two_alterado/private/appconfig.ini</div></td></tr></table></div></td></tr><tr><td><div><table><tr><td><div>Layout</div></td></tr><tr><td><div>False</div></td></tr><tr><td><div>/admin/default/edit/site_two_alterado/views/layout.html</div></td></tr></table></div></td></tr><tr><td><div><table><tr><td><div>Folha de estilo</div></td></tr><tr><td><div>False</div></td></tr><tr><td><div>/admin/default/edit/site_two_alterado/static/css/web2py-bootstrap3.css</div></td></tr></table></div></td></tr><tr><td><div><table><tr><td><div>banco de dados</div></td></tr><tr><td><div>False</div></td></tr><tr><td><div>/site_two_alterado/appadmin/index</div></td></tr></table></div></td></tr><tr><td><div><table><tr><td><div>Erros</div></td></tr><tr><td><div>False</div></td></tr><tr><td><div>/admin/default/errors/site_two_alterado</div></td></tr></table></div></td></tr><tr><td><div><table><tr><td><div>Sobre</div></td></tr><tr><td><div>False</div></td></tr><tr><td><div>/admin/default/about/site_two_alterado</div></td></tr></table></div></td></tr></table></div></td></tr></table></div></td></tr><tr><td><div><table><tr><td><div>web2py.com</div></td></tr><tr><td><div>False</div></td></tr><tr><td><div>#</div></td></tr><tr><td><div><table><tr><td><div><table><tr><td><div>Download</div></td></tr><tr><td><div>False</div></td></tr><tr><td><div>http://www.web2py.com/examples/default/download</div></td></tr></table></div></td></tr><tr><td><div><table><tr><td><div>Suporte</div></td></tr><tr><td><div>False</div></td></tr><tr><td><div>http://www.web2py.com/examples/default/support</div></td></tr></table></div></td></tr><tr><td><div><table><tr><td><div>Demo</div></td></tr><tr><td><div>False</div></td></tr><tr><td><div>http://web2py.com/demo_admin</div></td></tr></table></div></td></tr><tr><td><div><table><tr><td><div>Exemplos r\xc3\xa1pidos</div></td></tr><tr><td><div>False</div></td></tr><tr><td><div>http://web2py.com/examples/default/examples</div></td></tr></table></div></td></tr><tr><td><div><table><tr><td><div>Perguntas frequentes</div></td></tr><tr><td><div>False</div></td></tr><tr><td><div>http://web2py.com/AlterEgo</div></td></tr></table></div></td></tr><tr><td><div><table><tr><td><div>V\xc3\xaddeos</div></td></tr><tr><td><div>False</div></td></tr><tr><td><div>http://www.web2py.com/examples/default/videos/</div></td></tr></table></div></td></tr><tr><td><div><table><tr><td><div>Aplica\xc3\xa7\xc3\xb5es gratuitas</div></td></tr><tr><td><div>False</div></td></tr><tr><td><div>http://web2py.com/appliances</div></td></tr></table></div></td></tr><tr><td><div><table><tr><td><div>Plugins</div></td></tr><tr><td><div>False</div></td></tr><tr><td><div>http://web2py.com/plugins</div></td></tr></table></div></td></tr><tr><td><div><table><tr><td><div>Receitas</div></td></tr><tr><td><div>False</div></td></tr><tr><td><div>http://web2pyslices.com/</div></td></tr></table></div></td></tr></table></div></td></tr></table></div></td></tr><tr><td><div><table><tr><td><div>Documenta\xc3\xa7\xc3\xa3o</div></td></tr><tr><td><div>False</div></td></tr><tr><td><div>#</div></td></tr><tr><td><div><table><tr><td><div><table><tr><td><div>Online book</div></td></tr><tr><td><div>False</div></td></tr><tr><td><div>http://www.web2py.com/book</div></td></tr></table></div></td></tr><tr><td><div><li class="divider"></li></div></td></tr><tr><td><div><table><tr><td><div>Pref\xc3\xa1cio</div></td></tr><tr><td><div>False</div></td></tr><tr><td><div>http://www.web2py.com/book/default/chapter/00</div></td></tr></table></div></td></tr><tr><td><div><table><tr><td><div>Introdu\xc3\xa7\xc3\xa3o</div></td></tr><tr><td><div>False</div></td></tr><tr><td><div>http://www.web2py.com/book/default/chapter/01</div></td></tr></table></div></td></tr><tr><td><div><table><tr><td><div>Python</div></td></tr><tr><td><div>False</div></td></tr><tr><td><div>http://www.web2py.com/book/default/chapter/02</div></td></tr></table></div></td></tr><tr><td><div><table><tr><td><div>Vis\xc3\xa3o Geral</div></td></tr><tr><td><div>False</div></td></tr><tr><td><div>http://www.web2py.com/book/default/chapter/03</div></td></tr></table></div></td></tr><tr><td><div><table><tr><td><div>The Core</div></td></tr><tr><td><div>False</div></td></tr><tr><td><div>http://www.web2py.com/book/default/chapter/04</div></td></tr></table></div></td></tr><tr><td><div><table><tr><td><div>As views</div></td></tr><tr><td><div>False</div></td></tr><tr><td><div>http://www.web2py.com/book/default/chapter/05</div></td></tr></table></div></td></tr><tr><td><div><table><tr><td><div>banco de dados</div></td></tr><tr><td><div>False</div></td></tr><tr><td><div>http://www.web2py.com/book/default/chapter/06</div></td></tr></table></div></td></tr><tr><td><div><table><tr><td><div>Formul\xc3\xa1rios e Validadores</div></td></tr><tr><td><div>False</div></td></tr><tr><td><div>http://www.web2py.com/book/default/chapter/07</div></td></tr></table></div></td></tr><tr><td><div><table><tr><td><div>Email e SMS</div></td></tr><tr><td><div>False</div></td></tr><tr><td><div>http://www.web2py.com/book/default/chapter/08</div></td></tr></table></div></td></tr><tr><td><div><table><tr><td><div>Controle de Acesso</div></td></tr><tr><td><div>False</div></td></tr><tr><td><div>http://www.web2py.com/book/default/chapter/09</div></td></tr></table></div></td></tr><tr><td><div><table><tr><td><div>Servi\xc3\xa7o</div></td></tr><tr><td><div>False</div></td></tr><tr><td><div>http://www.web2py.com/book/default/chapter/10</div></td></tr></table></div></td></tr><tr><td><div><table><tr><td><div>Receitas de Ajax</div></td></tr><tr><td><div>False</div></td></tr><tr><td><div>http://www.web2py.com/book/default/chapter/11</div></td></tr></table></div></td></tr><tr><td><div><table><tr><td><div>Componentes e Plugins</div></td></tr><tr><td><div>False</div></td></tr><tr><td><div>http://www.web2py.com/book/default/chapter/12</div></td></tr></table></div></td></tr><tr><td><div><table><tr><td><div>Receitas de deploy</div></td></tr><tr><td><div>False</div></td></tr><tr><td><div>http://www.web2py.com/book/default/chapter/13</div></td></tr></table></div></td></tr><tr><td><div><table><tr><td><div>Outras Receitas</div></td></tr><tr><td><div>False</div></td></tr><tr><td><div>http://www.web2py.com/book/default/chapter/14</div></td></tr></table></div></td></tr><tr><td><div><table><tr><td><div>Helping web2py</div></td></tr><tr><td><div>False</div></td></tr><tr><td><div>http://www.web2py.com/book/default/chapter/15</div></td></tr></table></div></td></tr><tr><td><div><table><tr><td><div>Buy web2py\'s book</div></td></tr><tr><td><div>False</div></td></tr><tr><td><div>http://stores.lulu.com/web2py</div></td></tr></table></div></td></tr></table></div></td></tr></table></div></td></tr><tr><td><div><table><tr><td><div>Comunidade</div></td></tr><tr><td><div>False</div></td></tr><tr><td><div>None</div></td></tr><tr><td><div><table><tr><td><div><table><tr><td><div>Grupos</div></td></tr><tr><td><div>False</div></td></tr><tr><td><div>http://www.web2py.com/examples/default/usergroups</div></td></tr></table></div></td></tr><tr><td><div><table><tr><td><div>Twitter</div></td></tr><tr><td><div>False</div></td></tr><tr><td><div>http://twitter.com/web2py</div></td></tr></table></div></td></tr><tr><td><div><table><tr><td><div>Chat ao vivo</div></td></tr><tr><td><div>False</div></td></tr><tr><td><div>http://webchat.freenode.net/?channels=web2py</div></td></tr></table></div></td></tr></table></div></td></tr></table></div></td></tr><tr><td><div><table><tr><td><div>Minha Pagina Teste</div></td></tr><tr><td><div>False</div></td></tr><tr><td><div>None</div></td></tr><tr><td><div><table><tr><td><div><table><tr><td><div>Forms - accessories grid</div></td></tr><tr><td><div>False</div></td></tr><tr><td><div>http://127.0.0.1:8000/site_two_alterado/forms/accessories_grid_selectable.html</div></td></tr></table></div></td></tr><tr><td><div><table><tr><td><div>Forms - accessories crud</div></td></tr><tr><td><div>False</div></td></tr><tr><td><div>http://127.0.0.1:8000/site_two_alterado/forms/accessory_crud</div></td></tr></table></div></td></tr><tr><td><div><table><tr><td><div>Forms - car model</div></td></tr><tr><td><div>False</div></td></tr><tr><td><div>http://127.0.0.1:8000/site_two_alterado/forms/car_model_form</div></td></tr></table></div></td></tr><tr><td><div><table><tr><td><div>Forms - sale</div></td></tr><tr><td><div>False</div></td></tr><tr><td><div>http://127.0.0.1:8000/site_two_alterado/forms/sale_sqlform_factory</div></td></tr></table></div></td></tr><tr><td><div><table><tr><td><div>Forms - vendor</div></td></tr><tr><td><div>False</div></td></tr><tr><td><div>http://127.0.0.1:8000/site_two_alterado/forms/vendor_sqlform</div></td></tr></table></div></td></tr><tr><td><div><li class="divider"></li></div></td></tr><tr><td><div><table><tr><td><div>Lista grid</div></td></tr><tr><td><div>False</div></td></tr><tr><td><div>http://127.0.0.1:8000/site_two_alterado/grids/database_lists_grid</div></td></tr></table></div></td></tr><tr><td><div><table><tr><td><div>Lista smartgrid</div></td></tr><tr><td><div>False</div></td></tr><tr><td><div>http://127.0.0.1:8000/site_two_alterado/grids/database_lists_smartgrid</div></td></tr></table></div></td></tr><tr><td><div><li class="divider"></li></div></td></tr><tr><td><div><table><tr><td><div>Nova Manual</div></td></tr><tr><td><div>False</div></td></tr><tr><td><div>http://127.0.0.1:8000/site_two_alterado/NovaManual/NovaManual</div></td></tr></table></div></td></tr></table></div></td></tr></table></div></td></tr><tr><td><div><table><tr><td><div>Apostila</div></td></tr><tr><td><div>False</div></td></tr><tr><td><div>None</div></td></tr><tr><td><div><table><tr><td><div><table><tr><td><div>Gerais</div></td></tr><tr><td><div>False</div></td></tr><tr><td><div>http://127.0.0.1:8000/site_two_alterado/Apostila/Apostila</div></td></tr></table></div></td></tr><tr><td><div><li class="divider"></li></div></td></tr><tr><td><div><table><tr><td><div>Banco de Dados</div></td></tr><tr><td><div>False</div></td></tr><tr><td><div>http://127.0.0.1:8000/site_two_alterado/Apostila/BD_Apostila</div></td></tr></table></div></td></tr></table></div></td></tr></table></div></td></tr><tr><td><div><table><tr><td><div>Loja de carros</div></td></tr><tr><td><div>False</div></td></tr><tr><td><div>None</div></td></tr><tr><td><div><table><tr><td><div><table><tr><td><div>Inicial</div></td></tr><tr><td><div>False</div></td></tr><tr><td><div>http://127.0.0.1:8000/site_two_alterado/Veiculo/Inicio</div></td></tr></table></div></td></tr></table></div></td></tr></table></div></td></tr></table></div></td></tr><tr><td style="font-weight:bold;vertical-align:top;">meta</td><td style="vertical-align:top;">:</td><td><div><table><tr><td style="font-weight:bold;vertical-align:top;">author</td><td style="vertical-align:top;">:</td><td><div>Your Name &lt;you@example.com&gt;</div></td></tr><tr><td style="font-weight:bold;vertical-align:top;">description</td><td style="vertical-align:top;">:</td><td><div>a cool new app</div></td></tr><tr><td style="font-weight:bold;vertical-align:top;">generator</td><td style="vertical-align:top;">:</td><td><div>Web2py Web Framework</div></td></tr><tr><td style="font-weight:bold;vertical-align:top;">keywords</td><td style="vertical-align:top;">:</td><td><div>web2py, python, framework</div></td></tr></table></div></td></tr><tr><td style="font-weight:bold;vertical-align:top;">models_to_run</td><td style="vertical-align:top;">:</td><td><div><table><tr><td><div>^\\w+\\.py$</div></td></tr><tr><td><div>^Veiculo/\\w+\\.py$</div></td></tr><tr><td><div>^Veiculo/meu_user/\\w+\\.py$</div></td></tr></table></div></td></tr><tr><td style="font-weight:bold;vertical-align:top;">postprocessing</td><td style="vertical-align:top;">:</td><td><div><table></table></div></td></tr><tr><td style="font-weight:bold;vertical-align:top;">session_client</td><td style="vertical-align:top;">:</td><td><div>127.0.0.1</div></td></tr><tr><td style="font-weight:bold;vertical-align:top;">session_cookie_compression_level</td><td style="vertical-align:top;">:</td><td><div>None</div></td></tr><tr><td style="font-weight:bold;vertical-align:top;">session_cookie_expires</td><td style="vertical-align:top;">:</td><td><div>None</div></td></tr><tr><td style="font-weight:bold;vertical-align:top;">session_cookie_key</td><td style="vertical-align:top;">:</td><td><div>None</div></td></tr><tr><td style="font-weight:bold;vertical-align:top;">session_data_name</td><td style="vertical-align:top;">:</td><td><div>session_data_site_two_alterado</div></td></tr><tr><td style="font-weight:bold;vertical-align:top;">session_file</td><td style="vertical-align:top;">:</td><td><div>&lt;open file &#x27;C:\\\\Users\\\\TecSUS-3\\\\Desktop\\\\template_site\\\\web2py\\\\applications\\\\site_two_alterado\\\\sessions\\\\126\\\\11a\\\\127.0.0.1-f7bb48da-bbfc-47db-987c-d381661c8a3c&#x27;, mode &#x27;rb+&#x27; at 0x0A3E1A70&gt;</div></td></tr><tr><td style="font-weight:bold;vertical-align:top;">session_filename</td><td style="vertical-align:top;">:</td><td><div>C:\\Users\\TecSUS-3\\Desktop\\template_site\\web2py\\applications\\site_two_alterado\\sessions\\127.0.0.1-f7bb48da-bbfc-47db-987c-d381661c8a3c</div></td></tr><tr><td style="font-weight:bold;vertical-align:top;">session_hash</td><td style="vertical-align:top;">:</td><td><div>5e51ce8fa63c9823de73f9558f038321</div></td></tr><tr><td style="font-weight:bold;vertical-align:top;">session_id</td><td style="vertical-align:top;">:</td><td><div>127.0.0.1-f7bb48da-bbfc-47db-987c-d381661c8a3c</div></td></tr><tr><td style="font-weight:bold;vertical-align:top;">session_id_name</td><td style="vertical-align:top;">:</td><td><div>session_id_site_two_alterado</div></td></tr><tr><td style="font-weight:bold;vertical-align:top;">session_locked</td><td style="vertical-align:top;">:</td><td><div>True</div></td></tr><tr><td style="font-weight:bold;vertical-align:top;">session_masterapp</td><td style="vertical-align:top;">:</td><td><div>site_two_alterado</div></td></tr><tr><td style="font-weight:bold;vertical-align:top;">session_new</td><td style="vertical-align:top;">:</td><td><div>False</div></td></tr><tr><td style="font-weight:bold;vertical-align:top;">session_storage_type</td><td style="vertical-align:top;">:</td><td><div>file</div></td></tr><tr><td style="font-weight:bold;vertical-align:top;">status</td><td style="vertical-align:top;">:</td><td><div>200</div></td></tr><tr><td style="font-weight:bold;vertical-align:top;">subtitle</td><td style="vertical-align:top;">:</td><td><div></div></td></tr><tr><td style="font-weight:bold;vertical-align:top;">title</td><td style="vertical-align:top;">:</td><td><div>Site Two Alterado</div></td></tr><tr><td style="font-weight:bold;vertical-align:top;">view</td><td style="vertical-align:top;">:</td><td><div>Veiculo/meu_user.html</div></td></tr></table></div>'
tRp122
sS'locals'
p123
(dp124
S'Service'
p125
S"<class 'gluon.tools.Service'>"
p126
sS'OBJECT'
p127
S"<class 'gluon.html.OBJECT'>"
p128
sS'SQLDB'
p129
S"<class 'pydal.base.DAL'>"
p130
sg115
S"<Storage {'flashed': False, '_formkey[carro/2]':...c2a72', '74efbef0-5e51-44aa-952c-d66d29948a44']}>"
p131
sS'LINK'
p132
S"<class 'gluon.html.LINK'>"
p133
sS'BR'
p134
S"<class 'gluon.html.BR'>"
p135
sS'local_import'
p136
S'<function <lambda>>'
p137
sS'OPTGROUP'
p138
S"<class 'gluon.html.OPTGROUP'>"
p139
sS'__package__'
p140
S'None'
p141
sS'PRE'
p142
S"<class 'gluon.html.PRE'>"
p143
sS'IS_INT_IN_RANGE'
p144
S"<class 'gluon.validators.IS_INT_IN_RANGE'>"
p145
sS'left_sidebar_enabled'
p146
S'True'
p147
sS'IS_LOWER'
p148
S"<class 'gluon.validators.IS_LOWER'>"
p149
sS'IS_STRONG'
p150
S"<class 'gluon.validators.IS_STRONG'>"
p151
sS'cache'
p152
S'<gluon.cache.Cache object>'
p153
sS'IS_IN_DB'
p154
S"<class 'gluon.validators.IS_IN_DB'>"
p155
sS'TAG'
p156
S'<gluon.html.__TAG__ object>'
p157
sS'SQLField'
p158
S"<class 'pydal.objects.Field'>"
p159
sS'mail'
p160
S'<gluon.tools.Mail object>'
p161
sS'BODY'
p162
S"<class 'gluon.html.BODY'>"
p163
sS'IS_DATE_IN_RANGE'
p164
S"<class 'gluon.validators.IS_DATE_IN_RANGE'>"
p165
sS'IFRAME'
p166
S"<class 'gluon.html.IFRAME'>"
p167
sS'URL'
p168
S'<function URL>'
p169
sS'__file__'
p170
S"r'C:\\Users\\TecSUS-3\\Desktop\\template_site\\web2py\\a...ons\\site_two_alterado\\views\\Veiculo/meu_user.html'"
p171
sS'db'
p172
S'<DAL uri="sqlite://storage.sqlite">'
p173
sS'auth'
p174
S'<gluon.tools.Auth object>'
p175
sS'P'
S"<class 'gluon.html.P'>"
p176
sS'TFOOT'
p177
S"<class 'gluon.html.TFOOT'>"
p178
sS'XHTML'
p179
S"<class 'gluon.html.XHTML'>"
p180
sS'db2'
p181
S'<DAL uri="sqlite://storage.sqlite">'
p182
sS'ON'
p183
g147
sS'OL'
p184
S"<class 'gluon.html.OL'>"
p185
sS'TEXTAREA'
p186
S"<class 'gluon.html.TEXTAREA'>"
p187
sS'MENU'
p188
S"<class 'gluon.html.MENU'>"
p189
sS'SHOWCASE'
p190
S'<function SHOWCASE>'
p191
sS'purchased'
p192
S'<Query ((person.id = purchased.buyer_id) AND (product.id = purchased.product_id))>'
p193
sS'IS_IMAGE'
p194
S"<class 'gluon.validators.IS_IMAGE'>"
p195
sS'estados'
p196
S"('Novo', 'Usado')"
p197
sS'e_m'
p198
S"{'email': 'Voc\\xc3\\xaa precisa inserir um e-mail v\\xc3\\xa1lido', 'empty': 'Este campo \\xc3\\xa9 obrigat\\xc3\\xb3rio', 'image': 'O arquivo precisa ser uma imagem v\\xc3\\xa1lida', 'in_db': 'Este registro j\\xc3\\xa1 existe no banco de dados', 'not_in_db': 'Este registro n\\xc3\\xa3o existe no banco de dados', 'not_in_range': 'Digite um n\\xc3\\xbamero entre %(min)s e %(max)s', 'not_in_set': 'Voc\\xc3\\xaa precisa escolher um valor v\\xc3\\xa1lido'}"
p199
sS'EM'
p200
S"<class 'gluon.html.EM'>"
p201
sS'CODE'
p202
S"<class 'gluon.html.CODE'>"
p203
sS'HTTP'
p204
S"<class 'gluon.http.HTTP'>"
p205
sS'HR'
p206
S"<class 'gluon.html.HR'>"
p207
sS'IS_DATETIME'
p208
S"<class 'gluon.validators.IS_DATETIME'>"
p209
sS'STYLE'
p210
S"<class 'gluon.html.STYLE'>"
p211
sS'LABEL'
p212
S"<class 'gluon.html.LABEL'>"
p213
sS'CLEANUP'
p214
S"<class 'gluon.validators.CLEANUP'>"
p215
sS'plugins'
p216
S'<gluon.tools.PluginManager object>'
p217
sS'SELECT'
p218
S"<class 'gluon.html.SELECT'>"
p219
sS'CENTER'
p220
S"<class 'gluon.html.CENTER'>"
p221
sS'Auth'
p222
S"<class 'gluon.tools.Auth'>"
p223
sS'DEVELOPMENT_MENU'
p224
g147
sS'__builtins__'
p225
S"{'ArithmeticError': <type 'exceptions.ArithmeticError'>, 'AssertionError': <type 'exceptions.AssertionError'>, 'AttributeError': <type 'exceptions.AttributeError'>, 'BaseException': <type 'exceptions.BaseException'>, 'BufferError': <type 'exceptions.BufferError'>, 'BytesWarning': <type 'exceptions.BytesWarning'>, 'DeprecationWarning': <type 'exceptions.DeprecationWarning'>, 'EOFError': <type 'exceptions.EOFError'>, 'Ellipsis': Ellipsis, 'EnvironmentError': <type 'exceptions.EnvironmentError'>, ...}"
p226
sS'HTML'
p227
S"<class 'gluon.html.HTML'>"
p228
sS'SQLFORM'
p229
S"<class 'gluon.sqlhtml.SQLFORM'>"
p230
sS'LOAD'
p231
S'<function LOAD>'
p232
sS'redirect'
p233
S'<function redirect>'
p234
sS'FIELDSET'
p235
S"<class 'gluon.html.FIELDSET'>"
p236
sS'IS_EQUAL_TO'
p237
S"<class 'gluon.validators.IS_EQUAL_TO'>"
p238
sS'embed64'
p239
S'<function embed64>'
p240
sS'IS_LIST_OF'
p241
S"<class 'gluon.validators.IS_LIST_OF'>"
p242
sS'INPUT'
p243
S"<class 'gluon.html.INPUT'>"
p244
sS'EMBED'
p245
S"<class 'gluon.html.EMBED'>"
p246
sS'_'
S'<function _>'
p247
sS'myconf'
p248
S"{'forms': {'formstyle': 'bootstrap3_inline', 'se...csus@gmail.com', 'server': 'smtp.gmail.com:587'}}"
p249
sS'H2'
p250
S"<class 'gluon.html.H2'>"
p251
sS'H3'
p252
S"<class 'gluon.html.H3'>"
p253
sS'AppConfig'
p254
S'<function AppConfig>'
p255
sS'title'
p256
S"'Login'"
p257
sS'H6'
p258
S"<class 'gluon.html.H6'>"
p259
sS'H4'
p260
S"<class 'gluon.html.H4'>"
p261
sS'H5'
p262
S"<class 'gluon.html.H5'>"
p263
sS'UL'
p264
S"<class 'gluon.html.UL'>"
p265
sS'IS_UPPER'
p266
S"<class 'gluon.validators.IS_UPPER'>"
p267
sS'xmlescape'
p268
S'<function xmlescape>'
p269
sS'IS_TIME'
p270
S"<class 'gluon.validators.IS_TIME'>"
p271
sS'OPTION'
p272
S"<class 'gluon.html.OPTION'>"
p273
sS'TITLE'
p274
S"<class 'gluon.html.TITLE'>"
p275
sS'CRYPT'
p276
S"<class 'gluon.validators.CRYPT'>"
p277
sS'IS_EMPTY_OR'
p278
S"<class 'gluon.validators.IS_EMPTY_OR'>"
p279
sS'MARKMIN'
p280
S"<class 'gluon.html.MARKMIN'>"
p281
sS'__name__'
p282
S"'__restricted__'"
p283
sS'STRONG'
p284
S"<class 'gluon.html.STRONG'>"
p285
sS'COL'
p286
S"<class 'gluon.html.COL'>"
p287
sS'mc1'
p288
S"'col-md-9'"
p289
sS'mc0'
p290
S"'col-md-12'"
p291
sS'service'
p292
S'<gluon.tools.Service object>'
p293
sS'SCRIPT'
p294
S"<class 'gluon.html.SCRIPT'>"
p295
sS'TABLE'
p296
S"<class 'gluon.html.TABLE'>"
p297
sS'IS_IPV4'
p298
S"<class 'gluon.validators.IS_IPV4'>"
p299
sS'IS_LENGTH'
p300
S"<class 'gluon.validators.IS_LENGTH'>"
p301
sS'IS_IPV6'
p302
S"<class 'gluon.validators.IS_IPV6'>"
p303
sS'XML'
p304
S"<class 'gluon.html.XML'>"
p305
sS'B'
S"<class 'gluon.html.B'>"
p306
sS'IMG'
p307
S"<class 'gluon.html.IMG'>"
p308
sS'SQLTABLE'
p309
S"<class 'gluon.sqlhtml.SQLTABLE'>"
p310
sS'IS_MATCH'
p311
S"<class 'gluon.validators.IS_MATCH'>"
p312
sS'IS_ALPHANUMERIC'
p313
S"<class 'gluon.validators.IS_ALPHANUMERIC'>"
p314
sS'__author__'
p315
S"'TecSUS-3'"
p316
sS'SPAN'
p317
S"<class 'gluon.html.SPAN'>"
p318
sS'IS_JSON'
p319
S"<class 'gluon.validators.IS_JSON'>"
p320
sS'IS_IPADDRESS'
p321
S"<class 'gluon.validators.IS_IPADDRESS'>"
p322
sS'auth2'
p323
S'<gluon.tools.Auth object>'
p324
sS'IS_SLUG'
p325
S"<class 'gluon.validators.IS_SLUG'>"
p326
sS'BEAUTIFY'
p327
S"<class 'gluon.html.BEAUTIFY'>"
p328
sS'META'
p329
S"<class 'gluon.html.META'>"
p330
sS'IS_URL'
p331
S"<class 'gluon.validators.IS_URL'>"
p332
sS'BUTTON'
p333
S"<class 'gluon.html.BUTTON'>"
p334
sS'mails'
p335
S'<gluon.tools.Mail object>'
p336
sS'H1'
p337
S"<class 'gluon.html.H1'>"
p338
sS'IS_DATE'
p339
S"<class 'gluon.validators.IS_DATE'>"
p340
sS'IS_EMAIL'
p341
S"<class 'gluon.validators.IS_EMAIL'>"
p342
sS'middle_column'
p343
S"'col-md-9'"
p344
sS'IS_NOT_EMPTY'
p345
S"<class 'gluon.validators.IS_NOT_EMPTY'>"
p346
sS'IS_FLOAT_IN_RANGE'
p347
S"<class 'gluon.validators.IS_FLOAT_IN_RANGE'>"
p348
sS'TBODY'
p349
S"<class 'gluon.html.TBODY'>"
p350
sS'CAT'
p351
S"<class 'gluon.html.CAT'>"
p352
sS'Field'
p353
S"<class 'pydal.objects.Field'>"
p354
sS'mc2'
p355
S"'col-md-6'"
p356
sS'IS_LIST_OF_EMAILS'
p357
S"<class 'gluon.validators.IS_LIST_OF_EMAILS'>"
p358
sS'Mail'
p359
S"<class 'gluon.tools.Mail'>"
p360
sS'DIV'
p361
S"<class 'gluon.html.DIV'>"
p362
sS'LEGEND'
p363
S"<class 'gluon.html.LEGEND'>"
p364
sS'COLGROUP'
p365
S"<class 'gluon.html.COLGROUP'>"
p366
sS'DAL'
p367
S"<class 'pydal.base.DAL'>"
p368
sS'ASSIGNJS'
p369
S'<function ASSIGNJS>'
p370
sS'TR'
p371
S"<class 'gluon.html.TR'>"
p372
sS'LI'
p373
S"<class 'gluon.html.LI'>"
p374
sS'right_sidebar_enabled'
p375
S'False'
p376
sS'TH'
p377
S"<class 'gluon.html.TH'>"
p378
sS'TD'
p379
S"<class 'gluon.html.TD'>"
p380
sS'PluginManager'
p381
S"<class 'gluon.tools.PluginManager'>"
p382
sS'config'
p383
S"{'dscsite': 'S\\xc3\\xb3 os melhores carros', 'nmsite': 'Loja de Carro'}"
p384
sS'A'
S"<class 'gluon.html.A'>"
p385
sS'HEAD'
p386
S"<class 'gluon.html.HEAD'>"
p387
sS'IS_DATETIME_IN_RANGE'
p388
S"<class 'gluon.validators.IS_DATETIME_IN_RANGE'>"
p389
sS'FORM'
p390
S"<class 'gluon.html.FORM'>"
p391
sS'I'
S"<class 'gluon.html.I'>"
p392
sS'IS_NOT_IN_DB'
p393
S"<class 'gluon.validators.IS_NOT_IN_DB'>"
p394
sg121
S"<Storage {'body': <cStringIO.StringO object at 0...at 0x0A50BE70>, 'view': 'Veiculo/meu_user.html'}>"
p395
sS'THEAD'
p396
S"<class 'gluon.html.THEAD'>"
p397
sS'ANY_OF'
p398
S"<class 'gluon.validators.ANY_OF'>"
p399
sS'IS_NULL_OR'
p400
S"<class 'gluon.validators.IS_EMPTY_OR'>"
p401
sS'notempty'
p402
S'<gluon.validators.IS_NOT_EMPTY object>'
p403
sg56
S"<Storage {'_vars': <Storage {}>, 'function': 'me...ite\\\\web2py\\\\applications\\\\site_two_alterado\\\\'}>"
p404
sS'IS_EXPR'
p405
S"<class 'gluon.validators.IS_EXPR'>"
p406
sS'T'
S'<gluon.languages.translator object>'
p407
sS'IS_IN_SET'
p408
S"<class 'gluon.validators.IS_IN_SET'>"
p409
sS'IS_UPLOAD_FILENAME'
p410
S"<class 'gluon.validators.IS_UPLOAD_FILENAME'>"
p411
sS'cores'
p412
S"('Azul', 'Amarelo', 'Verde', 'Vermelho', 'Prata', 'Branco', 'Preto', 'Vinho')"
p413
sS'TT'
p414
S"<class 'gluon.html.TT'>"
p415
sS'IS_DECIMAL_IN_RANGE'
p416
S"<class 'gluon.validators.IS_DECIMAL_IN_RANGE'>"
p417
sssS'traceback'
p418
S'Traceback (most recent call last):\n  File "C:\\Users\\TecSUS-3\\Desktop\\template_site\\web2py\\gluon\\restricted.py", line 227, in restricted\n    exec ccode in environment\n  File "C:\\Users\\TecSUS-3\\Desktop\\template_site\\web2py\\applications\\site_two_alterado\\views\\Veiculo/meu_user.html", line 98, in <module>\nNameError: name \'form\' is not defined\n'
p419
s.