(dp1
S'output'
p2
S"<type 'exceptions.SyntaxError'> widget cannot determine options of <Storage {'_vars': <Storage {}>, 'function': 'autocomplet', 'cookies': <SimpleCookie: session_id_admin='127.0.0.1-ae24fa66-5f07-4df3-9335-1a5ebeb275df' session_id_site_two_alterado='127.0.0.1-ec5b716f-e038-4389-a095-f3dc26f5c95a' session_id_welcome='127.0.0.1-57b89239-e551-49dc-9530-68f9cfce13af'>, 'global_settings': <Storage {'debugging': False, 'is_pypy': False, 'local_hosts': ['192.241.173.135', 'fe80::487:2eff:2cf4:8cd6%11', 'TecSUS-3-PC', 'TecSUS-3-PC.tecsus.com.br', '::ffff:127.0.0.1', '::1', '192.168.0.2', 'fe80::5efe:192.168.0.2%12', '127.0.0.1'], 'is_source': True, 'gluon_parent': 'C:\\\\Users\\\\TecSUS-3\\\\Desktop\\\\template_site\\\\web2py', 'is_jython': False, 'applications_parent': 'C:\\\\Users\\\\TecSUS-3\\\\Desktop\\\\template_site\\\\web2py', 'cmd_options': <Values at 0x38a7cb0: {'verbose': False, 'ip': '127.0.0.1', 'debuglevel': 30, 'with_scheduler': False, 'ips': ['192.241.173.135'], 'shutdown_timeout': 5, 'taskbar': False, 'with_coverage': False, 'scheduler_groups': None, 'port': 8000, 'maxthreads': None, 'softcron': False, 'server_name': 'TecSUS-3-PC', 'bpython': False, 'nogui': False, 'pid_filename': 'httpserver.pid', 'print_errors': False, 'extcron': False, 'runcron': False, 'run_system_tests': False, 'test': None, 'folder': 'C:\\\\Users\\\\TecSUS-3\\\\Desktop\\\\template_site\\\\web2py', 'config': '', 'minthreads': None, 'shell': None, 'run': '', 'log_filename': 'httpserver.log', 'profiler_dir': None, 'args': [''], 'socket_timeout': 5, 'ssl_ca_certificate': None, 'scheduler': None, 'interfaces': None, 'ssl_private_key': '', 'gae': None, 'password': '<ask>', 'request_queue_size': 5, 'ssl_certificate': '', 'cronjob': False, 'numthreads': None, 'quiet': False, 'import_models': False, 'timeout': 10, 'plain': False, 'nobanner': False}>, 'app_folders': set(['C:\\\\Users\\\\TecSUS-3\\\\Desktop\\\\template_site\\\\web2py\\\\applications\\\\admin\\\\', 'C:\\\\Users\\\\TecSUS-3\\\\Desktop\\\\template_site\\\\web2py\\\\applications\\\\site_two_alterado\\\\', 'C:\\\\Users\\\\TecSUS-3\\\\Desktop\\\\template_site\\\\web2py\\\\applications\\\\welcome\\\\']), 'db_sessions': set([]), 'web2py_version': '2.10.4-stable+timestamp.2015.04.26.15.11.54', 'cmd_args': []}>, 'raw_extension': None, '_body': <cStringIO.StringO object at 0x0A295DE0>, 'args': [], 'raw_args': '', 'controller': 'NovaManual', 'utcnow': datetime.datetime(2015, 8, 14, 16, 47, 5, 401000), 'url': '/site_two_alterado/NovaManual/autocomplet', 'now': datetime.datetime(2015, 8, 14, 13, 47, 5, 401000), 'is_local': True, 'wsgi': <gluon.main.LazyWSGI object at 0x0493B8B0>, 'is_shell': None, 'uuid': 'site_two_alterado/127.0.0.1.2015-08-14.13-47-05.6e613f0c-717f-4622-bfef-2a77bbc6f24b', 'extension': 'html', 'cid': None, '_post_vars': <Storage {}>, '_get_vars': <Storage {}>, 'ajax': False, 'is_https': False, 'is_sheduler': None, 'application': 'site_two_alterado', 'client': '127.0.0.1', 'is_restful': False, 'env': <Storage {'HTTP_REFERER': 'http://127.0.0.1:8000/site_two_alterado/NovaManual/autocomplet', 'SERVER_SOFTWARE': 'Rocket 1.2.6', 'SCRIPT_NAME': '', 'REQUEST_METHOD': 'GET', 'SERVER_PROTOCOL': 'HTTP/1.1', 'http_cache_control': 'max-age=0', 'web2py_path': 'C:\\\\Users\\\\TecSUS-3\\\\Desktop\\\\template_site\\\\web2py', 'wsgi_url_scheme': 'http', 'server_name': 'TecSUS-3-PC', 'wsgi_multiprocess': False, 'applications_parent': 'C:\\\\Users\\\\TecSUS-3\\\\Desktop\\\\template_site\\\\web2py', 'cmd_options': <Values at 0x38a7cb0: {'verbose': False, 'ip': '127.0.0.1', 'debuglevel': 30, 'with_scheduler': False, 'ips': ['192.241.173.135'], 'shutdown_timeout': 5, 'taskbar': False, 'with_coverage': False, 'scheduler_groups': None, 'port': 8000, 'maxthreads': None, 'softcron': False, 'server_name': 'TecSUS-3-PC', 'bpython': False, 'nogui': False, 'pid_filename': 'httpserver.pid', 'print_errors': False, 'extcron': False, 'runcron': False, 'run_system_tests': False, 'test': None, 'folder': 'C:\\\\Users\\\\TecSUS-3\\\\Desktop\\\\template_site\\\\web2py', 'config': '', 'minthreads': None, 'shell': None, 'run': '', 'log_filename': 'httpserver.log', 'profiler_dir': None, 'args': [''], 'socket_timeout': 5, 'ssl_ca_certificate': None, 'scheduler': None, 'interfaces': None, 'ssl_private_key': '', 'gae': None, 'password': '<ask>', 'request_queue_size': 5, 'ssl_certificate': '', 'cronjob': False, 'numthreads': None, 'quiet': False, 'import_models': False, 'timeout': 10, 'plain': False, 'nobanner': False}>, 'wsgi_errors': <open file '<stderr>', mode 'w' at 0x0049D0D0>, 'request_method': 'GET', 'remote_addr': '127.0.0.1', 'SERVER_PORT': '8000', 'http_upgrade_insecure_requests': '1', 'wsgi_multithread': True, 'web2py_version': '2.10.4-stable+timestamp.2015.04.26.15.11.54', 'HTTP_HOST': '127.0.0.1:8000', 'script_name': '', 'http_accept_encoding': 'gzip, deflate, sdch', 'HTTP_UPGRADE_INSECURE_REQUESTS': '1', 'HTTP_CACHE_CONTROL': 'max-age=0', 'request_uri': '/site_two_alterado/NovaManual/autocomplet', 'HTTP_ACCEPT': 'text/html,application/xhtml+xml,application/xml;q=0.9,image/webp,*/*;q=0.8', 'wsgi.version': (1, 0), 'local_hosts': ['192.241.173.135', 'fe80::487:2eff:2cf4:8cd6%11', 'TecSUS-3-PC', 'TecSUS-3-PC.tecsus.com.br', '::ffff:127.0.0.1', '::1', '192.168.0.2', 'fe80::5efe:192.168.0.2%12', '127.0.0.1'], 'wsgi.run_once': False, 'wsgi.errors': <open file '<stderr>', mode 'w' at 0x0049D0D0>, 'wsgi.multiprocess': False, 'HTTP_ACCEPT_LANGUAGE': 'pt-BR,pt;q=0.8,en-US;q=0.6,en;q=0.4', 'wsgi_input': <socket._fileobject object at 0x0A7BF370>, 'app_folders': set(['C:\\\\Users\\\\TecSUS-3\\\\Desktop\\\\template_site\\\\web2py\\\\applications\\\\admin\\\\', 'C:\\\\Users\\\\TecSUS-3\\\\Desktop\\\\template_site\\\\web2py\\\\applications\\\\site_two_alterado\\\\', 'C:\\\\Users\\\\TecSUS-3\\\\Desktop\\\\template_site\\\\web2py\\\\applications\\\\welcome\\\\']), 'http_connection': 'keep-alive', 'debugging': False, 'http_user_agent': 'Mozilla/5.0 (Windows NT 6.1; WOW64) AppleWebKit/537.36 (KHTML, like Gecko) Chrome/44.0.2403.155 Safari/537.36', 'HTTP_COOKIE': 'session_id_welcome=127.0.0.1-57b89239-e551-49dc-9530-68f9cfce13af; session_id_site_two_alterado=127.0.0.1-ec5b716f-e038-4389-a095-f3dc26f5c95a; session_id_admin=127.0.0.1-ae24fa66-5f07-4df3-9335-1a5ebeb275df', 'PATH_INFO': '/site_two_alterado/NovaManual/autocomplet', 'server_protocol': 'HTTP/1.1', 'QUERY_STRING': '', 'cmd_args': [], 'http_accept': 'text/html,application/xhtml+xml,application/xml;q=0.9,image/webp,*/*;q=0.8', 'HTTP_USER_AGENT': 'Mozilla/5.0 (Windows NT 6.1; WOW64) AppleWebKit/537.36 (KHTML, like Gecko) Chrome/44.0.2403.155 Safari/537.36', 'HTTP_CONNECTION': 'keep-alive', 'SERVER_NAME': 'TecSUS-3-PC', 'REMOTE_ADDR': '127.0.0.1', 'is_jython': False, 'http_accept_language': 'pt-BR,pt;q=0.8,en-US;q=0.6,en;q=0.4', 'wsgi_version': (1, 0), 'wsgi.url_scheme': 'http', 'is_source': True, 'server_port': '8000', 'remote_port': '51080', 'http_cookie': 'session_id_welcome=127.0.0.1-57b89239-e551-49dc-9530-68f9cfce13af; session_id_site_two_alterado=127.0.0.1-ec5b716f-e038-4389-a095-f3dc26f5c95a; session_id_admin=127.0.0.1-ae24fa66-5f07-4df3-9335-1a5ebeb275df', 'gluon_parent': 'C:\\\\Users\\\\TecSUS-3\\\\Desktop\\\\template_site\\\\web2py', 'server_software': 'Rocket 1.2.6', 'wsgi_file_wrapper': <class wsgiref.util.FileWrapper at 0x03842F10>, 'wsgi.input': <socket._fileobject object at 0x0A7BF370>, 'http_host': '127.0.0.1:8000', 'path_info': '/site_two_alterado/NovaManual/autocomplet', 'wsgi.multithread': True, 'http_referer': 'http://127.0.0.1:8000/site_two_alterado/NovaManual/autocomplet', 'is_pypy': False, 'REMOTE_PORT': '51080', 'db_sessions': set([]), 'query_string': '', 'wsgi_run_once': False, 'wsgi.file_wrapper': <class wsgiref.util.FileWrapper at 0x03842F10>, 'HTTP_ACCEPT_ENCODING': 'gzip, deflate, sdch'}>, 'folder': 'C:\\\\Users\\\\TecSUS-3\\\\Desktop\\\\template_site\\\\web2py\\\\applications\\\\site_two_alterado\\\\'}>"
p3
sS'layer'
p4
S'C:\\Users\\TecSUS-3\\Desktop\\template_site\\web2py\\applications\\site_two_alterado\\models\\db.py'
p5
sS'code'
p6
S"# -*- coding: utf-8 -*-\n\n#########################################################################\n## This scaffolding model makes your app work on Google App Engine too\n## File is released under public domain and you can use without limitations\n#########################################################################\n\n## if SSL/HTTPS is properly configured and you want all HTTP requests to\n## be redirected to HTTPS, uncomment the line below:\n# request.requires_https()\n\n## app configuration made easy. Look inside private/appconfig.ini\nfrom gluon.contrib.appconfig import AppConfig\n## once in production, remove reload=True to gain full speed\nmyconf = AppConfig(reload=True)\n\n\nif not request.env.web2py_runtime_gae:\n    ## if NOT running on Google App Engine use SQLite or other DB\n    db = DAL(myconf.take('db.uri'), pool_size=myconf.take('db.pool_size', cast=int), check_reserved=['all'])\nelse:\n    ## connect to Google BigTable (optional 'google:datastore://namespace')\n    db = DAL('google:datastore+ndb')\n    ## store sessions and tickets there\n    session.connect(request, response, db=db)\n    ## or store session in Memcache, Redis, etc.\n    ## from gluon.contrib.memdb import MEMDB\n    ## from google.appengine.api.memcache import Client\n    ## session.connect(request, response, db = MEMDB(Client()))\n\n## by default give a view/generic.extension to all actions from localhost\n## none otherwise. a pattern can be 'controller/function.extension'\nresponse.generic_patterns = ['*'] if request.is_local else []\n## choose a style for forms\nresponse.formstyle = myconf.take('forms.formstyle')  # or 'bootstrap3_stacked' or 'bootstrap2' or other\nresponse.form_label_separator = myconf.take('forms.separator')\n\n\n## (optional) optimize handling of static files\n# response.optimize_css = 'concat,minify,inline'\n# response.optimize_js = 'concat,minify,inline'\n## (optional) static assets folder versioning\n# response.static_version = '0.0.0'\n#########################################################################\n## Here is sample code if you need for\n## - email capabilities\n## - authentication (registration, login, logout, ... )\n## - authorization (role based authorization)\n## - services (xml, csv, json, xmlrpc, jsonrpc, amf, rss)\n## - old style crud actions\n## (more options discussed in gluon/tools.py)\n#########################################################################\n\nfrom gluon.tools import Auth, Service, PluginManager\n\nauth = Auth(db)\nservice = Service()\nplugins = PluginManager()\n\n## create all tables needed by auth if not custom tables\nauth.define_tables(username=False, signature=False)\n\n## configure email\nmail = auth.settings.mailer\nmail.settings.server = 'logging' if request.is_local else myconf.take('smtp.server')\nmail.settings.sender = myconf.take('smtp.sender')\nmail.settings.login = myconf.take('smtp.login')\n\n## configure auth policy\nauth.settings.registration_requires_verification = False\nauth.settings.registration_requires_approval = False\nauth.settings.reset_password_requires_verification = True\n\n#########################################################################\n## Define your tables below (or better in another model file) for example\n##\n## >>> db.define_table('mytable',Field('myfield','string'))\n##\n## Fields can be 'string','text','password','integer','double','boolean'\n##       'date','time','datetime','blob','upload', 'reference TABLENAME'\n## There is an implicit 'id integer autoincrement' field\n## Consult manual for more options, validators, etc.\n##\n## More API examples for controllers:\n##\n## >>> db.mytable.insert(myfield='value')\n## >>> rows=db(db.mytable.myfield=='value').select(db.mytable.ALL)\n## >>> for row in rows: print row.id, row.myfield\n#########################################################################\n\n## after defining tables, uncomment below to enable auditing\n# auth.enable_record_versioning(db)\ndb.define_table('car_model',\n                Field('car_model', type='string', label='Car Model', requires=IS_NOT_EMPTY()),\n                Field('car_base_price', type='double', label='Base Price', requires=IS_NOT_EMPTY()))\n\n\ndb.define_table('vendor',\n                Field('vendor_name', type='string', label='Name', requires=IS_NOT_EMPTY()),\n                Field('vendor_birthday',type='date', label='Birthday', requires=IS_DATE()),\n                Field('vendor_cpf', type='string', label='CPF'))\n\ndb.define_table('accessory',\n                Field('accessory_name',  type='string', label='Accessory', requires=IS_NOT_EMPTY()),\n                Field('accessory_price', type='double', label='Base Price', requires=IS_FLOAT_IN_RANGE(0,1000000)),\n                Field('accessory_image_file', type='upload'))\n\ndb.define_table('sale',\n                Field('car_id', 'reference car_model', label='Sale Car'),\n                Field('vendor_id','reference vendor', label='Sale Vendor'),\n                Field('sale_date', type='date', label='Date',requires=IS_DATE()),\n                Field('sale_discount', type='integer', label='Discount', requires=IS_INT_IN_RANGE(0,100)),\n                Field('sale_total_price', type='double', label='Total Price', requires=IS_NOT_EMPTY()))\n\ndb.sale.car_id.widget    = SQLFORM.widgets.autocomplete(request, db.car_model.car_model, id_field=db.car_model.id)\ndb.sale.vendor_id.widget = SQLFORM.widgets.autocomplete(request, db.vendor.vendor_name, id_field=db.vendor.id)\n\ndb.define_table('accessory_list',\n                Field('sale_id','reference sale'),\n                Field('accessory_id','reference accessory'))\n\n\ndb.define_table(\n    'person',\n    Field('name'),\n    Field('email'),\n    format = '%(name)s')\n\n# ONE (person) TO MANY (products)\n\ndb.define_table(\n    'product',\n    Field('seller_id',db.person),\n    Field('name'),\n    Field('description', 'text'),\n    Field('picture', 'upload', default=''),\n    format = '%(name)s')\n\n# MANY (persons) TO MANY (purchased)\n\ndb.define_table(\n    'purchased',\n    Field('buyer_id', db.person),\n    Field('product_id', db.product),\n    Field('quantity', 'integer'),\n    format = '%(quantity)s %(product_id)s -> %(buyer_id)s')\n\npurchased = (db.person.id==db.purchased.buyer_id)&(db.product.id==db.purchased.product_id)\n\ndb.person.name.requires = IS_NOT_EMPTY()\ndb.person.email.requires = [IS_EMAIL(), IS_NOT_IN_DB(db, 'person.email')]\ndb.product.name.requires = IS_NOT_EMPTY()\ndb.purchased.quantity.requires = IS_INT_IN_RANGE(0, 10)\n\n#brincando com uma tabela com o exemplo da aposti\n\ndb.define_table('minhatabela',\n                Field('meucampo','string')\n                )\n\ndb.minhatabela.notnull=True\ndb.minhatabela.required=True\ndb.minhatabela.meucampo.requires=IS_NOT_EMPTY()\ndb.minhatabela.defaul='Ol\xc3\xa1 mundo'\n\ndb.minhatabela.meucampo.widget = SQLFORM.widgets.autocomplete(request,db.minhatabela.meucampo, id_field=db.minhatabela.meucampo)\n\ndb.define_table('numbers',\n    Field('asa', 'integer'),\n    Field('b', 'integer'),\n    Field('casa', 'integer', readable=False, writable=False))\n\ndb.define_table('dog',Field('name'))\n\ndb.define_table('person4',\n    Field('name', requires=IS_NOT_EMPTY()),\n    Field('married', 'boolean'),\n    Field('gender', requires=IS_IN_SET(['Male', 'Female', 'Other'])),\n    Field('profile', 'text'),\n    Field('image_filename'),\n    Field('image', 'upload',autodelete=True))\n\ndb.define_table('client',\n     Field('name'))\n\ndb.define_table('address',\n    Field('client','reference client',\n          writable=False,readable=False),\n    Field('street'),Field('city'))\n\ndb.define_table('category',Field('name'))\ndb.define_table('product2',Field('name'),Field('category'))\n#db.product2.category.widget = SQLFORM.widgets.autocomplete(request, db.category.name, limitby=(0,10), min_length=2)\ndb.product2.category.widget = SQLFORM.widgets.checkboxes.widget(request, db.category.name, limitby=(0,10), min_length=2)"
p7
sS'snapshot'
p8
(dp9
S'exception'
p10
(dp11
S'__getslice__'
p12
S"<method-wrapper '__getslice__' of exceptions.SyntaxError object>"
p13
sS'text'
p14
S'None'
p15
sS'__str__'
p16
S"<method-wrapper '__str__' of exceptions.SyntaxError object>"
p17
sS'__reduce__'
p18
S'<built-in method __reduce__ of exceptions.SyntaxError object>'
p19
sS'__dict__'
p20
S'{}'
p21
sS'__sizeof__'
p22
S'<built-in method __sizeof__ of exceptions.SyntaxError object>'
p23
sS'__init__'
p24
S"<method-wrapper '__init__' of exceptions.SyntaxError object>"
p25
sS'__setattr__'
p26
S"<method-wrapper '__setattr__' of exceptions.SyntaxError object>"
p27
sS'__reduce_ex__'
p28
S'<built-in method __reduce_ex__ of exceptions.SyntaxError object>'
p29
sS'__new__'
p30
S'<built-in method __new__ of type object>'
p31
sS'__format__'
p32
S'<built-in method __format__ of exceptions.SyntaxError object>'
p33
sS'__class__'
p34
S"<type 'exceptions.SyntaxError'>"
p35
sS'filename'
p36
S'None'
p37
sS'lineno'
p38
S'None'
p39
sS'msg'
p40
S'r"widget cannot determine options of <Storage {\'_v...ite\\\\web2py\\\\applications\\\\site_two_alterado\\\\\'}>"'
p41
sS'__doc__'
p42
S"'Invalid syntax.'"
p43
sS'__getitem__'
p44
S"<method-wrapper '__getitem__' of exceptions.SyntaxError object>"
p45
sS'__setstate__'
p46
S'<built-in method __setstate__ of exceptions.SyntaxError object>'
p47
sS'__getattribute__'
p48
S"<method-wrapper '__getattribute__' of exceptions.SyntaxError object>"
p49
sS'print_file_and_line'
p50
S'None'
p51
sS'args'
p52
S'(r"widget cannot determine options of <Storage {\'_v...ite\\\\web2py\\\\applications\\\\site_two_alterado\\\\\'}>",)'
p53
sS'__subclasshook__'
p54
S'<built-in method __subclasshook__ of type object>'
p55
sS'offset'
p56
S'None'
p57
sS'__unicode__'
p58
S'<built-in method __unicode__ of exceptions.SyntaxError object>'
p59
sS'__delattr__'
p60
S"<method-wrapper '__delattr__' of exceptions.SyntaxError object>"
p61
sS'__repr__'
p62
S"<method-wrapper '__repr__' of exceptions.SyntaxError object>"
p63
sS'__hash__'
p64
S"<method-wrapper '__hash__' of exceptions.SyntaxError object>"
p65
ssS'evalue'
p66
S"widget cannot determine options of <Storage {'_vars': <Storage {}>, 'function': 'autocomplet', 'cookies': <SimpleCookie: session_id_admin='127.0.0.1-ae24fa66-5f07-4df3-9335-1a5ebeb275df' session_id_site_two_alterado='127.0.0.1-ec5b716f-e038-4389-a095-f3dc26f5c95a' session_id_welcome='127.0.0.1-57b89239-e551-49dc-9530-68f9cfce13af'>, 'global_settings': <Storage {'debugging': False, 'is_pypy': False, 'local_hosts': ['192.241.173.135', 'fe80::487:2eff:2cf4:8cd6%11', 'TecSUS-3-PC', 'TecSUS-3-PC.tecsus.com.br', '::ffff:127.0.0.1', '::1', '192.168.0.2', 'fe80::5efe:192.168.0.2%12', '127.0.0.1'], 'is_source': True, 'gluon_parent': 'C:\\\\Users\\\\TecSUS-3\\\\Desktop\\\\template_site\\\\web2py', 'is_jython': False, 'applications_parent': 'C:\\\\Users\\\\TecSUS-3\\\\Desktop\\\\template_site\\\\web2py', 'cmd_options': <Values at 0x38a7cb0: {'verbose': False, 'ip': '127.0.0.1', 'debuglevel': 30, 'with_scheduler': False, 'ips': ['192.241.173.135'], 'shutdown_timeout': 5, 'taskbar': False, 'with_coverage': False, 'scheduler_groups': None, 'port': 8000, 'maxthreads': None, 'softcron': False, 'server_name': 'TecSUS-3-PC', 'bpython': False, 'nogui': False, 'pid_filename': 'httpserver.pid', 'print_errors': False, 'extcron': False, 'runcron': False, 'run_system_tests': False, 'test': None, 'folder': 'C:\\\\Users\\\\TecSUS-3\\\\Desktop\\\\template_site\\\\web2py', 'config': '', 'minthreads': None, 'shell': None, 'run': '', 'log_filename': 'httpserver.log', 'profiler_dir': None, 'args': [''], 'socket_timeout': 5, 'ssl_ca_certificate': None, 'scheduler': None, 'interfaces': None, 'ssl_private_key': '', 'gae': None, 'password': '<ask>', 'request_queue_size': 5, 'ssl_certificate': '', 'cronjob': False, 'numthreads': None, 'quiet': False, 'import_models': False, 'timeout': 10, 'plain': False, 'nobanner': False}>, 'app_folders': set(['C:\\\\Users\\\\TecSUS-3\\\\Desktop\\\\template_site\\\\web2py\\\\applications\\\\admin\\\\', 'C:\\\\Users\\\\TecSUS-3\\\\Desktop\\\\template_site\\\\web2py\\\\applications\\\\site_two_alterado\\\\', 'C:\\\\Users\\\\TecSUS-3\\\\Desktop\\\\template_site\\\\web2py\\\\applications\\\\welcome\\\\']), 'db_sessions': set([]), 'web2py_version': '2.10.4-stable+timestamp.2015.04.26.15.11.54', 'cmd_args': []}>, 'raw_extension': None, '_body': <cStringIO.StringO object at 0x0A295DE0>, 'args': [], 'raw_args': '', 'controller': 'NovaManual', 'utcnow': datetime.datetime(2015, 8, 14, 16, 47, 5, 401000), 'url': '/site_two_alterado/NovaManual/autocomplet', 'now': datetime.datetime(2015, 8, 14, 13, 47, 5, 401000), 'is_local': True, 'wsgi': <gluon.main.LazyWSGI object at 0x0493B8B0>, 'is_shell': None, 'uuid': 'site_two_alterado/127.0.0.1.2015-08-14.13-47-05.6e613f0c-717f-4622-bfef-2a77bbc6f24b', 'extension': 'html', 'cid': None, '_post_vars': <Storage {}>, '_get_vars': <Storage {}>, 'ajax': False, 'is_https': False, 'is_sheduler': None, 'application': 'site_two_alterado', 'client': '127.0.0.1', 'is_restful': False, 'env': <Storage {'HTTP_REFERER': 'http://127.0.0.1:8000/site_two_alterado/NovaManual/autocomplet', 'SERVER_SOFTWARE': 'Rocket 1.2.6', 'SCRIPT_NAME': '', 'REQUEST_METHOD': 'GET', 'SERVER_PROTOCOL': 'HTTP/1.1', 'http_cache_control': 'max-age=0', 'web2py_path': 'C:\\\\Users\\\\TecSUS-3\\\\Desktop\\\\template_site\\\\web2py', 'wsgi_url_scheme': 'http', 'server_name': 'TecSUS-3-PC', 'wsgi_multiprocess': False, 'applications_parent': 'C:\\\\Users\\\\TecSUS-3\\\\Desktop\\\\template_site\\\\web2py', 'cmd_options': <Values at 0x38a7cb0: {'verbose': False, 'ip': '127.0.0.1', 'debuglevel': 30, 'with_scheduler': False, 'ips': ['192.241.173.135'], 'shutdown_timeout': 5, 'taskbar': False, 'with_coverage': False, 'scheduler_groups': None, 'port': 8000, 'maxthreads': None, 'softcron': False, 'server_name': 'TecSUS-3-PC', 'bpython': False, 'nogui': False, 'pid_filename': 'httpserver.pid', 'print_errors': False, 'extcron': False, 'runcron': False, 'run_system_tests': False, 'test': None, 'folder': 'C:\\\\Users\\\\TecSUS-3\\\\Desktop\\\\template_site\\\\web2py', 'config': '', 'minthreads': None, 'shell': None, 'run': '', 'log_filename': 'httpserver.log', 'profiler_dir': None, 'args': [''], 'socket_timeout': 5, 'ssl_ca_certificate': None, 'scheduler': None, 'interfaces': None, 'ssl_private_key': '', 'gae': None, 'password': '<ask>', 'request_queue_size': 5, 'ssl_certificate': '', 'cronjob': False, 'numthreads': None, 'quiet': False, 'import_models': False, 'timeout': 10, 'plain': False, 'nobanner': False}>, 'wsgi_errors': <open file '<stderr>', mode 'w' at 0x0049D0D0>, 'request_method': 'GET', 'remote_addr': '127.0.0.1', 'SERVER_PORT': '8000', 'http_upgrade_insecure_requests': '1', 'wsgi_multithread': True, 'web2py_version': '2.10.4-stable+timestamp.2015.04.26.15.11.54', 'HTTP_HOST': '127.0.0.1:8000', 'script_name': '', 'http_accept_encoding': 'gzip, deflate, sdch', 'HTTP_UPGRADE_INSECURE_REQUESTS': '1', 'HTTP_CACHE_CONTROL': 'max-age=0', 'request_uri': '/site_two_alterado/NovaManual/autocomplet', 'HTTP_ACCEPT': 'text/html,application/xhtml+xml,application/xml;q=0.9,image/webp,*/*;q=0.8', 'wsgi.version': (1, 0), 'local_hosts': ['192.241.173.135', 'fe80::487:2eff:2cf4:8cd6%11', 'TecSUS-3-PC', 'TecSUS-3-PC.tecsus.com.br', '::ffff:127.0.0.1', '::1', '192.168.0.2', 'fe80::5efe:192.168.0.2%12', '127.0.0.1'], 'wsgi.run_once': False, 'wsgi.errors': <open file '<stderr>', mode 'w' at 0x0049D0D0>, 'wsgi.multiprocess': False, 'HTTP_ACCEPT_LANGUAGE': 'pt-BR,pt;q=0.8,en-US;q=0.6,en;q=0.4', 'wsgi_input': <socket._fileobject object at 0x0A7BF370>, 'app_folders': set(['C:\\\\Users\\\\TecSUS-3\\\\Desktop\\\\template_site\\\\web2py\\\\applications\\\\admin\\\\', 'C:\\\\Users\\\\TecSUS-3\\\\Desktop\\\\template_site\\\\web2py\\\\applications\\\\site_two_alterado\\\\', 'C:\\\\Users\\\\TecSUS-3\\\\Desktop\\\\template_site\\\\web2py\\\\applications\\\\welcome\\\\']), 'http_connection': 'keep-alive', 'debugging': False, 'http_user_agent': 'Mozilla/5.0 (Windows NT 6.1; WOW64) AppleWebKit/537.36 (KHTML, like Gecko) Chrome/44.0.2403.155 Safari/537.36', 'HTTP_COOKIE': 'session_id_welcome=127.0.0.1-57b89239-e551-49dc-9530-68f9cfce13af; session_id_site_two_alterado=127.0.0.1-ec5b716f-e038-4389-a095-f3dc26f5c95a; session_id_admin=127.0.0.1-ae24fa66-5f07-4df3-9335-1a5ebeb275df', 'PATH_INFO': '/site_two_alterado/NovaManual/autocomplet', 'server_protocol': 'HTTP/1.1', 'QUERY_STRING': '', 'cmd_args': [], 'http_accept': 'text/html,application/xhtml+xml,application/xml;q=0.9,image/webp,*/*;q=0.8', 'HTTP_USER_AGENT': 'Mozilla/5.0 (Windows NT 6.1; WOW64) AppleWebKit/537.36 (KHTML, like Gecko) Chrome/44.0.2403.155 Safari/537.36', 'HTTP_CONNECTION': 'keep-alive', 'SERVER_NAME': 'TecSUS-3-PC', 'REMOTE_ADDR': '127.0.0.1', 'is_jython': False, 'http_accept_language': 'pt-BR,pt;q=0.8,en-US;q=0.6,en;q=0.4', 'wsgi_version': (1, 0), 'wsgi.url_scheme': 'http', 'is_source': True, 'server_port': '8000', 'remote_port': '51080', 'http_cookie': 'session_id_welcome=127.0.0.1-57b89239-e551-49dc-9530-68f9cfce13af; session_id_site_two_alterado=127.0.0.1-ec5b716f-e038-4389-a095-f3dc26f5c95a; session_id_admin=127.0.0.1-ae24fa66-5f07-4df3-9335-1a5ebeb275df', 'gluon_parent': 'C:\\\\Users\\\\TecSUS-3\\\\Desktop\\\\template_site\\\\web2py', 'server_software': 'Rocket 1.2.6', 'wsgi_file_wrapper': <class wsgiref.util.FileWrapper at 0x03842F10>, 'wsgi.input': <socket._fileobject object at 0x0A7BF370>, 'http_host': '127.0.0.1:8000', 'path_info': '/site_two_alterado/NovaManual/autocomplet', 'wsgi.multithread': True, 'http_referer': 'http://127.0.0.1:8000/site_two_alterado/NovaManual/autocomplet', 'is_pypy': False, 'REMOTE_PORT': '51080', 'db_sessions': set([]), 'query_string': '', 'wsgi_run_once': False, 'wsgi.file_wrapper': <class wsgiref.util.FileWrapper at 0x03842F10>, 'HTTP_ACCEPT_ENCODING': 'gzip, deflate, sdch'}>, 'folder': 'C:\\\\Users\\\\TecSUS-3\\\\Desktop\\\\template_site\\\\web2py\\\\applications\\\\site_two_alterado\\\\'}>"
p67
sS'request'
p68
cgluon.html
XML_unpickle
p69
(S's\xd4a\x00\x00<div><table><tr><td style="font-weight:bold;vertical-align:top;">ajax</td><td style="vertical-align:top;">:</td><td><div>False</div></td></tr><tr><td style="font-weight:bold;vertical-align:top;">application</td><td style="vertical-align:top;">:</td><td><div>site_two_alterado</div></td></tr><tr><td style="font-weight:bold;vertical-align:top;">args</td><td style="vertical-align:top;">:</td><td><div><table></table></div></td></tr><tr><td style="font-weight:bold;vertical-align:top;">cid</td><td style="vertical-align:top;">:</td><td><div>None</div></td></tr><tr><td style="font-weight:bold;vertical-align:top;">client</td><td style="vertical-align:top;">:</td><td><div>127.0.0.1</div></td></tr><tr><td style="font-weight:bold;vertical-align:top;">controller</td><td style="vertical-align:top;">:</td><td><div>NovaManual</div></td></tr><tr><td style="font-weight:bold;vertical-align:top;">cookies</td><td style="vertical-align:top;">:</td><td><div><table><tr><td style="font-weight:bold;vertical-align:top;">session_id_admin</td><td style="vertical-align:top;">:</td><td><div>127.0.0.1-ae24fa66-5f07-4df3-9335-1a5ebeb275df<table><tr><td style="font-weight:bold;vertical-align:top;">comment</td><td style="vertical-align:top;">:</td><td><div></div></td></tr><tr><td style="font-weight:bold;vertical-align:top;">domain</td><td style="vertical-align:top;">:</td><td><div></div></td></tr><tr><td style="font-weight:bold;vertical-align:top;">expires</td><td style="vertical-align:top;">:</td><td><div></div></td></tr><tr><td style="font-weight:bold;vertical-align:top;">httponly</td><td style="vertical-align:top;">:</td><td><div></div></td></tr><tr><td style="font-weight:bold;vertical-align:top;">max-age</td><td style="vertical-align:top;">:</td><td><div></div></td></tr><tr><td style="font-weight:bold;vertical-align:top;">path</td><td style="vertical-align:top;">:</td><td><div></div></td></tr><tr><td style="font-weight:bold;vertical-align:top;">secure</td><td style="vertical-align:top;">:</td><td><div></div></td></tr><tr><td style="font-weight:bold;vertical-align:top;">version</td><td style="vertical-align:top;">:</td><td><div></div></td></tr></table></div></td></tr><tr><td style="font-weight:bold;vertical-align:top;">session_id_site_two_alterado</td><td style="vertical-align:top;">:</td><td><div>127.0.0.1-ec5b716f-e038-4389-a095-f3dc26f5c95a<table><tr><td style="font-weight:bold;vertical-align:top;">comment</td><td style="vertical-align:top;">:</td><td><div></div></td></tr><tr><td style="font-weight:bold;vertical-align:top;">domain</td><td style="vertical-align:top;">:</td><td><div></div></td></tr><tr><td style="font-weight:bold;vertical-align:top;">expires</td><td style="vertical-align:top;">:</td><td><div></div></td></tr><tr><td style="font-weight:bold;vertical-align:top;">httponly</td><td style="vertical-align:top;">:</td><td><div></div></td></tr><tr><td style="font-weight:bold;vertical-align:top;">max-age</td><td style="vertical-align:top;">:</td><td><div></div></td></tr><tr><td style="font-weight:bold;vertical-align:top;">path</td><td style="vertical-align:top;">:</td><td><div></div></td></tr><tr><td style="font-weight:bold;vertical-align:top;">secure</td><td style="vertical-align:top;">:</td><td><div></div></td></tr><tr><td style="font-weight:bold;vertical-align:top;">version</td><td style="vertical-align:top;">:</td><td><div></div></td></tr></table></div></td></tr><tr><td style="font-weight:bold;vertical-align:top;">session_id_welcome</td><td style="vertical-align:top;">:</td><td><div>127.0.0.1-57b89239-e551-49dc-9530-68f9cfce13af<table><tr><td style="font-weight:bold;vertical-align:top;">comment</td><td style="vertical-align:top;">:</td><td><div></div></td></tr><tr><td style="font-weight:bold;vertical-align:top;">domain</td><td style="vertical-align:top;">:</td><td><div></div></td></tr><tr><td style="font-weight:bold;vertical-align:top;">expires</td><td style="vertical-align:top;">:</td><td><div></div></td></tr><tr><td style="font-weight:bold;vertical-align:top;">httponly</td><td style="vertical-align:top;">:</td><td><div></div></td></tr><tr><td style="font-weight:bold;vertical-align:top;">max-age</td><td style="vertical-align:top;">:</td><td><div></div></td></tr><tr><td style="font-weight:bold;vertical-align:top;">path</td><td style="vertical-align:top;">:</td><td><div></div></td></tr><tr><td style="font-weight:bold;vertical-align:top;">secure</td><td style="vertical-align:top;">:</td><td><div></div></td></tr><tr><td style="font-weight:bold;vertical-align:top;">version</td><td style="vertical-align:top;">:</td><td><div></div></td></tr></table></div></td></tr></table></div></td></tr><tr><td style="font-weight:bold;vertical-align:top;">env</td><td style="vertical-align:top;">:</td><td><div><table><tr><td style="font-weight:bold;vertical-align:top;">HTTP_ACCEPT</td><td style="vertical-align:top;">:</td><td><div>text/html,application/xhtml+xml,application/xml;q=0.9,image/webp,*/*;q=0.8</div></td></tr><tr><td style="font-weight:bold;vertical-align:top;">HTTP_ACCEPT_ENCODING</td><td style="vertical-align:top;">:</td><td><div>gzip, deflate, sdch</div></td></tr><tr><td style="font-weight:bold;vertical-align:top;">HTTP_ACCEPT_LANGUAGE</td><td style="vertical-align:top;">:</td><td><div>pt-BR,pt;q=0.8,en-US;q=0.6,en;q=0.4</div></td></tr><tr><td style="font-weight:bold;vertical-align:top;">HTTP_CACHE_CONTROL</td><td style="vertical-align:top;">:</td><td><div>max-age=0</div></td></tr><tr><td style="font-weight:bold;vertical-align:top;">HTTP_CONNECTION</td><td style="vertical-align:top;">:</td><td><div>keep-alive</div></td></tr><tr><td style="font-weight:bold;vertical-align:top;">HTTP_COOKIE</td><td style="vertical-align:top;">:</td><td><div>session_id_welcome=127.0.0.1-57b89239-e551-49dc-9530-68f9cfce13af; session_id_site_two_alterado=127.0.0.1-ec5b716f-e038-4389-a095-f3dc26f5c95a; session_id_admin=127.0.0.1-ae24fa66-5f07-4df3-9335-1a5ebeb275df</div></td></tr><tr><td style="font-weight:bold;vertical-align:top;">HTTP_HOST</td><td style="vertical-align:top;">:</td><td><div>127.0.0.1:8000</div></td></tr><tr><td style="font-weight:bold;vertical-align:top;">HTTP_REFERER</td><td style="vertical-align:top;">:</td><td><div>http://127.0.0.1:8000/site_two_alterado/NovaManual/autocomplet</div></td></tr><tr><td style="font-weight:bold;vertical-align:top;">HTTP_UPGRADE_INSECURE_REQUESTS</td><td style="vertical-align:top;">:</td><td><div>1</div></td></tr><tr><td style="font-weight:bold;vertical-align:top;">HTTP_USER_AGENT</td><td style="vertical-align:top;">:</td><td><div>Mozilla/5.0 (Windows NT 6.1; WOW64) AppleWebKit/537.36 (KHTML, like Gecko) Chrome/44.0.2403.155 Safari/537.36</div></td></tr><tr><td style="font-weight:bold;vertical-align:top;">PATH_INFO</td><td style="vertical-align:top;">:</td><td><div>/site_two_alterado/NovaManual/autocomplet</div></td></tr><tr><td style="font-weight:bold;vertical-align:top;">QUERY_STRING</td><td style="vertical-align:top;">:</td><td><div></div></td></tr><tr><td style="font-weight:bold;vertical-align:top;">REMOTE_ADDR</td><td style="vertical-align:top;">:</td><td><div>127.0.0.1</div></td></tr><tr><td style="font-weight:bold;vertical-align:top;">REMOTE_PORT</td><td style="vertical-align:top;">:</td><td><div>51080</div></td></tr><tr><td style="font-weight:bold;vertical-align:top;">REQUEST_METHOD</td><td style="vertical-align:top;">:</td><td><div>GET</div></td></tr><tr><td style="font-weight:bold;vertical-align:top;">SCRIPT_NAME</td><td style="vertical-align:top;">:</td><td><div></div></td></tr><tr><td style="font-weight:bold;vertical-align:top;">SERVER_NAME</td><td style="vertical-align:top;">:</td><td><div>TecSUS-3-PC</div></td></tr><tr><td style="font-weight:bold;vertical-align:top;">SERVER_PORT</td><td style="vertical-align:top;">:</td><td><div>8000</div></td></tr><tr><td style="font-weight:bold;vertical-align:top;">SERVER_PROTOCOL</td><td style="vertical-align:top;">:</td><td><div>HTTP/1.1</div></td></tr><tr><td style="font-weight:bold;vertical-align:top;">SERVER_SOFTWARE</td><td style="vertical-align:top;">:</td><td><div>Rocket 1.2.6</div></td></tr><tr><td style="font-weight:bold;vertical-align:top;">app_folders</td><td style="vertical-align:top;">:</td><td><div>set([&#x27;C:\\\\Users\\\\TecSUS-3\\\\Desktop\\\\template_site\\\\web2py\\\\applications\\\\admin\\\\&#x27;, &#x27;C:\\\\Users\\\\TecSUS-3\\\\Desktop\\\\template_site\\\\web2py\\\\applications\\\\site_two_alterado\\\\&#x27;, &#x27;C:\\\\Users\\\\TecSUS-3\\\\Desktop\\\\template_site\\\\web2py\\\\applications\\\\welcome\\\\&#x27;])</div></td></tr><tr><td style="font-weight:bold;vertical-align:top;">applications_parent</td><td style="vertical-align:top;">:</td><td><div>C:\\Users\\TecSUS-3\\Desktop\\template_site\\web2py</div></td></tr><tr><td style="font-weight:bold;vertical-align:top;">cmd_args</td><td style="vertical-align:top;">:</td><td><div><table></table></div></td></tr><tr><td style="font-weight:bold;vertical-align:top;">cmd_options</td><td style="vertical-align:top;">:</td><td><div>&lt;Values at 0x38a7cb0: {&#x27;verbose&#x27;: False, &#x27;ip&#x27;: &#x27;127.0.0.1&#x27;, &#x27;debuglevel&#x27;: 30, &#x27;with_scheduler&#x27;: False, &#x27;ips&#x27;: [&#x27;192.241.173.135&#x27;], &#x27;shutdown_timeout&#x27;: 5, &#x27;taskbar&#x27;: False, &#x27;with_coverage&#x27;: False, &#x27;scheduler_groups&#x27;: None, &#x27;port&#x27;: 8000, &#x27;maxthreads&#x27;: None, &#x27;softcron&#x27;: False, &#x27;server_name&#x27;: &#x27;TecSUS-3-PC&#x27;, &#x27;bpython&#x27;: False, &#x27;nogui&#x27;: False, &#x27;pid_filename&#x27;: &#x27;httpserver.pid&#x27;, &#x27;print_errors&#x27;: False, &#x27;extcron&#x27;: False, &#x27;runcron&#x27;: False, &#x27;run_system_tests&#x27;: False, &#x27;test&#x27;: None, &#x27;folder&#x27;: &#x27;C:\\\\Users\\\\TecSUS-3\\\\Desktop\\\\template_site\\\\web2py&#x27;, &#x27;config&#x27;: &#x27;&#x27;, &#x27;minthreads&#x27;: None, &#x27;shell&#x27;: None, &#x27;run&#x27;: &#x27;&#x27;, &#x27;log_filename&#x27;: &#x27;httpserver.log&#x27;, &#x27;profiler_dir&#x27;: None, &#x27;args&#x27;: [&#x27;&#x27;], &#x27;socket_timeout&#x27;: 5, &#x27;ssl_ca_certificate&#x27;: None, &#x27;scheduler&#x27;: None, &#x27;interfaces&#x27;: None, &#x27;ssl_private_key&#x27;: &#x27;&#x27;, &#x27;gae&#x27;: None, &#x27;password&#x27;: &#x27;&lt;ask&gt;&#x27;, &#x27;request_queue_size&#x27;: 5, &#x27;ssl_certificate&#x27;: &#x27;&#x27;, &#x27;cronjob&#x27;: False, &#x27;numthreads&#x27;: None, &#x27;quiet&#x27;: False, &#x27;import_models&#x27;: False, &#x27;timeout&#x27;: 10, &#x27;plain&#x27;: False, &#x27;nobanner&#x27;: False}&gt;</div></td></tr><tr><td style="font-weight:bold;vertical-align:top;">db_sessions</td><td style="vertical-align:top;">:</td><td><div>set([])</div></td></tr><tr><td style="font-weight:bold;vertical-align:top;">debugging</td><td style="vertical-align:top;">:</td><td><div>False</div></td></tr><tr><td style="font-weight:bold;vertical-align:top;">gluon_parent</td><td style="vertical-align:top;">:</td><td><div>C:\\Users\\TecSUS-3\\Desktop\\template_site\\web2py</div></td></tr><tr><td style="font-weight:bold;vertical-align:top;">http_accept</td><td style="vertical-align:top;">:</td><td><div>text/html,application/xhtml+xml,application/xml;q=0.9,image/webp,*/*;q=0.8</div></td></tr><tr><td style="font-weight:bold;vertical-align:top;">http_accept_encoding</td><td style="vertical-align:top;">:</td><td><div>gzip, deflate, sdch</div></td></tr><tr><td style="font-weight:bold;vertical-align:top;">http_accept_language</td><td style="vertical-align:top;">:</td><td><div>pt-BR,pt;q=0.8,en-US;q=0.6,en;q=0.4</div></td></tr><tr><td style="font-weight:bold;vertical-align:top;">http_cache_control</td><td style="vertical-align:top;">:</td><td><div>max-age=0</div></td></tr><tr><td style="font-weight:bold;vertical-align:top;">http_connection</td><td style="vertical-align:top;">:</td><td><div>keep-alive</div></td></tr><tr><td style="font-weight:bold;vertical-align:top;">http_cookie</td><td style="vertical-align:top;">:</td><td><div>session_id_welcome=127.0.0.1-57b89239-e551-49dc-9530-68f9cfce13af; session_id_site_two_alterado=127.0.0.1-ec5b716f-e038-4389-a095-f3dc26f5c95a; session_id_admin=127.0.0.1-ae24fa66-5f07-4df3-9335-1a5ebeb275df</div></td></tr><tr><td style="font-weight:bold;vertical-align:top;">http_host</td><td style="vertical-align:top;">:</td><td><div>127.0.0.1:8000</div></td></tr><tr><td style="font-weight:bold;vertical-align:top;">http_referer</td><td style="vertical-align:top;">:</td><td><div>http://127.0.0.1:8000/site_two_alterado/NovaManual/autocomplet</div></td></tr><tr><td style="font-weight:bold;vertical-align:top;">http_upgrade_insecure_requests</td><td style="vertical-align:top;">:</td><td><div>1</div></td></tr><tr><td style="font-weight:bold;vertical-align:top;">http_user_agent</td><td style="vertical-align:top;">:</td><td><div>Mozilla/5.0 (Windows NT 6.1; WOW64) AppleWebKit/537.36 (KHTML, like Gecko) Chrome/44.0.2403.155 Safari/537.36</div></td></tr><tr><td style="font-weight:bold;vertical-align:top;">is_jython</td><td style="vertical-align:top;">:</td><td><div>False</div></td></tr><tr><td style="font-weight:bold;vertical-align:top;">is_pypy</td><td style="vertical-align:top;">:</td><td><div>False</div></td></tr><tr><td style="font-weight:bold;vertical-align:top;">is_source</td><td style="vertical-align:top;">:</td><td><div>True</div></td></tr><tr><td style="font-weight:bold;vertical-align:top;">local_hosts</td><td style="vertical-align:top;">:</td><td><div><table><tr><td><div>192.241.173.135</div></td></tr><tr><td><div>fe80::487:2eff:2cf4:8cd6%11</div></td></tr><tr><td><div>TecSUS-3-PC</div></td></tr><tr><td><div>TecSUS-3-PC.tecsus.com.br</div></td></tr><tr><td><div>::ffff:127.0.0.1</div></td></tr><tr><td><div>::1</div></td></tr><tr><td><div>192.168.0.2</div></td></tr><tr><td><div>fe80::5efe:192.168.0.2%12</div></td></tr><tr><td><div>127.0.0.1</div></td></tr></table></div></td></tr><tr><td style="font-weight:bold;vertical-align:top;">path_info</td><td style="vertical-align:top;">:</td><td><div>/site_two_alterado/NovaManual/autocomplet</div></td></tr><tr><td style="font-weight:bold;vertical-align:top;">query_string</td><td style="vertical-align:top;">:</td><td><div></div></td></tr><tr><td style="font-weight:bold;vertical-align:top;">remote_addr</td><td style="vertical-align:top;">:</td><td><div>127.0.0.1</div></td></tr><tr><td style="font-weight:bold;vertical-align:top;">remote_port</td><td style="vertical-align:top;">:</td><td><div>51080</div></td></tr><tr><td style="font-weight:bold;vertical-align:top;">request_method</td><td style="vertical-align:top;">:</td><td><div>GET</div></td></tr><tr><td style="font-weight:bold;vertical-align:top;">request_uri</td><td style="vertical-align:top;">:</td><td><div>/site_two_alterado/NovaManual/autocomplet</div></td></tr><tr><td style="font-weight:bold;vertical-align:top;">script_name</td><td style="vertical-align:top;">:</td><td><div></div></td></tr><tr><td style="font-weight:bold;vertical-align:top;">server_name</td><td style="vertical-align:top;">:</td><td><div>TecSUS-3-PC</div></td></tr><tr><td style="font-weight:bold;vertical-align:top;">server_port</td><td style="vertical-align:top;">:</td><td><div>8000</div></td></tr><tr><td style="font-weight:bold;vertical-align:top;">server_protocol</td><td style="vertical-align:top;">:</td><td><div>HTTP/1.1</div></td></tr><tr><td style="font-weight:bold;vertical-align:top;">server_software</td><td style="vertical-align:top;">:</td><td><div>Rocket 1.2.6</div></td></tr><tr><td style="font-weight:bold;vertical-align:top;">web2py_path</td><td style="vertical-align:top;">:</td><td><div>C:\\Users\\TecSUS-3\\Desktop\\template_site\\web2py</div></td></tr><tr><td style="font-weight:bold;vertical-align:top;">web2py_version</td><td style="vertical-align:top;">:</td><td><div>2.10.4-stable+timestamp.2015.04.26.15.11.54</div></td></tr><tr><td style="font-weight:bold;vertical-align:top;">wsgi.errors</td><td style="vertical-align:top;">:</td><td><div>&lt;open file &#x27;&lt;stderr&gt;&#x27;, mode &#x27;w&#x27; at 0x0049D0D0&gt;</div></td></tr><tr><td style="font-weight:bold;vertical-align:top;">wsgi.file_wrapper</td><td style="vertical-align:top;">:</td><td><div>&lt;class wsgiref.util.FileWrapper at 0x03842F10&gt;</div></td></tr><tr><td style="font-weight:bold;vertical-align:top;">wsgi.input</td><td style="vertical-align:top;">:</td><td><div>&lt;socket._fileobject object at 0x0A7BF370&gt;</div></td></tr><tr><td style="font-weight:bold;vertical-align:top;">wsgi.multiprocess</td><td style="vertical-align:top;">:</td><td><div>False</div></td></tr><tr><td style="font-weight:bold;vertical-align:top;">wsgi.multithread</td><td style="vertical-align:top;">:</td><td><div>True</div></td></tr><tr><td style="font-weight:bold;vertical-align:top;">wsgi.run_once</td><td style="vertical-align:top;">:</td><td><div>False</div></td></tr><tr><td style="font-weight:bold;vertical-align:top;">wsgi.url_scheme</td><td style="vertical-align:top;">:</td><td><div>http</div></td></tr><tr><td style="font-weight:bold;vertical-align:top;">wsgi.version</td><td style="vertical-align:top;">:</td><td><div><table><tr><td><div>1</div></td></tr><tr><td><div>0</div></td></tr></table></div></td></tr><tr><td style="font-weight:bold;vertical-align:top;">wsgi_errors</td><td style="vertical-align:top;">:</td><td><div>&lt;open file &#x27;&lt;stderr&gt;&#x27;, mode &#x27;w&#x27; at 0x0049D0D0&gt;</div></td></tr><tr><td style="font-weight:bold;vertical-align:top;">wsgi_file_wrapper</td><td style="vertical-align:top;">:</td><td><div>&lt;class wsgiref.util.FileWrapper at 0x03842F10&gt;</div></td></tr><tr><td style="font-weight:bold;vertical-align:top;">wsgi_input</td><td style="vertical-align:top;">:</td><td><div>&lt;socket._fileobject object at 0x0A7BF370&gt;</div></td></tr><tr><td style="font-weight:bold;vertical-align:top;">wsgi_multiprocess</td><td style="vertical-align:top;">:</td><td><div>False</div></td></tr><tr><td style="font-weight:bold;vertical-align:top;">wsgi_multithread</td><td style="vertical-align:top;">:</td><td><div>True</div></td></tr><tr><td style="font-weight:bold;vertical-align:top;">wsgi_run_once</td><td style="vertical-align:top;">:</td><td><div>False</div></td></tr><tr><td style="font-weight:bold;vertical-align:top;">wsgi_url_scheme</td><td style="vertical-align:top;">:</td><td><div>http</div></td></tr><tr><td style="font-weight:bold;vertical-align:top;">wsgi_version</td><td style="vertical-align:top;">:</td><td><div><table><tr><td><div>1</div></td></tr><tr><td><div>0</div></td></tr></table></div></td></tr></table></div></td></tr><tr><td style="font-weight:bold;vertical-align:top;">extension</td><td style="vertical-align:top;">:</td><td><div>html</div></td></tr><tr><td style="font-weight:bold;vertical-align:top;">folder</td><td style="vertical-align:top;">:</td><td><div>C:\\Users\\TecSUS-3\\Desktop\\template_site\\web2py\\applications\\site_two_alterado\\</div></td></tr><tr><td style="font-weight:bold;vertical-align:top;">function</td><td style="vertical-align:top;">:</td><td><div>autocomplet</div></td></tr><tr><td style="font-weight:bold;vertical-align:top;">global_settings</td><td style="vertical-align:top;">:</td><td><div><table><tr><td style="font-weight:bold;vertical-align:top;">app_folders</td><td style="vertical-align:top;">:</td><td><div>set([&#x27;C:\\\\Users\\\\TecSUS-3\\\\Desktop\\\\template_site\\\\web2py\\\\applications\\\\admin\\\\&#x27;, &#x27;C:\\\\Users\\\\TecSUS-3\\\\Desktop\\\\template_site\\\\web2py\\\\applications\\\\site_two_alterado\\\\&#x27;, &#x27;C:\\\\Users\\\\TecSUS-3\\\\Desktop\\\\template_site\\\\web2py\\\\applications\\\\welcome\\\\&#x27;])</div></td></tr><tr><td style="font-weight:bold;vertical-align:top;">applications_parent</td><td style="vertical-align:top;">:</td><td><div>C:\\Users\\TecSUS-3\\Desktop\\template_site\\web2py</div></td></tr><tr><td style="font-weight:bold;vertical-align:top;">cmd_args</td><td style="vertical-align:top;">:</td><td><div><table></table></div></td></tr><tr><td style="font-weight:bold;vertical-align:top;">cmd_options</td><td style="vertical-align:top;">:</td><td><div>&lt;Values at 0x38a7cb0: {&#x27;verbose&#x27;: False, &#x27;ip&#x27;: &#x27;127.0.0.1&#x27;, &#x27;debuglevel&#x27;: 30, &#x27;with_scheduler&#x27;: False, &#x27;ips&#x27;: [&#x27;192.241.173.135&#x27;], &#x27;shutdown_timeout&#x27;: 5, &#x27;taskbar&#x27;: False, &#x27;with_coverage&#x27;: False, &#x27;scheduler_groups&#x27;: None, &#x27;port&#x27;: 8000, &#x27;maxthreads&#x27;: None, &#x27;softcron&#x27;: False, &#x27;server_name&#x27;: &#x27;TecSUS-3-PC&#x27;, &#x27;bpython&#x27;: False, &#x27;nogui&#x27;: False, &#x27;pid_filename&#x27;: &#x27;httpserver.pid&#x27;, &#x27;print_errors&#x27;: False, &#x27;extcron&#x27;: False, &#x27;runcron&#x27;: False, &#x27;run_system_tests&#x27;: False, &#x27;test&#x27;: None, &#x27;folder&#x27;: &#x27;C:\\\\Users\\\\TecSUS-3\\\\Desktop\\\\template_site\\\\web2py&#x27;, &#x27;config&#x27;: &#x27;&#x27;, &#x27;minthreads&#x27;: None, &#x27;shell&#x27;: None, &#x27;run&#x27;: &#x27;&#x27;, &#x27;log_filename&#x27;: &#x27;httpserver.log&#x27;, &#x27;profiler_dir&#x27;: None, &#x27;args&#x27;: [&#x27;&#x27;], &#x27;socket_timeout&#x27;: 5, &#x27;ssl_ca_certificate&#x27;: None, &#x27;scheduler&#x27;: None, &#x27;interfaces&#x27;: None, &#x27;ssl_private_key&#x27;: &#x27;&#x27;, &#x27;gae&#x27;: None, &#x27;password&#x27;: &#x27;&lt;ask&gt;&#x27;, &#x27;request_queue_size&#x27;: 5, &#x27;ssl_certificate&#x27;: &#x27;&#x27;, &#x27;cronjob&#x27;: False, &#x27;numthreads&#x27;: None, &#x27;quiet&#x27;: False, &#x27;import_models&#x27;: False, &#x27;timeout&#x27;: 10, &#x27;plain&#x27;: False, &#x27;nobanner&#x27;: False}&gt;</div></td></tr><tr><td style="font-weight:bold;vertical-align:top;">db_sessions</td><td style="vertical-align:top;">:</td><td><div>set([])</div></td></tr><tr><td style="font-weight:bold;vertical-align:top;">debugging</td><td style="vertical-align:top;">:</td><td><div>False</div></td></tr><tr><td style="font-weight:bold;vertical-align:top;">gluon_parent</td><td style="vertical-align:top;">:</td><td><div>C:\\Users\\TecSUS-3\\Desktop\\template_site\\web2py</div></td></tr><tr><td style="font-weight:bold;vertical-align:top;">is_jython</td><td style="vertical-align:top;">:</td><td><div>False</div></td></tr><tr><td style="font-weight:bold;vertical-align:top;">is_pypy</td><td style="vertical-align:top;">:</td><td><div>False</div></td></tr><tr><td style="font-weight:bold;vertical-align:top;">is_source</td><td style="vertical-align:top;">:</td><td><div>True</div></td></tr><tr><td style="font-weight:bold;vertical-align:top;">local_hosts</td><td style="vertical-align:top;">:</td><td><div><table><tr><td><div>192.241.173.135</div></td></tr><tr><td><div>fe80::487:2eff:2cf4:8cd6%11</div></td></tr><tr><td><div>TecSUS-3-PC</div></td></tr><tr><td><div>TecSUS-3-PC.tecsus.com.br</div></td></tr><tr><td><div>::ffff:127.0.0.1</div></td></tr><tr><td><div>::1</div></td></tr><tr><td><div>192.168.0.2</div></td></tr><tr><td><div>fe80::5efe:192.168.0.2%12</div></td></tr><tr><td><div>127.0.0.1</div></td></tr></table></div></td></tr><tr><td style="font-weight:bold;vertical-align:top;">web2py_version</td><td style="vertical-align:top;">:</td><td><div>2.10.4-stable+timestamp.2015.04.26.15.11.54</div></td></tr></table></div></td></tr><tr><td style="font-weight:bold;vertical-align:top;">is_https</td><td style="vertical-align:top;">:</td><td><div>False</div></td></tr><tr><td style="font-weight:bold;vertical-align:top;">is_local</td><td style="vertical-align:top;">:</td><td><div>True</div></td></tr><tr><td style="font-weight:bold;vertical-align:top;">is_restful</td><td style="vertical-align:top;">:</td><td><div>False</div></td></tr><tr><td style="font-weight:bold;vertical-align:top;">is_sheduler</td><td style="vertical-align:top;">:</td><td><div>None</div></td></tr><tr><td style="font-weight:bold;vertical-align:top;">is_shell</td><td style="vertical-align:top;">:</td><td><div>None</div></td></tr><tr><td style="font-weight:bold;vertical-align:top;">now</td><td style="vertical-align:top;">:</td><td><div>datetime.datetime(2015, 8, 14, 13, 47, 5, 401000)</div></td></tr><tr><td style="font-weight:bold;vertical-align:top;">raw_args</td><td style="vertical-align:top;">:</td><td><div></div></td></tr><tr><td style="font-weight:bold;vertical-align:top;">raw_extension</td><td style="vertical-align:top;">:</td><td><div>None</div></td></tr><tr><td style="font-weight:bold;vertical-align:top;">url</td><td style="vertical-align:top;">:</td><td><div>/site_two_alterado/NovaManual/autocomplet</div></td></tr><tr><td style="font-weight:bold;vertical-align:top;">utcnow</td><td style="vertical-align:top;">:</td><td><div>datetime.datetime(2015, 8, 14, 16, 47, 5, 401000)</div></td></tr><tr><td style="font-weight:bold;vertical-align:top;">uuid</td><td style="vertical-align:top;">:</td><td><div>site_two_alterado/127.0.0.1.2015-08-14.13-47-05.6e613f0c-717f-4622-bfef-2a77bbc6f24b</div></td></tr><tr><td style="font-weight:bold;vertical-align:top;">wsgi</td><td style="vertical-align:top;">:</td><td><div>&lt;gluon.main.LazyWSGI object at 0x0493B8B0&gt;</div></td></tr></table></div>'
tRp70
sS'frames'
p71
(lp72
(dp73
S'file'
p74
S'C:\\Users\\TecSUS-3\\Desktop\\template_site\\web2py\\gluon\\restricted.py'
p75
sS'dump'
p76
(dp77
S'environment'
p78
S"{'A': <class 'gluon.html.A'>, 'ANY_OF': <class 'gluon.validators.ANY_OF'>, 'ASSIGNJS': <function ASSIGNJS>, 'AppConfig': <function AppConfig>, 'Auth': <class 'gluon.tools.Auth'>, 'B': <class 'gluon.html.B'>, 'BEAUTIFY': <class 'gluon.html.BEAUTIFY'>, 'BODY': <class 'gluon.html.BODY'>, 'BR': <class 'gluon.html.BR'>, 'BUTTON': <class 'gluon.html.BUTTON'>, ...}"
p79
sS'ccode'
p80
S'<code object <module> at 0A788848, file "C:\\User...cations\\site_two_alterado\\models\\db.py", line 13>'
p81
ssS'lnum'
p82
I227
sS'lines'
p83
(dp84
I224
S'            ccode = code'
p85
sI225
S'        else:'
p86
sI226
S'            ccode = compile2(code, layer)'
p87
sI227
S'        exec ccode in environment'
p88
sI228
S'    except HTTP:'
p89
sI229
S'        raise'
p90
sI230
S'    except RestrictedError:'
p91
sI231
S'        # do not encapsulate (obfuscate) the original RestrictedError'
p92
sI222
S'    try:'
p93
sI223
S'        if isinstance(code, types.CodeType):'
p94
ssS'call'
p95
S"(code='# -*- coding: utf-8 -*-\\n\\n#######################..., db.category.name, limitby=(0,10), min_length=2)', environment={'A': <class 'gluon.html.A'>, 'ANY_OF': <class 'gluon.validators.ANY_OF'>, 'ASSIGNJS': <function ASSIGNJS>, 'AppConfig': <function AppConfig>, 'Auth': <class 'gluon.tools.Auth'>, 'B': <class 'gluon.html.B'>, 'BEAUTIFY': <class 'gluon.html.BEAUTIFY'>, 'BODY': <class 'gluon.html.BODY'>, 'BR': <class 'gluon.html.BR'>, 'BUTTON': <class 'gluon.html.BUTTON'>, ...}, layer=r'C:\\Users\\TecSUS-3\\Desktop\\template_site\\web2py\\applications\\site_two_alterado\\models\\db.py')"
p96
sS'func'
p97
S'restricted'
p98
sa(dp99
g74
S'C:\\Users\\TecSUS-3\\Desktop\\template_site\\web2py\\applications\\site_two_alterado\\models\\db.py'
p100
sg76
(dp101
S'min_length'
p102
S'undefined'
p103
sS'db.category'
p104
S'<Table category (id,name)>'
p105
sS'request'
p106
S"<Storage {'_vars': <Storage {}>, 'function': 'au...ite\\\\web2py\\\\applications\\\\site_two_alterado\\\\'}>"
p107
sS'db'
p108
S'<DAL uri="sqlite://storage.sqlite">'
p109
sS'db.product2.category'
p110
S'<pydal.objects.Field object>'
p111
sS'SQLFORM.widgets.checkboxes'
p112
S"<class 'gluon.sqlhtml.CheckboxesWidget'>"
p113
sS'SQLFORM.widgets.checkboxes.widget'
p114
S"<bound method type.widget of <class 'gluon.sqlhtml.CheckboxesWidget'>>"
p115
sS'db.product2.category.widget'
p116
S'None'
p117
sS'limitby'
p118
g103
sS'SQLFORM'
p119
S"<class 'gluon.sqlhtml.SQLFORM'>"
p120
sS'db.product2'
p121
S'<Table product2 (id,name,category)>'
p122
sS'db.category.name'
p123
S'<pydal.objects.Field object>'
p124
sS'SQLFORM.widgets'
p125
S"<Storage {'multiple': <class 'gluon.sqlhtml.Mult...ss 'gluon.sqlhtml.OptionsWidget'>, 'blob': None}>"
p126
ssg82
I194
sg83
(dp127
I192
S"db.define_table('product2',Field('name'),Field('category'))"
p128
sI193
S'#db.product2.category.widget = SQLFORM.widgets.autocomplete(request, db.category.name, limitby=(0,10), min_length=2)'
p129
sI194
S'db.product2.category.widget = SQLFORM.widgets.checkboxes.widget(request, db.category.name, limitby=(0,10), min_length=2)'
p130
sI185
S''
sI186
S"db.define_table('address',"
p131
sI187
S"    Field('client','reference client',"
p132
sI188
S'          writable=False,readable=False),'
p133
sI189
S"    Field('street'),Field('city'))"
p134
sI190
S''
sI191
S"db.define_table('category',Field('name'))"
p135
ssg95
S'()'
p136
sg97
S'<module>'
p137
sa(dp138
g74
S'C:\\Users\\TecSUS-3\\Desktop\\template_site\\web2py\\gluon\\sqlhtml.py'
p139
sg76
(dp140
S'field'
p141
S"<Storage {'_vars': <Storage {}>, 'function': 'au...ite\\\\web2py\\\\applications\\\\site_two_alterado\\\\'}>"
p142
ssg82
I436
sg83
(dp143
I431
S'            requires = [requires]'
p144
sI432
S"        if requires and hasattr(requires[0], 'options'):"
p145
sI433
S'            options = requires[0].options()'
p146
sI434
S'        else:'
p147
sI435
S"            raise SyntaxError('widget cannot determine options of %s'"
p148
sI436
S'                              % field)'
p149
sI437
S''
sI438
S"        options = [(k, v) for k, v in options if k != '']"
p150
sI439
S'        opts = []'
p151
sI440
S"        cols = attributes.get('cols', 1)"
p152
ssg95
S"(cls=<class 'gluon.sqlhtml.CheckboxesWidget'>, field=<Storage {'_vars': <Storage {}>, 'function': 'au...ite\\\\web2py\\\\applications\\\\site_two_alterado\\\\'}>, value=<pydal.objects.Field object>, **attributes={'limitby': (0, 10), 'min_length': 2})"
p153
sg97
S'widget'
p154
sasS'pyver'
p155
S'Python 2.7.8: C:\\Python27\\python.exe (prefix: C:\\Python27)'
p156
sS'session'
p157
g69
(S's\xc0\x02\x00\x00<div><table><tr><td style="font-weight:bold;vertical-align:top;">counter</td><td style="vertical-align:top;">:</td><td><div>2</div></td></tr><tr><td style="font-weight:bold;vertical-align:top;">flash</td><td style="vertical-align:top;">:</td><td><div>None</div></td></tr><tr><td style="font-weight:bold;vertical-align:top;">flashed</td><td style="vertical-align:top;">:</td><td><div>True</div></td></tr><tr><td style="font-weight:bold;vertical-align:top;">last_orderby</td><td style="vertical-align:top;">:</td><td><div>None</div></td></tr><tr><td style="font-weight:bold;vertical-align:top;">last_query</td><td style="vertical-align:top;">:</td><td><div>db.product2.id&gt;0</div></td></tr></table></div>'
tRp158
sS'etype'
p159
S"<type 'exceptions.SyntaxError'>"
p160
sS'date'
p161
S'Fri Aug 14 13:47:05 2015'
p162
sS'response'
p163
g69
(S's\xdb\x1d\x00\x00<div><table><tr><td style="font-weight:bold;vertical-align:top;">MeuMenu</td><td style="vertical-align:top;">:</td><td><div><table><tr><td><div><table><tr><td><div>Principal</div></td></tr><tr><td><div>False</div></td></tr><tr><td><div>http://127.0.0.1:8000/site_two_alterado/Veiculo/Inicio</div></td></tr></table></div></td></tr><tr><td><div><table><tr><td><div>Cadastro de Comprador</div></td></tr><tr><td><div>False</div></td></tr><tr><td><div>http://127.0.0.1:8000/site_two_alterado/Veiculo/comprador</div></td></tr></table></div></td></tr><tr><td><div><table><tr><td><div>Cadastro de Carro</div></td></tr><tr><td><div>False</div></td></tr><tr><td><div>http://127.0.0.1:8000/site_two_alterado/Veiculo/carro</div></td></tr></table></div></td></tr><tr><td><div><table><tr><td><div>Cadastro de Vendedor</div></td></tr><tr><td><div>False</div></td></tr><tr><td><div>http://127.0.0.1:8000/site_two_alterado/Veiculo/vendedor</div></td></tr></table></div></td></tr><tr><td><div><table><tr><td><div>Cadastro de Marca</div></td></tr><tr><td><div>False</div></td></tr><tr><td><div>http://127.0.0.1:8000/site_two_alterado/Veiculo/marca</div></td></tr></table></div></td></tr><tr><td><div><table><tr><td><div>Admin</div></td></tr><tr><td><div>False</div></td></tr><tr><td><div>http://127.0.0.1:8000/site_two_alterado/Veiculo/admin</div></td></tr></table></div></td></tr></table></div></td></tr><tr><td style="font-weight:bold;vertical-align:top;">body</td><td style="vertical-align:top;">:</td><td><div>&lt;cStringIO.StringO object at 0x02A327C0&gt;</div></td></tr><tr><td style="font-weight:bold;vertical-align:top;">cookies</td><td style="vertical-align:top;">:</td><td><div><table><tr><td style="font-weight:bold;vertical-align:top;">session_id_site_two_alterado</td><td style="vertical-align:top;">:</td><td><div>127.0.0.1-ec5b716f-e038-4389-a095-f3dc26f5c95a<table><tr><td style="font-weight:bold;vertical-align:top;">comment</td><td style="vertical-align:top;">:</td><td><div></div></td></tr><tr><td style="font-weight:bold;vertical-align:top;">domain</td><td style="vertical-align:top;">:</td><td><div></div></td></tr><tr><td style="font-weight:bold;vertical-align:top;">expires</td><td style="vertical-align:top;">:</td><td><div></div></td></tr><tr><td style="font-weight:bold;vertical-align:top;">httponly</td><td style="vertical-align:top;">:</td><td><div></div></td></tr><tr><td style="font-weight:bold;vertical-align:top;">max-age</td><td style="vertical-align:top;">:</td><td><div></div></td></tr><tr><td style="font-weight:bold;vertical-align:top;">path</td><td style="vertical-align:top;">:</td><td><div>/</div></td></tr><tr><td style="font-weight:bold;vertical-align:top;">secure</td><td style="vertical-align:top;">:</td><td><div></div></td></tr><tr><td style="font-weight:bold;vertical-align:top;">version</td><td style="vertical-align:top;">:</td><td><div></div></td></tr></table></div></td></tr></table></div></td></tr><tr><td style="font-weight:bold;vertical-align:top;">delimiters</td><td style="vertical-align:top;">:</td><td><div><table><tr><td><div>{{</div></td></tr><tr><td><div>}}</div></td></tr></table></div></td></tr><tr><td style="font-weight:bold;vertical-align:top;">files</td><td style="vertical-align:top;">:</td><td><div><table></table></div></td></tr><tr><td style="font-weight:bold;vertical-align:top;">flash</td><td style="vertical-align:top;">:</td><td><div></div></td></tr><tr><td style="font-weight:bold;vertical-align:top;">form_label_separator</td><td style="vertical-align:top;">:</td><td><div></div></td></tr><tr><td style="font-weight:bold;vertical-align:top;">formstyle</td><td style="vertical-align:top;">:</td><td><div>bootstrap3_inline</div></td></tr><tr><td style="font-weight:bold;vertical-align:top;">generic_patterns</td><td style="vertical-align:top;">:</td><td><div><table><tr><td><div>*</div></td></tr></table></div></td></tr><tr><td style="font-weight:bold;vertical-align:top;">headers</td><td style="vertical-align:top;">:</td><td><div><table><tr><td style="font-weight:bold;vertical-align:top;">X-Powered-By</td><td style="vertical-align:top;">:</td><td><div>web2py</div></td></tr></table></div></td></tr><tr><td style="font-weight:bold;vertical-align:top;">menu</td><td style="vertical-align:top;">:</td><td><div><table></table></div></td></tr><tr><td style="font-weight:bold;vertical-align:top;">meta</td><td style="vertical-align:top;">:</td><td><div><table></table></div></td></tr><tr><td style="font-weight:bold;vertical-align:top;">models_to_run</td><td style="vertical-align:top;">:</td><td><div><table><tr><td><div>^\\w+\\.py$</div></td></tr><tr><td><div>^NovaManual/\\w+\\.py$</div></td></tr><tr><td><div>^NovaManual/autocomplet/\\w+\\.py$</div></td></tr></table></div></td></tr><tr><td style="font-weight:bold;vertical-align:top;">postprocessing</td><td style="vertical-align:top;">:</td><td><div><table></table></div></td></tr><tr><td style="font-weight:bold;vertical-align:top;">session_client</td><td style="vertical-align:top;">:</td><td><div>127.0.0.1</div></td></tr><tr><td style="font-weight:bold;vertical-align:top;">session_cookie_compression_level</td><td style="vertical-align:top;">:</td><td><div>None</div></td></tr><tr><td style="font-weight:bold;vertical-align:top;">session_cookie_expires</td><td style="vertical-align:top;">:</td><td><div>None</div></td></tr><tr><td style="font-weight:bold;vertical-align:top;">session_cookie_key</td><td style="vertical-align:top;">:</td><td><div>None</div></td></tr><tr><td style="font-weight:bold;vertical-align:top;">session_data_name</td><td style="vertical-align:top;">:</td><td><div>session_data_site_two_alterado</div></td></tr><tr><td style="font-weight:bold;vertical-align:top;">session_file</td><td style="vertical-align:top;">:</td><td><div>&lt;open file &#x27;C:\\\\Users\\\\TecSUS-3\\\\Desktop\\\\template_site\\\\web2py\\\\applications\\\\site_two_alterado\\\\sessions\\\\122\\\\0c2\\\\127.0.0.1-ec5b716f-e038-4389-a095-f3dc26f5c95a&#x27;, mode &#x27;rb+&#x27; at 0x04A9FAC8&gt;</div></td></tr><tr><td style="font-weight:bold;vertical-align:top;">session_filename</td><td style="vertical-align:top;">:</td><td><div>C:\\Users\\TecSUS-3\\Desktop\\template_site\\web2py\\applications\\site_two_alterado\\sessions\\127.0.0.1-ec5b716f-e038-4389-a095-f3dc26f5c95a</div></td></tr><tr><td style="font-weight:bold;vertical-align:top;">session_hash</td><td style="vertical-align:top;">:</td><td><div>bff41d4118d52a06554974cd5342960f</div></td></tr><tr><td style="font-weight:bold;vertical-align:top;">session_id</td><td style="vertical-align:top;">:</td><td><div>127.0.0.1-ec5b716f-e038-4389-a095-f3dc26f5c95a</div></td></tr><tr><td style="font-weight:bold;vertical-align:top;">session_id_name</td><td style="vertical-align:top;">:</td><td><div>session_id_site_two_alterado</div></td></tr><tr><td style="font-weight:bold;vertical-align:top;">session_locked</td><td style="vertical-align:top;">:</td><td><div>True</div></td></tr><tr><td style="font-weight:bold;vertical-align:top;">session_masterapp</td><td style="vertical-align:top;">:</td><td><div>site_two_alterado</div></td></tr><tr><td style="font-weight:bold;vertical-align:top;">session_new</td><td style="vertical-align:top;">:</td><td><div>False</div></td></tr><tr><td style="font-weight:bold;vertical-align:top;">session_storage_type</td><td style="vertical-align:top;">:</td><td><div>file</div></td></tr><tr><td style="font-weight:bold;vertical-align:top;">status</td><td style="vertical-align:top;">:</td><td><div>200</div></td></tr><tr><td style="font-weight:bold;vertical-align:top;">view</td><td style="vertical-align:top;">:</td><td><div>NovaManual/autocomplet.html</div></td></tr></table></div>'
tRp164
sS'locals'
p165
(dp166
S'attr'
p167
S"{'_class': 'generic-widget web2py_checkboxeswidget', '_id': 'None_None', '_name': None, 'limitby': (0, 10), 'min_length': 2, 'requires': None}"
p168
sS'value'
p169
S'<pydal.objects.Field object>'
p170
sS'label'
p171
S'True'
p172
sS'field'
p173
S"<Storage {'_vars': <Storage {}>, 'function': 'au...ite\\\\web2py\\\\applications\\\\site_two_alterado\\\\'}>"
p174
sS'values'
p175
S"['category.name']"
p176
sS'attributes'
p177
S"{'limitby': (0, 10), 'min_length': 2}"
p178
sS'requires'
p179
S'[None]'
p180
sS'cls'
p181
S"<class 'gluon.sqlhtml.CheckboxesWidget'>"
p182
sssS'traceback'
p183
S'Traceback (most recent call last):\n  File "C:\\Users\\TecSUS-3\\Desktop\\template_site\\web2py\\gluon\\restricted.py", line 227, in restricted\n    exec ccode in environment\n  File "C:\\Users\\TecSUS-3\\Desktop\\template_site\\web2py\\applications\\site_two_alterado\\models\\db.py", line 194, in <module>\n    db.product2.category.widget = SQLFORM.widgets.checkboxes.widget(request, db.category.name, limitby=(0,10), min_length=2)\n  File "C:\\Users\\TecSUS-3\\Desktop\\template_site\\web2py\\gluon\\sqlhtml.py", line 436, in widget\n    % field)\nSyntaxError: widget cannot determine options of <Storage {\'_vars\': <Storage {}>, \'function\': \'autocomplet\', \'cookies\': <SimpleCookie: session_id_admin=\'127.0.0.1-ae24fa66-5f07-4df3-9335-1a5ebeb275df\' session_id_site_two_alterado=\'127.0.0.1-ec5b716f-e038-4389-a095-f3dc26f5c95a\' session_id_welcome=\'127.0.0.1-57b89239-e551-49dc-9530-68f9cfce13af\'>, \'global_settings\': <Storage {\'debugging\': False, \'is_pypy\': False, \'local_hosts\': [\'192.241.173.135\', \'fe80::487:2eff:2cf4:8cd6%11\', \'TecSUS-3-PC\', \'TecSUS-3-PC.tecsus.com.br\', \'::ffff:127.0.0.1\', \'::1\', \'192.168.0.2\', \'fe80::5efe:192.168.0.2%12\', \'127.0.0.1\'], \'is_source\': True, \'gluon_parent\': \'C:\\\\Users\\\\TecSUS-3\\\\Desktop\\\\template_site\\\\web2py\', \'is_jython\': False, \'applications_parent\': \'C:\\\\Users\\\\TecSUS-3\\\\Desktop\\\\template_site\\\\web2py\', \'cmd_options\': <Values at 0x38a7cb0: {\'verbose\': False, \'ip\': \'127.0.0.1\', \'debuglevel\': 30, \'with_scheduler\': False, \'ips\': [\'192.241.173.135\'], \'shutdown_timeout\': 5, \'taskbar\': False, \'with_coverage\': False, \'scheduler_groups\': None, \'port\': 8000, \'maxthreads\': None, \'softcron\': False, \'server_name\': \'TecSUS-3-PC\', \'bpython\': False, \'nogui\': False, \'pid_filename\': \'httpserver.pid\', \'print_errors\': False, \'extcron\': False, \'runcron\': False, \'run_system_tests\': False, \'test\': None, \'folder\': \'C:\\\\Users\\\\TecSUS-3\\\\Desktop\\\\template_site\\\\web2py\', \'config\': \'\', \'minthreads\': None, \'shell\': None, \'run\': \'\', \'log_filename\': \'httpserver.log\', \'profiler_dir\': None, \'args\': [\'\'], \'socket_timeout\': 5, \'ssl_ca_certificate\': None, \'scheduler\': None, \'interfaces\': None, \'ssl_private_key\': \'\', \'gae\': None, \'password\': \'<ask>\', \'request_queue_size\': 5, \'ssl_certificate\': \'\', \'cronjob\': False, \'numthreads\': None, \'quiet\': False, \'import_models\': False, \'timeout\': 10, \'plain\': False, \'nobanner\': False}>, \'app_folders\': set([\'C:\\\\Users\\\\TecSUS-3\\\\Desktop\\\\template_site\\\\web2py\\\\applications\\\\admin\\\\\', \'C:\\\\Users\\\\TecSUS-3\\\\Desktop\\\\template_site\\\\web2py\\\\applications\\\\site_two_alterado\\\\\', \'C:\\\\Users\\\\TecSUS-3\\\\Desktop\\\\template_site\\\\web2py\\\\applications\\\\welcome\\\\\']), \'db_sessions\': set([]), \'web2py_version\': \'2.10.4-stable+timestamp.2015.04.26.15.11.54\', \'cmd_args\': []}>, \'raw_extension\': None, \'_body\': <cStringIO.StringO object at 0x0A295DE0>, \'args\': [], \'raw_args\': \'\', \'controller\': \'NovaManual\', \'utcnow\': datetime.datetime(2015, 8, 14, 16, 47, 5, 401000), \'url\': \'/site_two_alterado/NovaManual/autocomplet\', \'now\': datetime.datetime(2015, 8, 14, 13, 47, 5, 401000), \'is_local\': True, \'wsgi\': <gluon.main.LazyWSGI object at 0x0493B8B0>, \'is_shell\': None, \'uuid\': \'site_two_alterado/127.0.0.1.2015-08-14.13-47-05.6e613f0c-717f-4622-bfef-2a77bbc6f24b\', \'extension\': \'html\', \'cid\': None, \'_post_vars\': <Storage {}>, \'_get_vars\': <Storage {}>, \'ajax\': False, \'is_https\': False, \'is_sheduler\': None, \'application\': \'site_two_alterado\', \'client\': \'127.0.0.1\', \'is_restful\': False, \'env\': <Storage {\'HTTP_REFERER\': \'http://127.0.0.1:8000/site_two_alterado/NovaManual/autocomplet\', \'SERVER_SOFTWARE\': \'Rocket 1.2.6\', \'SCRIPT_NAME\': \'\', \'REQUEST_METHOD\': \'GET\', \'SERVER_PROTOCOL\': \'HTTP/1.1\', \'http_cache_control\': \'max-age=0\', \'web2py_path\': \'C:\\\\Users\\\\TecSUS-3\\\\Desktop\\\\template_site\\\\web2py\', \'wsgi_url_scheme\': \'http\', \'server_name\': \'TecSUS-3-PC\', \'wsgi_multiprocess\': False, \'applications_parent\': \'C:\\\\Users\\\\TecSUS-3\\\\Desktop\\\\template_site\\\\web2py\', \'cmd_options\': <Values at 0x38a7cb0: {\'verbose\': False, \'ip\': \'127.0.0.1\', \'debuglevel\': 30, \'with_scheduler\': False, \'ips\': [\'192.241.173.135\'], \'shutdown_timeout\': 5, \'taskbar\': False, \'with_coverage\': False, \'scheduler_groups\': None, \'port\': 8000, \'maxthreads\': None, \'softcron\': False, \'server_name\': \'TecSUS-3-PC\', \'bpython\': False, \'nogui\': False, \'pid_filename\': \'httpserver.pid\', \'print_errors\': False, \'extcron\': False, \'runcron\': False, \'run_system_tests\': False, \'test\': None, \'folder\': \'C:\\\\Users\\\\TecSUS-3\\\\Desktop\\\\template_site\\\\web2py\', \'config\': \'\', \'minthreads\': None, \'shell\': None, \'run\': \'\', \'log_filename\': \'httpserver.log\', \'profiler_dir\': None, \'args\': [\'\'], \'socket_timeout\': 5, \'ssl_ca_certificate\': None, \'scheduler\': None, \'interfaces\': None, \'ssl_private_key\': \'\', \'gae\': None, \'password\': \'<ask>\', \'request_queue_size\': 5, \'ssl_certificate\': \'\', \'cronjob\': False, \'numthreads\': None, \'quiet\': False, \'import_models\': False, \'timeout\': 10, \'plain\': False, \'nobanner\': False}>, \'wsgi_errors\': <open file \'<stderr>\', mode \'w\' at 0x0049D0D0>, \'request_method\': \'GET\', \'remote_addr\': \'127.0.0.1\', \'SERVER_PORT\': \'8000\', \'http_upgrade_insecure_requests\': \'1\', \'wsgi_multithread\': True, \'web2py_version\': \'2.10.4-stable+timestamp.2015.04.26.15.11.54\', \'HTTP_HOST\': \'127.0.0.1:8000\', \'script_name\': \'\', \'http_accept_encoding\': \'gzip, deflate, sdch\', \'HTTP_UPGRADE_INSECURE_REQUESTS\': \'1\', \'HTTP_CACHE_CONTROL\': \'max-age=0\', \'request_uri\': \'/site_two_alterado/NovaManual/autocomplet\', \'HTTP_ACCEPT\': \'text/html,application/xhtml+xml,application/xml;q=0.9,image/webp,*/*;q=0.8\', \'wsgi.version\': (1, 0), \'local_hosts\': [\'192.241.173.135\', \'fe80::487:2eff:2cf4:8cd6%11\', \'TecSUS-3-PC\', \'TecSUS-3-PC.tecsus.com.br\', \'::ffff:127.0.0.1\', \'::1\', \'192.168.0.2\', \'fe80::5efe:192.168.0.2%12\', \'127.0.0.1\'], \'wsgi.run_once\': False, \'wsgi.errors\': <open file \'<stderr>\', mode \'w\' at 0x0049D0D0>, \'wsgi.multiprocess\': False, \'HTTP_ACCEPT_LANGUAGE\': \'pt-BR,pt;q=0.8,en-US;q=0.6,en;q=0.4\', \'wsgi_input\': <socket._fileobject object at 0x0A7BF370>, \'app_folders\': set([\'C:\\\\Users\\\\TecSUS-3\\\\Desktop\\\\template_site\\\\web2py\\\\applications\\\\admin\\\\\', \'C:\\\\Users\\\\TecSUS-3\\\\Desktop\\\\template_site\\\\web2py\\\\applications\\\\site_two_alterado\\\\\', \'C:\\\\Users\\\\TecSUS-3\\\\Desktop\\\\template_site\\\\web2py\\\\applications\\\\welcome\\\\\']), \'http_connection\': \'keep-alive\', \'debugging\': False, \'http_user_agent\': \'Mozilla/5.0 (Windows NT 6.1; WOW64) AppleWebKit/537.36 (KHTML, like Gecko) Chrome/44.0.2403.155 Safari/537.36\', \'HTTP_COOKIE\': \'session_id_welcome=127.0.0.1-57b89239-e551-49dc-9530-68f9cfce13af; session_id_site_two_alterado=127.0.0.1-ec5b716f-e038-4389-a095-f3dc26f5c95a; session_id_admin=127.0.0.1-ae24fa66-5f07-4df3-9335-1a5ebeb275df\', \'PATH_INFO\': \'/site_two_alterado/NovaManual/autocomplet\', \'server_protocol\': \'HTTP/1.1\', \'QUERY_STRING\': \'\', \'cmd_args\': [], \'http_accept\': \'text/html,application/xhtml+xml,application/xml;q=0.9,image/webp,*/*;q=0.8\', \'HTTP_USER_AGENT\': \'Mozilla/5.0 (Windows NT 6.1; WOW64) AppleWebKit/537.36 (KHTML, like Gecko) Chrome/44.0.2403.155 Safari/537.36\', \'HTTP_CONNECTION\': \'keep-alive\', \'SERVER_NAME\': \'TecSUS-3-PC\', \'REMOTE_ADDR\': \'127.0.0.1\', \'is_jython\': False, \'http_accept_language\': \'pt-BR,pt;q=0.8,en-US;q=0.6,en;q=0.4\', \'wsgi_version\': (1, 0), \'wsgi.url_scheme\': \'http\', \'is_source\': True, \'server_port\': \'8000\', \'remote_port\': \'51080\', \'http_cookie\': \'session_id_welcome=127.0.0.1-57b89239-e551-49dc-9530-68f9cfce13af; session_id_site_two_alterado=127.0.0.1-ec5b716f-e038-4389-a095-f3dc26f5c95a; session_id_admin=127.0.0.1-ae24fa66-5f07-4df3-9335-1a5ebeb275df\', \'gluon_parent\': \'C:\\\\Users\\\\TecSUS-3\\\\Desktop\\\\template_site\\\\web2py\', \'server_software\': \'Rocket 1.2.6\', \'wsgi_file_wrapper\': <class wsgiref.util.FileWrapper at 0x03842F10>, \'wsgi.input\': <socket._fileobject object at 0x0A7BF370>, \'http_host\': \'127.0.0.1:8000\', \'path_info\': \'/site_two_alterado/NovaManual/autocomplet\', \'wsgi.multithread\': True, \'http_referer\': \'http://127.0.0.1:8000/site_two_alterado/NovaManual/autocomplet\', \'is_pypy\': False, \'REMOTE_PORT\': \'51080\', \'db_sessions\': set([]), \'query_string\': \'\', \'wsgi_run_once\': False, \'wsgi.file_wrapper\': <class wsgiref.util.FileWrapper at 0x03842F10>, \'HTTP_ACCEPT_ENCODING\': \'gzip, deflate, sdch\'}>, \'folder\': \'C:\\\\Users\\\\TecSUS-3\\\\Desktop\\\\template_site\\\\web2py\\\\applications\\\\site_two_alterado\\\\\'}>\n'
p184
s.