(dp1
S'output'
p2
S"<type 'exceptions.TypeError'> requires_membership() got an unexpected keyword argument 'name'"
p3
sS'layer'
p4
S'C:\\Users\\TecSUS-3\\Desktop\\template_site\\web2py\\applications\\site_two_alterado\\controllers/Veiculo.py'
p5
sS'code'
p6
S'__author__ = \'TecSUS-3\'\n\n####################################### IMPORTS #######################################\nfrom gluon import A, INPUT, IS_NOT_EMPTY, SQLFORM, URL, TR, TABLE, FORM, IS_LIST_OF, IS_IN_DB, redirect\nfrom gluon import Field\nfrom gluon.tools import Crud\n\n####################################### GLOBALS #######################################\nglobal request, session, response\ncrud = Crud(db2)\n\n\'\'\'\n# ## critical --- make a copy of the environment\n\nglobal_env = copy.copy(globals())\nglobal_env[\'datetime\'] = datetime\n\nhttp_host = request.env.http_host.split(\':\')[0]\nremote_addr = request.env.remote_addr\ntry:\n    hosts = (http_host, socket.gethostname(),\n             socket.gethostbyname(http_host),\n             \'::1\',\'127.0.0.1\',\'::ffff:127.0.0.1\')\nexcept:\n    hosts = (http_host, )\n\nif request.env.http_x_forwarded_for or request.env.wsgi_url_scheme\\\n     in [\'https\', \'HTTPS\']:\n    session.secure()\nelif (remote_addr not in hosts) and (remote_addr != "127.0.0.1"):\n    raise HTTP(200, T(\'appadmin is disabled because insecure channel\'))\nif not gluon.fileutils.check_credentials(request):\n    redirect(URL(a=\'admin\', c=\'default\', f=\'index\'))\n\nignore_rw = True\nresponse.view = \'appadmin.html\'\nresponse.menu = [[T(\'design\'), False, URL(\'admin\', \'default\', \'design\',\n                 args=[request.application])], [T(\'db\'), False,\n                 URL(r=request, f=\'index\')], [T(\'state\'), False,\n                 URL(r=request, f=\'state\')], [T(\'cache\'), False,\n                 URL(r=request, f=\'ccache\')]]\n\n\'\'\'\n\n###teste de classe########################################\nclass MyClass(object):\n        z = 2\n        def __init__(self, a, b):\n            self.x = a\n            self.y = b\n        def add(self):\n            return self.x + self.y + self.z\n\n\nclass MyList(object):\n        def __init__(self, *a): self.a = list(a)\n        def __len__(self): return len(self.a)\n        def __getitem__(self, i): return self.a[i]\n        def __setitem__(self, i, j): self.a[i] = j\n\nTiposCarros = [\'Novo\',\'Usado\']\n\ndef meu_user():\n\n    from gluon.tools import Recaptcha\n\n    title = \'Login\'\n\n    PUBLIC_KEY = \'xxx\'\n    PRIVATE_KEY = \'xxx\'\n    form = auth2()\n   # form.element(\'auth2\').insert(-1,(T(\'Please confirm that you are not a machine :\'),Recaptcha(request, PUBLIC_KEY, PRIVATE_KEY),\'\'))\n\n    order = db2.carro.marca\n    #selecionar apenas os que possuem fotos\n    registros = db2(db2.carro.foto!=None).select(orderby=order)\n\n    form_teste = FORM(registros)\n\n    form_carro = detalhes_geral(db2.carro, 2)\n\n    (form_crud,table_crud) = pesquisa_geral(db2.carro)\n\n    #meu_grupo(\'grupo_teste\', \'teste de grupo\')\n    #meu_membros(\'2\',\'4\')\n    #permissao_id = db2.permissoes.insert(nome = \'Leitura\')\n    #minha_permissao(\'2\',\'read\',permissao_id)\n    #print auth2.has_permission(\'read\',permissao_id,1,3)\n    print \'aqui\'\n    return locals()\n\ndef minha_permissao(id_grupo,descricao,leitura):\n\n    auth2.add_permission(id_grupo,descricao,leitura)\n\n    return locals()\n\ndef meu_grupo(nome_grupo,descricao):\n\n    auth2.add_group(nome_grupo,descricao)\n\n    return locals()\n\ndef meu_membros(grupo_id,user_id):\n\n    auth2.add_membership(grupo_id,user_id)\n\n    return locals()\n\n\ndef fecha_venda(formulario):\n\n    file = open(\'venda\'+str(formulario.id)+\'.txt\', \'w\')\n    file.write(\'venda realizada!\')\n    modelo = db2.carro[formulario.modelo].modelo\n    nome = db2.vendedor[formulario.nome_vendedor].nome\n    print modelo+\'  este aqui\'\n    file.write(str(formulario.id)+\' - \'+modelo+\' - \'+nome+\' - \'+str(formulario.desconto)+\' - \'+str(formulario.forma_pagamento)+\' - \'+str(formulario.data))\n   #file.close()\n    #file = open(\'a\', \'r\')\n    #print file.read()\n    #file.close()\n\n    return locals();\n\ndef Inicio():\n\n    session.flashed = False\n\n    #####classes#################\n    myinstance = MyClass(3, 4)\n    print myinstance.add()\n\n    b = MyList(3, 4, 5)\n    print b[1]\n    b.a[1] = 7\n    print b.a\n    ##############################\n\n    if not session.flashed:\n        response.flash = T(\'Bem vindo a loja de carros!\')\n\n    #response.write(\'Venha conhecer nossos carros!!!\')\n    ###############################\n    agora = request.now\n\n    #lista todos os carros na tela\n    #car_smartgrid  = SQLFORM.smartgrid(db2.carro)\n\n    #lista todos os carros na tela\n    car_grid = SQLFORM.grid(db2.carro)\n\n    #contador de sess\xc3\xa3o\n    session.counter = (session.counter or 0) + 1\n    counter = session.counter\n\n    #mostrar o nome do usu\xc3\xa1rio na tela\n    if auth2.user:\n       visitor_name = auth2.user.first_name\n    else:\n       visitor_name = \'nenhum\'\n\n    table_hora = []\n    table_hora.append(TR(\'Hora Atual:\',agora))\n    table_hora.append(TR(\'Visitante:\',visitor_name))\n    table_hora.append(TR(\'N\xc3\xbamero de visitas:\',counter))\n    table = TABLE(table_hora)\n    form_hora = FORM(table)\n\n    order = db2.carro.marca\n    #selecionar apenas os que possuem fotos\n    registros = db2(db2.carro.foto!=None).select(orderby=order)\n\n    form_teste = FORM(registros)\n\n    form_carro = detalhes_geral(db2.carro, 2)\n\n    (form_crud,table_crud) = pesquisa_geral(db2.carro)\n\n    title = "Loja de Carros"\n\n#    showcase = SHOWCASE(registros)\n\n    return locals()\n\ndef consultar_compradores(carro_id):\n    carro_muda = db2(db2.carro.id == carro_id).select()\n    form_consulta = SQLFORM(carro_muda)\n    return locals()\n\n@auth2.requires_login()\ndef venda():\n\n     if not session.flashed:\n        response.flash = T(\'Bem vindo a tela de vendas!\')\n\n     title = "Venda"\n\n     ####SQL####################################################\n     #######################################################\n     #aqui ele formata tudo sozinho e ainda envia para o banco sozinho tamb\xc3\xa9m\n     #mas n\xc3\xa3o mostra a mensagem de falha ou aceita\xc3\xa7\xc3\xa3o sozinho\n     venda_sqlform = SQLFORM(db2.venda)\n\n     if venda_sqlform.accepts(request,session):\n        response.flash = \'Form accepted\'\n        formulario = db2().select(db2.venda.ALL).last()\n        fecha_venda(formulario)\n     elif venda_sqlform.errors:\n        response.flash = \'Form has errors\'\n     else:\n        response.flash = \'Please fill the form\'\n\n     form_venda = detalhes_geral(db2.venda, 2)\n\n     (form_crud,table_crud) = pesquisa_geral(db2.venda)\n\n     return locals()\n\ndef download():\n    import os\n    #db2 = get_database(request)\n    return response.download(request, db2)\n\n#@auth2.requires_login()\ndef comprador():\n\n    title = \'Cliente\'\n\n    #lista todos os carros na tela\n    comprador_grid = SQLFORM.smartgrid(db2.comprador)\n\n    #CRUD\n    #aqui ele formata tudo sozinho e ainda envia para o banco sozinho tamb\xc3\xa9m\n    #mostra a mensagem de falha sozinho\n    comprador_crud = crud.create(db2.comprador)\n\n    ####SQL####################################################\n    #######################################################\n    #aqui ele formata tudo sozinho e ainda envia para o banco sozinho tamb\xc3\xa9m\n    #mas n\xc3\xa3o mostra a mensagem de falha ou aceita\xc3\xa7\xc3\xa3o sozinho\n    comprador_sqlform = SQLFORM(db2.comprador)\n\n    if comprador_sqlform.accepts(request,session):\n        response.flash = \'Form accepted\'\n    elif comprador_sqlform.errors:\n        response.flash = \'Form has errors\'\n    else:\n        response.flash = \'Please fill the form\'\n\n    form_geral = detalhes_geral(db2.comprador, 1)\n\n    (form_crud,table_crud) = pesquisa_geral(db2.comprador)\n\n    return locals()\n\n\ndef detalhes_geral(tabela, tb_id):\n\n    registro_geral = tabela(tb_id) or redirect(URL(\'Inicio\'))\n\n    form_geral =SQLFORM(tabela,registro_geral,deletable=True,upload=URL(\'veiculo\',\'download\'))\n\n    if form_geral.accepts(request.vars,session):\n        response.flash = \'Sucesso\'\n    elif form_geral.errors:\n        response.flash = \'Erro\'\n\n    return form_geral\n\ndef pesquisa_geral(tabela):\n\n    form_crud,table_crud = crud.search(tabela)\n\n    return form_crud,table_crud\n\n#@auth2.requires_membership(\'Master\')\ndef marca():\n\n    title = "Cadastro de Marcas"\n\n    #lista todos os carros na tela\n    marca_grid  = SQLFORM.smartgrid(db2.marca)\n\n    #CRUD\n    #aqui ele formata tudo sozinho e ainda envia para o banco sozinho tamb\xc3\xa9m\n    #mostra a mensagem de falha sozinho\n    marca_crud = crud.create(db2.marca)\n\n    ####SQL####################################################\n    #######################################################\n    #aqui ele formata tudo sozinho e ainda envia para o banco sozinho tamb\xc3\xa9m\n    #mas n\xc3\xa3o mostra a mensagem de falha ou aceita\xc3\xa7\xc3\xa3o sozinho\n    marca_sqlform = SQLFORM(db2.marca)\n\n    if marca_sqlform.accepts(request,session):\n        response.flash = \'Form accepted\'\n    elif marca_sqlform.errors:\n        response.flash = \'Form has errors\'\n    else:\n        response.flash = \'Please fill the form\'\n\n    form_marca = detalhes_geral(db2.marca, 2)\n\n    (form_crud,table_crud) = pesquisa_geral(db2.marca)\n\n    return locals()\n\n@auth2.requires_membership(name = \'read\')\ndef carro():\n\n    title = "Cadastro de Carros"\n\n    if not session.flashed:\n        response.flash = T(\'Bem vindo a loja de carros!\')\n\n    #lista todos os carros na tela\n    car_grid = SQLFORM.smartgrid(db2.carro)\n\n    #CRUD\n    #aqui ele formata tudo sozinho e ainda envia para o banco sozinho tamb\xc3\xa9m\n    #mostra a mensagem de falha sozinho\n    carro_crud = crud.create(db2.carro)\n\n    #######################################################\n    #aqui ele formata tudo sozinho e ainda envia para o banco sozinho tamb\xc3\xa9m\n    #mas n\xc3\xa3o mostra a mensagem de falha ou aceita\xc3\xa7\xc3\xa3o sozinho\n    carro_sqlform = SQLFORM(db2.carro)\n\n    if carro_sqlform.accepts(request,session):\n        response.flash = \'Form accepted\'\n    elif carro_sqlform.errors:\n        response.flash = \'Form has errors\'\n    else:\n        response.flash = \'Please fill the form\'\n\n    excluir_carro(1)\n\n    alterar_carro(2)\n\n    #######################################################\n     # Must repeat the field validators declared in the db.py\n    marca_input=INPUT(_name=\'marca_input\', requires=IS_IN_DB(db2, \'marca.id\',\'marca.nome\',error_message=e_m[\'not_in_db\']))\n    modelo_input=INPUT(_name=\'modelo_input\')\n    y1 = request.now.year-20\n    y2 = request.now.year+2\n    ano_input=INPUT(_name=\'ano_input\', requires=IS_INT_IN_RANGE(y1,y2,error_message=e_m[\'not_in_range\']))\n    cor_input=INPUT(_name=\'cor_input\', requires=IS_IN_SET(cores))\n    valor_input=INPUT(_name=\'valor_input\')\n    itens_input=INPUT(_name=\'itens_input\',requires=IS_IN_SET((\'Alarme\',\'Trava\',\'Som\', \'Ar\'),multiple=True,error_message=e_m[\'not_in_set\']))\n    estado_input=INPUT(_name=\'estado_input\',requires=IS_IN_SET(estados,error_message=e_m[\'not_in_set\']))\n    desc_input=INPUT(_name=\'desc_input\')\n    foto_input=INPUT(_name=\'foto_input\',requires=IS_IMAGE(IS_IMAGE(extensions=(\'jpeg\', \'png\', \'.gif\'),error_message=e_m[\'image\'])))\n\n    #neste ponto define a posi\xc3\xa7\xc3\xa3o dos dados dentro de uma tabela\n    # Manual creation of the html table\n    table_rows = []\n    table_rows.append(TR(\'Marca:\', marca_input))\n    table_rows.append(TR(\'Modelo:\', modelo_input))\n    table_rows.append(TR(\'Ano:\', ano_input))\n    table_rows.append(TR(\'Cor:\', cor_input))\n    table_rows.append(TR(\'Valor:\', valor_input))\n    table_rows.append(TR(\'Itens:\', itens_input))\n    table_rows.append(TR(\'Estado:\', estado_input))\n    table_rows.append(TR(\'Descri\xc3\xa7\xc3\xa3o:\', desc_input))\n    table_rows.append(TR(\'Foto:\', foto_input))\n    # Fields starting with _ are passed to the html as attribute elements\n    table_rows.append(TR(TD(INPUT(_type=\'submit\'), _colspan=\'2\', _align=\'center\')))\n    table = TABLE(table_rows)\n\n    form = FORM(table)\n\n    #momento em que realmente o dado \xc3\xa9 colocado dentro do banco de dados\n    # Processing the form submition\n    if form.accepts(request,session):\n        # Retriving the form fields\n        form_marca_input = form.vars.marca\n        form_modelo_input = form.vars.modelo\n        form_ano_input = form.vars.ano\n        form_cor_input = form.vars.cor\n        form_valor_input = form.vars.valor\n        form_itens_input = form.vars.itens\n        form_estado_input = form.vars.estado\n        form_desc_input = form.vars.desc\n        form_foto_input = form.vars.foto\n        # Inserting in the database\n        db.car_model.insert(marca=form_marca_input, modelo = form_modelo_input,ano = form_ano_input, cor = form_cor_input, valor = form_valor_input, itens = form_itens_input, estado = form_estado_input, desc = form_desc_input, foto = form_foto_input)\n        # Tell the user about the insertion\n        response.flash = \'New car: \' + form_modelo_input\n    elif form.errors:\n        response.flash = \'Form has errors\'\n    else:\n        response.flash = \'Please fill the form\'\n\n    #######################################################\n    form_carro = detalhes_geral(db2.carro,2)\n\n    (form_crud,table_crud) = pesquisa_geral(db2.carro)\n\n    return locals()\n\ndef excluir_carro(carro_id):\n    carro_muda = db2(db2.carro.id == carro_id).delete()\n    return locals()\n\n\n#######################################################\n#n\xc3\xa3o funciona\n#######################################################\ndef alterar_carro(carro_id):\n    carro_muda = db2(db2.carro.id == carro_id).select()\n    for i in carro_muda:\n        i.update(modelo = \'outro\')\n\n    return locals()\n\n#@auth2.requires_membership(\'Master\')\ndef vendedor():\n\n    title = "Cadastro de Vendedores"\n\n    #lista todos os carros na tela\n    vendedor_grid  = SQLFORM.smartgrid(db2.vendedor)\n\n    #CRUD\n    #aqui ele formata tudo sozinho e ainda envia para o banco sozinho tamb\xc3\xa9m\n    #mostra a mensagem de falha sozinho\n    vendedor_crud = crud.create(db2.vendedor)\n\n    ####SQL####################################################\n    #######################################################\n    #aqui ele formata tudo sozinho e ainda envia para o banco sozinho tamb\xc3\xa9m\n    #mas n\xc3\xa3o mostra a mensagem de falha ou aceita\xc3\xa7\xc3\xa3o sozinho\n    vendedor_sqlform = SQLFORM(db2.vendedor)\n\n    if vendedor_sqlform.accepts(request,session):\n        response.flash = \'Form accepted\'\n    elif vendedor_sqlform.errors:\n        response.flash = \'Form has errors\'\n    else:\n        response.flash = \'Please fill the form\'\n\n    form_vendedor = detalhes_geral(db2.vendedor, 1)\n\n    (form_crud,table_crud) = pesquisa_geral(db2.vendedor)\n\n    return locals()\n\n\n#@auth2.requires_login()\ndef admin():\n\n    args = request.args\n\n    title = \'administration\'\n\n    if not args:\n        link = UL(*[LI(A(tab,_href=URL(args=tab))) for tab in db.tables])\n        return dict(items=link,title=title)\n\n    if not args(1):\n        i = 0\n    else:\n        i =1\n\n    for tab in db.tables:\n        if tab==args(i):\n            tb = db[tab]\n\n    crud = Crud(db)\n\n    if args(0)==\'edit\':\n        form = crud.update(tb, args(2),next=URL(f=\'admin\',args=args(1)))\n        items = None\n        title = \'Edit %s \' % args(i)\n    else:\n        form = crud.create(tb)\n        rows = db().select(tb.ALL)\n        items = SQLTABLE(rows,linkto=\'edit\')\n        title = \'Insert %s \' % args(i)\n\n\n    return dict(form=form,items=items,title=title)\n\ndef send_email():\n\n    title = \'Contato\'\n\n    form = SQLFORM.factory(\n        Field(\'name\', requires=IS_NOT_EMPTY()),\n        Field(\'email\', requires =[ IS_EMAIL(error_message=\'invalid email!\'), IS_NOT_EMPTY() ]),\n        Field(\'subject\', requires=IS_NOT_EMPTY()),\n        Field(\'message\', requires=IS_NOT_EMPTY(), type=\'text\')\n    )\n    if form.process().accepted:\n        session.name = form.vars.name\n        session.email = form.vars.email\n        session.subject = form.vars.subject\n        session.message = form.vars.message\n\n        x = mails.send(to=[\'juliana.padilha@gmail.com\'],\n            subject=\'loja de carros\',\n            message= "Ol\xc3\xa1 esse \xc3\xa9 um email de teste da lja de carros.\\nName:"+ session.name+" \\nEmail : " + session.email +"\\nSubject : "+session.subject +"\\nMessage : "+session.message+ ".\\n "\n        )\n\n        if x == True:\n            response.flash = \'email sent sucessfully.\'\n        else:\n            response.flash = \'fail to send email sorry!\'\n\n        #response.flash = \'form accepted.\'\n    elif form.errors:\n        response.flash=\'form has errors.\'\n\n    form_carro = detalhes_geral(db2.carro, 2)\n\n    (form_crud,table_crud) = pesquisa_geral(db2.carro)\n\n    return locals()\nresponse._vars=response._caller(Inicio)\n'
p7
sS'snapshot'
p8
(dp9
S'exception'
p10
(dp11
S'__hash__'
p12
S"<method-wrapper '__hash__' of exceptions.TypeError object>"
p13
sS'__setattr__'
p14
S"<method-wrapper '__setattr__' of exceptions.TypeError object>"
p15
sS'__reduce_ex__'
p16
S'<built-in method __reduce_ex__ of exceptions.TypeError object>'
p17
sS'__getslice__'
p18
S"<method-wrapper '__getslice__' of exceptions.TypeError object>"
p19
sS'__getitem__'
p20
S"<method-wrapper '__getitem__' of exceptions.TypeError object>"
p21
sS'__setstate__'
p22
S'<built-in method __setstate__ of exceptions.TypeError object>'
p23
sS'__reduce__'
p24
S'<built-in method __reduce__ of exceptions.TypeError object>'
p25
sS'__str__'
p26
S"<method-wrapper '__str__' of exceptions.TypeError object>"
p27
sS'__format__'
p28
S'<built-in method __format__ of exceptions.TypeError object>'
p29
sS'__getattribute__'
p30
S"<method-wrapper '__getattribute__' of exceptions.TypeError object>"
p31
sS'__class__'
p32
S"<type 'exceptions.TypeError'>"
p33
sS'__unicode__'
p34
S'<built-in method __unicode__ of exceptions.TypeError object>'
p35
sS'__delattr__'
p36
S"<method-wrapper '__delattr__' of exceptions.TypeError object>"
p37
sS'__subclasshook__'
p38
S'<built-in method __subclasshook__ of type object>'
p39
sS'__repr__'
p40
S"<method-wrapper '__repr__' of exceptions.TypeError object>"
p41
sS'args'
p42
S'("requires_membership() got an unexpected keyword argument \'name\'",)'
p43
sS'__dict__'
p44
S'{}'
p45
sS'__sizeof__'
p46
S'<built-in method __sizeof__ of exceptions.TypeError object>'
p47
sS'__doc__'
p48
S"'Inappropriate argument type.'"
p49
sS'__init__'
p50
S"<method-wrapper '__init__' of exceptions.TypeError object>"
p51
sS'__new__'
p52
S'<built-in method __new__ of type object>'
p53
ssS'evalue'
p54
S"requires_membership() got an unexpected keyword argument 'name'"
p55
sS'request'
p56
cgluon.html
XML_unpickle
p57
(S's\x8a`\x00\x00<div><table><tr><td style="font-weight:bold;vertical-align:top;">ajax</td><td style="vertical-align:top;">:</td><td><div>False</div></td></tr><tr><td style="font-weight:bold;vertical-align:top;">application</td><td style="vertical-align:top;">:</td><td><div>site_two_alterado</div></td></tr><tr><td style="font-weight:bold;vertical-align:top;">args</td><td style="vertical-align:top;">:</td><td><div><table></table></div></td></tr><tr><td style="font-weight:bold;vertical-align:top;">cid</td><td style="vertical-align:top;">:</td><td><div>None</div></td></tr><tr><td style="font-weight:bold;vertical-align:top;">client</td><td style="vertical-align:top;">:</td><td><div>127.0.0.1</div></td></tr><tr><td style="font-weight:bold;vertical-align:top;">controller</td><td style="vertical-align:top;">:</td><td><div>Veiculo</div></td></tr><tr><td style="font-weight:bold;vertical-align:top;">cookies</td><td style="vertical-align:top;">:</td><td><div><table><tr><td style="font-weight:bold;vertical-align:top;">session_id_admin</td><td style="vertical-align:top;">:</td><td><div>127.0.0.1-9b8d0c96-156a-42b9-a039-0d0abb93fa76<table><tr><td style="font-weight:bold;vertical-align:top;">comment</td><td style="vertical-align:top;">:</td><td><div></div></td></tr><tr><td style="font-weight:bold;vertical-align:top;">domain</td><td style="vertical-align:top;">:</td><td><div></div></td></tr><tr><td style="font-weight:bold;vertical-align:top;">expires</td><td style="vertical-align:top;">:</td><td><div></div></td></tr><tr><td style="font-weight:bold;vertical-align:top;">httponly</td><td style="vertical-align:top;">:</td><td><div></div></td></tr><tr><td style="font-weight:bold;vertical-align:top;">max-age</td><td style="vertical-align:top;">:</td><td><div></div></td></tr><tr><td style="font-weight:bold;vertical-align:top;">path</td><td style="vertical-align:top;">:</td><td><div></div></td></tr><tr><td style="font-weight:bold;vertical-align:top;">secure</td><td style="vertical-align:top;">:</td><td><div></div></td></tr><tr><td style="font-weight:bold;vertical-align:top;">version</td><td style="vertical-align:top;">:</td><td><div></div></td></tr></table></div></td></tr><tr><td style="font-weight:bold;vertical-align:top;">session_id_site_two_alterado</td><td style="vertical-align:top;">:</td><td><div>127.0.0.1-f7bb48da-bbfc-47db-987c-d381661c8a3c<table><tr><td style="font-weight:bold;vertical-align:top;">comment</td><td style="vertical-align:top;">:</td><td><div></div></td></tr><tr><td style="font-weight:bold;vertical-align:top;">domain</td><td style="vertical-align:top;">:</td><td><div></div></td></tr><tr><td style="font-weight:bold;vertical-align:top;">expires</td><td style="vertical-align:top;">:</td><td><div></div></td></tr><tr><td style="font-weight:bold;vertical-align:top;">httponly</td><td style="vertical-align:top;">:</td><td><div></div></td></tr><tr><td style="font-weight:bold;vertical-align:top;">max-age</td><td style="vertical-align:top;">:</td><td><div></div></td></tr><tr><td style="font-weight:bold;vertical-align:top;">path</td><td style="vertical-align:top;">:</td><td><div></div></td></tr><tr><td style="font-weight:bold;vertical-align:top;">secure</td><td style="vertical-align:top;">:</td><td><div></div></td></tr><tr><td style="font-weight:bold;vertical-align:top;">version</td><td style="vertical-align:top;">:</td><td><div></div></td></tr></table></div></td></tr><tr><td style="font-weight:bold;vertical-align:top;">session_id_welcome</td><td style="vertical-align:top;">:</td><td><div>127.0.0.1-4e10cdd9-6d92-416f-9acf-ffcd2bc04dc5<table><tr><td style="font-weight:bold;vertical-align:top;">comment</td><td style="vertical-align:top;">:</td><td><div></div></td></tr><tr><td style="font-weight:bold;vertical-align:top;">domain</td><td style="vertical-align:top;">:</td><td><div></div></td></tr><tr><td style="font-weight:bold;vertical-align:top;">expires</td><td style="vertical-align:top;">:</td><td><div></div></td></tr><tr><td style="font-weight:bold;vertical-align:top;">httponly</td><td style="vertical-align:top;">:</td><td><div></div></td></tr><tr><td style="font-weight:bold;vertical-align:top;">max-age</td><td style="vertical-align:top;">:</td><td><div></div></td></tr><tr><td style="font-weight:bold;vertical-align:top;">path</td><td style="vertical-align:top;">:</td><td><div></div></td></tr><tr><td style="font-weight:bold;vertical-align:top;">secure</td><td style="vertical-align:top;">:</td><td><div></div></td></tr><tr><td style="font-weight:bold;vertical-align:top;">version</td><td style="vertical-align:top;">:</td><td><div></div></td></tr></table></div></td></tr></table></div></td></tr><tr><td style="font-weight:bold;vertical-align:top;">env</td><td style="vertical-align:top;">:</td><td><div><table><tr><td style="font-weight:bold;vertical-align:top;">HTTP_ACCEPT</td><td style="vertical-align:top;">:</td><td><div>text/html,application/xhtml+xml,application/xml;q=0.9,image/webp,*/*;q=0.8</div></td></tr><tr><td style="font-weight:bold;vertical-align:top;">HTTP_ACCEPT_ENCODING</td><td style="vertical-align:top;">:</td><td><div>gzip, deflate, sdch</div></td></tr><tr><td style="font-weight:bold;vertical-align:top;">HTTP_ACCEPT_LANGUAGE</td><td style="vertical-align:top;">:</td><td><div>pt-BR,pt;q=0.8,en-US;q=0.6,en;q=0.4</div></td></tr><tr><td style="font-weight:bold;vertical-align:top;">HTTP_CONNECTION</td><td style="vertical-align:top;">:</td><td><div>keep-alive</div></td></tr><tr><td style="font-weight:bold;vertical-align:top;">HTTP_COOKIE</td><td style="vertical-align:top;">:</td><td><div>session_id_welcome=127.0.0.1-4e10cdd9-6d92-416f-9acf-ffcd2bc04dc5; session_id_admin=127.0.0.1-9b8d0c96-156a-42b9-a039-0d0abb93fa76; session_id_site_two_alterado=127.0.0.1-f7bb48da-bbfc-47db-987c-d381661c8a3c</div></td></tr><tr><td style="font-weight:bold;vertical-align:top;">HTTP_HOST</td><td style="vertical-align:top;">:</td><td><div>127.0.0.1:8000</div></td></tr><tr><td style="font-weight:bold;vertical-align:top;">HTTP_REFERER</td><td style="vertical-align:top;">:</td><td><div>http://127.0.0.1:8000/site_two_alterado/veiculo/meu_user/login</div></td></tr><tr><td style="font-weight:bold;vertical-align:top;">HTTP_UPGRADE_INSECURE_REQUESTS</td><td style="vertical-align:top;">:</td><td><div>1</div></td></tr><tr><td style="font-weight:bold;vertical-align:top;">HTTP_USER_AGENT</td><td style="vertical-align:top;">:</td><td><div>Mozilla/5.0 (Windows NT 6.1; WOW64) AppleWebKit/537.36 (KHTML, like Gecko) Chrome/44.0.2403.157 Safari/537.36</div></td></tr><tr><td style="font-weight:bold;vertical-align:top;">PATH_INFO</td><td style="vertical-align:top;">:</td><td><div>/site_two_alterado/Veiculo/Inicio</div></td></tr><tr><td style="font-weight:bold;vertical-align:top;">QUERY_STRING</td><td style="vertical-align:top;">:</td><td><div></div></td></tr><tr><td style="font-weight:bold;vertical-align:top;">REMOTE_ADDR</td><td style="vertical-align:top;">:</td><td><div>127.0.0.1</div></td></tr><tr><td style="font-weight:bold;vertical-align:top;">REMOTE_PORT</td><td style="vertical-align:top;">:</td><td><div>53216</div></td></tr><tr><td style="font-weight:bold;vertical-align:top;">REQUEST_METHOD</td><td style="vertical-align:top;">:</td><td><div>GET</div></td></tr><tr><td style="font-weight:bold;vertical-align:top;">SCRIPT_NAME</td><td style="vertical-align:top;">:</td><td><div></div></td></tr><tr><td style="font-weight:bold;vertical-align:top;">SERVER_NAME</td><td style="vertical-align:top;">:</td><td><div>TecSUS-3-PC</div></td></tr><tr><td style="font-weight:bold;vertical-align:top;">SERVER_PORT</td><td style="vertical-align:top;">:</td><td><div>8000</div></td></tr><tr><td style="font-weight:bold;vertical-align:top;">SERVER_PROTOCOL</td><td style="vertical-align:top;">:</td><td><div>HTTP/1.1</div></td></tr><tr><td style="font-weight:bold;vertical-align:top;">SERVER_SOFTWARE</td><td style="vertical-align:top;">:</td><td><div>Rocket 1.2.6</div></td></tr><tr><td style="font-weight:bold;vertical-align:top;">app_folders</td><td style="vertical-align:top;">:</td><td><div>set([&#x27;C:\\\\Users\\\\TecSUS-3\\\\Desktop\\\\template_site\\\\web2py\\\\applications\\\\admin\\\\&#x27;, &#x27;C:\\\\Users\\\\TecSUS-3\\\\Desktop\\\\template_site\\\\web2py\\\\applications\\\\site_two_alterado\\\\&#x27;, &#x27;C:\\\\Users\\\\TecSUS-3\\\\Desktop\\\\template_site\\\\web2py\\\\applications\\\\welcome\\\\&#x27;])</div></td></tr><tr><td style="font-weight:bold;vertical-align:top;">applications_parent</td><td style="vertical-align:top;">:</td><td><div>C:\\Users\\TecSUS-3\\Desktop\\template_site\\web2py</div></td></tr><tr><td style="font-weight:bold;vertical-align:top;">cmd_args</td><td style="vertical-align:top;">:</td><td><div><table></table></div></td></tr><tr><td style="font-weight:bold;vertical-align:top;">cmd_options</td><td style="vertical-align:top;">:</td><td><div>&lt;Values at 0x3d0fe90: {&#x27;verbose&#x27;: False, &#x27;ip&#x27;: &#x27;127.0.0.1&#x27;, &#x27;debuglevel&#x27;: 30, &#x27;with_scheduler&#x27;: False, &#x27;ips&#x27;: [&#x27;192.241.173.135&#x27;], &#x27;shutdown_timeout&#x27;: 5, &#x27;taskbar&#x27;: False, &#x27;with_coverage&#x27;: False, &#x27;scheduler_groups&#x27;: None, &#x27;port&#x27;: 8000, &#x27;maxthreads&#x27;: None, &#x27;softcron&#x27;: False, &#x27;server_name&#x27;: &#x27;TecSUS-3-PC&#x27;, &#x27;bpython&#x27;: False, &#x27;nogui&#x27;: False, &#x27;pid_filename&#x27;: &#x27;httpserver.pid&#x27;, &#x27;print_errors&#x27;: False, &#x27;extcron&#x27;: False, &#x27;runcron&#x27;: False, &#x27;run_system_tests&#x27;: False, &#x27;test&#x27;: None, &#x27;folder&#x27;: &#x27;C:\\\\Users\\\\TecSUS-3\\\\Desktop\\\\template_site\\\\web2py&#x27;, &#x27;config&#x27;: &#x27;&#x27;, &#x27;minthreads&#x27;: None, &#x27;shell&#x27;: None, &#x27;run&#x27;: &#x27;&#x27;, &#x27;log_filename&#x27;: &#x27;httpserver.log&#x27;, &#x27;profiler_dir&#x27;: None, &#x27;args&#x27;: [&#x27;&#x27;], &#x27;socket_timeout&#x27;: 5, &#x27;ssl_ca_certificate&#x27;: None, &#x27;scheduler&#x27;: None, &#x27;interfaces&#x27;: None, &#x27;ssl_private_key&#x27;: &#x27;&#x27;, &#x27;gae&#x27;: None, &#x27;password&#x27;: &#x27;&lt;ask&gt;&#x27;, &#x27;request_queue_size&#x27;: 5, &#x27;ssl_certificate&#x27;: &#x27;&#x27;, &#x27;cronjob&#x27;: False, &#x27;numthreads&#x27;: None, &#x27;quiet&#x27;: False, &#x27;import_models&#x27;: False, &#x27;timeout&#x27;: 10, &#x27;plain&#x27;: False, &#x27;nobanner&#x27;: False}&gt;</div></td></tr><tr><td style="font-weight:bold;vertical-align:top;">db_sessions</td><td style="vertical-align:top;">:</td><td><div>set([])</div></td></tr><tr><td style="font-weight:bold;vertical-align:top;">debugging</td><td style="vertical-align:top;">:</td><td><div>False</div></td></tr><tr><td style="font-weight:bold;vertical-align:top;">gluon_parent</td><td style="vertical-align:top;">:</td><td><div>C:\\Users\\TecSUS-3\\Desktop\\template_site\\web2py</div></td></tr><tr><td style="font-weight:bold;vertical-align:top;">http_accept</td><td style="vertical-align:top;">:</td><td><div>text/html,application/xhtml+xml,application/xml;q=0.9,image/webp,*/*;q=0.8</div></td></tr><tr><td style="font-weight:bold;vertical-align:top;">http_accept_encoding</td><td style="vertical-align:top;">:</td><td><div>gzip, deflate, sdch</div></td></tr><tr><td style="font-weight:bold;vertical-align:top;">http_accept_language</td><td style="vertical-align:top;">:</td><td><div>pt-BR,pt;q=0.8,en-US;q=0.6,en;q=0.4</div></td></tr><tr><td style="font-weight:bold;vertical-align:top;">http_connection</td><td style="vertical-align:top;">:</td><td><div>keep-alive</div></td></tr><tr><td style="font-weight:bold;vertical-align:top;">http_cookie</td><td style="vertical-align:top;">:</td><td><div>session_id_welcome=127.0.0.1-4e10cdd9-6d92-416f-9acf-ffcd2bc04dc5; session_id_admin=127.0.0.1-9b8d0c96-156a-42b9-a039-0d0abb93fa76; session_id_site_two_alterado=127.0.0.1-f7bb48da-bbfc-47db-987c-d381661c8a3c</div></td></tr><tr><td style="font-weight:bold;vertical-align:top;">http_host</td><td style="vertical-align:top;">:</td><td><div>127.0.0.1:8000</div></td></tr><tr><td style="font-weight:bold;vertical-align:top;">http_referer</td><td style="vertical-align:top;">:</td><td><div>http://127.0.0.1:8000/site_two_alterado/veiculo/meu_user/login</div></td></tr><tr><td style="font-weight:bold;vertical-align:top;">http_upgrade_insecure_requests</td><td style="vertical-align:top;">:</td><td><div>1</div></td></tr><tr><td style="font-weight:bold;vertical-align:top;">http_user_agent</td><td style="vertical-align:top;">:</td><td><div>Mozilla/5.0 (Windows NT 6.1; WOW64) AppleWebKit/537.36 (KHTML, like Gecko) Chrome/44.0.2403.157 Safari/537.36</div></td></tr><tr><td style="font-weight:bold;vertical-align:top;">is_jython</td><td style="vertical-align:top;">:</td><td><div>False</div></td></tr><tr><td style="font-weight:bold;vertical-align:top;">is_pypy</td><td style="vertical-align:top;">:</td><td><div>False</div></td></tr><tr><td style="font-weight:bold;vertical-align:top;">is_source</td><td style="vertical-align:top;">:</td><td><div>True</div></td></tr><tr><td style="font-weight:bold;vertical-align:top;">local_hosts</td><td style="vertical-align:top;">:</td><td><div><table><tr><td><div>192.241.173.135</div></td></tr><tr><td><div>fe80::487:2eff:2cf4:8cd6%11</div></td></tr><tr><td><div>TecSUS-3-PC</div></td></tr><tr><td><div>TecSUS-3-PC.tecsus.com.br</div></td></tr><tr><td><div>::ffff:127.0.0.1</div></td></tr><tr><td><div>::1</div></td></tr><tr><td><div>fe80::5efe:192.168.0.18%12</div></td></tr><tr><td><div>192.168.0.18</div></td></tr><tr><td><div>127.0.0.1</div></td></tr></table></div></td></tr><tr><td style="font-weight:bold;vertical-align:top;">path_info</td><td style="vertical-align:top;">:</td><td><div>/site_two_alterado/Veiculo/Inicio</div></td></tr><tr><td style="font-weight:bold;vertical-align:top;">query_string</td><td style="vertical-align:top;">:</td><td><div></div></td></tr><tr><td style="font-weight:bold;vertical-align:top;">remote_addr</td><td style="vertical-align:top;">:</td><td><div>127.0.0.1</div></td></tr><tr><td style="font-weight:bold;vertical-align:top;">remote_port</td><td style="vertical-align:top;">:</td><td><div>53216</div></td></tr><tr><td style="font-weight:bold;vertical-align:top;">request_method</td><td style="vertical-align:top;">:</td><td><div>GET</div></td></tr><tr><td style="font-weight:bold;vertical-align:top;">request_uri</td><td style="vertical-align:top;">:</td><td><div>/site_two_alterado/Veiculo/Inicio</div></td></tr><tr><td style="font-weight:bold;vertical-align:top;">script_name</td><td style="vertical-align:top;">:</td><td><div></div></td></tr><tr><td style="font-weight:bold;vertical-align:top;">server_name</td><td style="vertical-align:top;">:</td><td><div>TecSUS-3-PC</div></td></tr><tr><td style="font-weight:bold;vertical-align:top;">server_port</td><td style="vertical-align:top;">:</td><td><div>8000</div></td></tr><tr><td style="font-weight:bold;vertical-align:top;">server_protocol</td><td style="vertical-align:top;">:</td><td><div>HTTP/1.1</div></td></tr><tr><td style="font-weight:bold;vertical-align:top;">server_software</td><td style="vertical-align:top;">:</td><td><div>Rocket 1.2.6</div></td></tr><tr><td style="font-weight:bold;vertical-align:top;">web2py_path</td><td style="vertical-align:top;">:</td><td><div>C:\\Users\\TecSUS-3\\Desktop\\template_site\\web2py</div></td></tr><tr><td style="font-weight:bold;vertical-align:top;">web2py_version</td><td style="vertical-align:top;">:</td><td><div>2.10.4-stable+timestamp.2015.04.26.15.11.54</div></td></tr><tr><td style="font-weight:bold;vertical-align:top;">wsgi.errors</td><td style="vertical-align:top;">:</td><td><div>&lt;open file &#x27;&lt;stderr&gt;&#x27;, mode &#x27;w&#x27; at 0x01E1D0D0&gt;</div></td></tr><tr><td style="font-weight:bold;vertical-align:top;">wsgi.file_wrapper</td><td style="vertical-align:top;">:</td><td><div>&lt;class wsgiref.util.FileWrapper at 0x03CAED50&gt;</div></td></tr><tr><td style="font-weight:bold;vertical-align:top;">wsgi.input</td><td style="vertical-align:top;">:</td><td><div>&lt;socket._fileobject object at 0x0B2808B0&gt;</div></td></tr><tr><td style="font-weight:bold;vertical-align:top;">wsgi.multiprocess</td><td style="vertical-align:top;">:</td><td><div>False</div></td></tr><tr><td style="font-weight:bold;vertical-align:top;">wsgi.multithread</td><td style="vertical-align:top;">:</td><td><div>True</div></td></tr><tr><td style="font-weight:bold;vertical-align:top;">wsgi.run_once</td><td style="vertical-align:top;">:</td><td><div>False</div></td></tr><tr><td style="font-weight:bold;vertical-align:top;">wsgi.url_scheme</td><td style="vertical-align:top;">:</td><td><div>http</div></td></tr><tr><td style="font-weight:bold;vertical-align:top;">wsgi.version</td><td style="vertical-align:top;">:</td><td><div><table><tr><td><div>1</div></td></tr><tr><td><div>0</div></td></tr></table></div></td></tr><tr><td style="font-weight:bold;vertical-align:top;">wsgi_errors</td><td style="vertical-align:top;">:</td><td><div>&lt;open file &#x27;&lt;stderr&gt;&#x27;, mode &#x27;w&#x27; at 0x01E1D0D0&gt;</div></td></tr><tr><td style="font-weight:bold;vertical-align:top;">wsgi_file_wrapper</td><td style="vertical-align:top;">:</td><td><div>&lt;class wsgiref.util.FileWrapper at 0x03CAED50&gt;</div></td></tr><tr><td style="font-weight:bold;vertical-align:top;">wsgi_input</td><td style="vertical-align:top;">:</td><td><div>&lt;socket._fileobject object at 0x0B2808B0&gt;</div></td></tr><tr><td style="font-weight:bold;vertical-align:top;">wsgi_multiprocess</td><td style="vertical-align:top;">:</td><td><div>False</div></td></tr><tr><td style="font-weight:bold;vertical-align:top;">wsgi_multithread</td><td style="vertical-align:top;">:</td><td><div>True</div></td></tr><tr><td style="font-weight:bold;vertical-align:top;">wsgi_run_once</td><td style="vertical-align:top;">:</td><td><div>False</div></td></tr><tr><td style="font-weight:bold;vertical-align:top;">wsgi_url_scheme</td><td style="vertical-align:top;">:</td><td><div>http</div></td></tr><tr><td style="font-weight:bold;vertical-align:top;">wsgi_version</td><td style="vertical-align:top;">:</td><td><div><table><tr><td><div>1</div></td></tr><tr><td><div>0</div></td></tr></table></div></td></tr></table></div></td></tr><tr><td style="font-weight:bold;vertical-align:top;">extension</td><td style="vertical-align:top;">:</td><td><div>html</div></td></tr><tr><td style="font-weight:bold;vertical-align:top;">folder</td><td style="vertical-align:top;">:</td><td><div>C:\\Users\\TecSUS-3\\Desktop\\template_site\\web2py\\applications\\site_two_alterado\\</div></td></tr><tr><td style="font-weight:bold;vertical-align:top;">function</td><td style="vertical-align:top;">:</td><td><div>Inicio</div></td></tr><tr><td style="font-weight:bold;vertical-align:top;">global_settings</td><td style="vertical-align:top;">:</td><td><div><table><tr><td style="font-weight:bold;vertical-align:top;">app_folders</td><td style="vertical-align:top;">:</td><td><div>set([&#x27;C:\\\\Users\\\\TecSUS-3\\\\Desktop\\\\template_site\\\\web2py\\\\applications\\\\admin\\\\&#x27;, &#x27;C:\\\\Users\\\\TecSUS-3\\\\Desktop\\\\template_site\\\\web2py\\\\applications\\\\site_two_alterado\\\\&#x27;, &#x27;C:\\\\Users\\\\TecSUS-3\\\\Desktop\\\\template_site\\\\web2py\\\\applications\\\\welcome\\\\&#x27;])</div></td></tr><tr><td style="font-weight:bold;vertical-align:top;">applications_parent</td><td style="vertical-align:top;">:</td><td><div>C:\\Users\\TecSUS-3\\Desktop\\template_site\\web2py</div></td></tr><tr><td style="font-weight:bold;vertical-align:top;">cmd_args</td><td style="vertical-align:top;">:</td><td><div><table></table></div></td></tr><tr><td style="font-weight:bold;vertical-align:top;">cmd_options</td><td style="vertical-align:top;">:</td><td><div>&lt;Values at 0x3d0fe90: {&#x27;verbose&#x27;: False, &#x27;ip&#x27;: &#x27;127.0.0.1&#x27;, &#x27;debuglevel&#x27;: 30, &#x27;with_scheduler&#x27;: False, &#x27;ips&#x27;: [&#x27;192.241.173.135&#x27;], &#x27;shutdown_timeout&#x27;: 5, &#x27;taskbar&#x27;: False, &#x27;with_coverage&#x27;: False, &#x27;scheduler_groups&#x27;: None, &#x27;port&#x27;: 8000, &#x27;maxthreads&#x27;: None, &#x27;softcron&#x27;: False, &#x27;server_name&#x27;: &#x27;TecSUS-3-PC&#x27;, &#x27;bpython&#x27;: False, &#x27;nogui&#x27;: False, &#x27;pid_filename&#x27;: &#x27;httpserver.pid&#x27;, &#x27;print_errors&#x27;: False, &#x27;extcron&#x27;: False, &#x27;runcron&#x27;: False, &#x27;run_system_tests&#x27;: False, &#x27;test&#x27;: None, &#x27;folder&#x27;: &#x27;C:\\\\Users\\\\TecSUS-3\\\\Desktop\\\\template_site\\\\web2py&#x27;, &#x27;config&#x27;: &#x27;&#x27;, &#x27;minthreads&#x27;: None, &#x27;shell&#x27;: None, &#x27;run&#x27;: &#x27;&#x27;, &#x27;log_filename&#x27;: &#x27;httpserver.log&#x27;, &#x27;profiler_dir&#x27;: None, &#x27;args&#x27;: [&#x27;&#x27;], &#x27;socket_timeout&#x27;: 5, &#x27;ssl_ca_certificate&#x27;: None, &#x27;scheduler&#x27;: None, &#x27;interfaces&#x27;: None, &#x27;ssl_private_key&#x27;: &#x27;&#x27;, &#x27;gae&#x27;: None, &#x27;password&#x27;: &#x27;&lt;ask&gt;&#x27;, &#x27;request_queue_size&#x27;: 5, &#x27;ssl_certificate&#x27;: &#x27;&#x27;, &#x27;cronjob&#x27;: False, &#x27;numthreads&#x27;: None, &#x27;quiet&#x27;: False, &#x27;import_models&#x27;: False, &#x27;timeout&#x27;: 10, &#x27;plain&#x27;: False, &#x27;nobanner&#x27;: False}&gt;</div></td></tr><tr><td style="font-weight:bold;vertical-align:top;">db_sessions</td><td style="vertical-align:top;">:</td><td><div>set([])</div></td></tr><tr><td style="font-weight:bold;vertical-align:top;">debugging</td><td style="vertical-align:top;">:</td><td><div>False</div></td></tr><tr><td style="font-weight:bold;vertical-align:top;">gluon_parent</td><td style="vertical-align:top;">:</td><td><div>C:\\Users\\TecSUS-3\\Desktop\\template_site\\web2py</div></td></tr><tr><td style="font-weight:bold;vertical-align:top;">is_jython</td><td style="vertical-align:top;">:</td><td><div>False</div></td></tr><tr><td style="font-weight:bold;vertical-align:top;">is_pypy</td><td style="vertical-align:top;">:</td><td><div>False</div></td></tr><tr><td style="font-weight:bold;vertical-align:top;">is_source</td><td style="vertical-align:top;">:</td><td><div>True</div></td></tr><tr><td style="font-weight:bold;vertical-align:top;">local_hosts</td><td style="vertical-align:top;">:</td><td><div><table><tr><td><div>192.241.173.135</div></td></tr><tr><td><div>fe80::487:2eff:2cf4:8cd6%11</div></td></tr><tr><td><div>TecSUS-3-PC</div></td></tr><tr><td><div>TecSUS-3-PC.tecsus.com.br</div></td></tr><tr><td><div>::ffff:127.0.0.1</div></td></tr><tr><td><div>::1</div></td></tr><tr><td><div>fe80::5efe:192.168.0.18%12</div></td></tr><tr><td><div>192.168.0.18</div></td></tr><tr><td><div>127.0.0.1</div></td></tr></table></div></td></tr><tr><td style="font-weight:bold;vertical-align:top;">web2py_version</td><td style="vertical-align:top;">:</td><td><div>2.10.4-stable+timestamp.2015.04.26.15.11.54</div></td></tr></table></div></td></tr><tr><td style="font-weight:bold;vertical-align:top;">is_https</td><td style="vertical-align:top;">:</td><td><div>False</div></td></tr><tr><td style="font-weight:bold;vertical-align:top;">is_local</td><td style="vertical-align:top;">:</td><td><div>True</div></td></tr><tr><td style="font-weight:bold;vertical-align:top;">is_restful</td><td style="vertical-align:top;">:</td><td><div>False</div></td></tr><tr><td style="font-weight:bold;vertical-align:top;">is_sheduler</td><td style="vertical-align:top;">:</td><td><div>None</div></td></tr><tr><td style="font-weight:bold;vertical-align:top;">is_shell</td><td style="vertical-align:top;">:</td><td><div>None</div></td></tr><tr><td style="font-weight:bold;vertical-align:top;">now</td><td style="vertical-align:top;">:</td><td><div>datetime.datetime(2015, 8, 26, 15, 13, 23, 823000)</div></td></tr><tr><td style="font-weight:bold;vertical-align:top;">raw_args</td><td style="vertical-align:top;">:</td><td><div></div></td></tr><tr><td style="font-weight:bold;vertical-align:top;">raw_extension</td><td style="vertical-align:top;">:</td><td><div>None</div></td></tr><tr><td style="font-weight:bold;vertical-align:top;">url</td><td style="vertical-align:top;">:</td><td><div>/site_two_alterado/Veiculo/Inicio</div></td></tr><tr><td style="font-weight:bold;vertical-align:top;">utcnow</td><td style="vertical-align:top;">:</td><td><div>datetime.datetime(2015, 8, 26, 18, 13, 23, 823000)</div></td></tr><tr><td style="font-weight:bold;vertical-align:top;">uuid</td><td style="vertical-align:top;">:</td><td><div>site_two_alterado/127.0.0.1.2015-08-26.15-13-23.e4a13e91-7481-4ffe-b002-041f758da50e</div></td></tr><tr><td style="font-weight:bold;vertical-align:top;">wsgi</td><td style="vertical-align:top;">:</td><td><div>&lt;gluon.main.LazyWSGI object at 0x0B289BB0&gt;</div></td></tr></table></div>'
tRp58
sS'frames'
p59
(lp60
(dp61
S'file'
p62
S'C:\\Users\\TecSUS-3\\Desktop\\template_site\\web2py\\gluon\\restricted.py'
p63
sS'dump'
p64
(dp65
S'environment'
p66
S"{'A': <class 'gluon.html.A'>, 'ANY_OF': <class 'gluon.validators.ANY_OF'>, 'ASSIGNJS': <function ASSIGNJS>, 'AppConfig': <function AppConfig>, 'Auth': <class 'gluon.tools.Auth'>, 'B': <class 'gluon.html.B'>, 'BEAUTIFY': <class 'gluon.html.BEAUTIFY'>, 'BODY': <class 'gluon.html.BODY'>, 'BR': <class 'gluon.html.BR'>, 'BUTTON': <class 'gluon.html.BUTTON'>, ...}"
p67
sS'ccode'
p68
S'<code object <module> at 0B042A88, file "C:\\User...ite_two_alterado\\controllers/Veiculo.py", line 1>'
p69
ssS'lnum'
p70
I227
sS'lines'
p71
(dp72
I224
S'            ccode = code'
p73
sI225
S'        else:'
p74
sI226
S'            ccode = compile2(code, layer)'
p75
sI227
S'        exec ccode in environment'
p76
sI228
S'    except HTTP:'
p77
sI229
S'        raise'
p78
sI230
S'    except RestrictedError:'
p79
sI231
S'        # do not encapsulate (obfuscate) the original RestrictedError'
p80
sI222
S'    try:'
p81
sI223
S'        if isinstance(code, types.CodeType):'
p82
ssS'call'
p83
S'(code="__author__ = \'TecSUS-3\'\\n\\n#######################...locals()\\nresponse._vars=response._caller(Inicio)\\n", environment={\'A\': <class \'gluon.html.A\'>, \'ANY_OF\': <class \'gluon.validators.ANY_OF\'>, \'ASSIGNJS\': <function ASSIGNJS>, \'AppConfig\': <function AppConfig>, \'Auth\': <class \'gluon.tools.Auth\'>, \'B\': <class \'gluon.html.B\'>, \'BEAUTIFY\': <class \'gluon.html.BEAUTIFY\'>, \'BODY\': <class \'gluon.html.BODY\'>, \'BR\': <class \'gluon.html.BR\'>, \'BUTTON\': <class \'gluon.html.BUTTON\'>, ...}, layer=r\'C:\\Users\\TecSUS-3\\Desktop\\template_site\\web2py\\applications\\site_two_alterado\\controllers/Veiculo.py\')'
p84
sS'func'
p85
S'restricted'
p86
sa(dp87
g62
S'C:\\Users\\TecSUS-3\\Desktop\\template_site\\web2py\\applications\\site_two_alterado\\controllers\\Veiculo.py'
p88
sg64
(dp89
S'auth2.requires_membership'
p90
S'<bound method Auth.requires_membership of <gluon.tools.Auth object>>'
p91
sS'auth2'
p92
S'<gluon.tools.Auth object>'
p93
sS'name'
p94
S'undefined'
p95
ssg70
I309
sg71
(dp96
I304
S''
sI305
S'    (form_crud,table_crud) = pesquisa_geral(db2.marca)'
p97
sI306
S''
sI307
S'    return locals()'
p98
sI308
S''
sI309
S"@auth2.requires_membership(name = 'read')"
p99
sI310
S'def carro():'
p100
sI311
S''
sI312
S'    title = "Cadastro de Carros"'
p101
sI313
S''
ssg83
S'()'
p102
sg85
S'<module>'
p103
sasS'pyver'
p104
S'Python 2.7.8: C:\\Python27\\python.exe (prefix: C:\\Python27)'
p105
sS'session'
p106
g57
(S's\xc1\x02\x00\x00<div><table><tr><td style="font-weight:bold;vertical-align:top;">counter</td><td style="vertical-align:top;">:</td><td><div>15</div></td></tr><tr><td style="font-weight:bold;vertical-align:top;">flash</td><td style="vertical-align:top;">:</td><td><div></div></td></tr><tr><td style="font-weight:bold;vertical-align:top;">flashed</td><td style="vertical-align:top;">:</td><td><div>False</div></td></tr><tr><td style="font-weight:bold;vertical-align:top;">last_orderby</td><td style="vertical-align:top;">:</td><td><div>None</div></td></tr><tr><td style="font-weight:bold;vertical-align:top;">last_query</td><td style="vertical-align:top;">:</td><td><div>db2.auth_group.id&gt;0</div></td></tr></table></div>'
tRp107
sS'etype'
p108
S"<type 'exceptions.TypeError'>"
p109
sS'date'
p110
S'Wed Aug 26 15:13:24 2015'
p111
sS'response'
p112
g57
(S's\xa9T\x00\x00<div><table><tr><td style="font-weight:bold;vertical-align:top;">MeuMenu</td><td style="vertical-align:top;">:</td><td><div><table><tr><td><div><table><tr><td><div>Principal</div></td></tr><tr><td><div>False</div></td></tr><tr><td><div>http://127.0.0.1:8000/site_two_alterado/Veiculo/Inicio</div></td></tr></table></div></td></tr><tr><td><div><table><tr><td><div>Cadastro de Comprador</div></td></tr><tr><td><div>False</div></td></tr><tr><td><div>http://127.0.0.1:8000/site_two_alterado/Veiculo/comprador</div></td></tr></table></div></td></tr><tr><td><div><table><tr><td><div>Cadastro de Carro</div></td></tr><tr><td><div>False</div></td></tr><tr><td><div>http://127.0.0.1:8000/site_two_alterado/Veiculo/carro</div></td></tr></table></div></td></tr><tr><td><div><table><tr><td><div>Cadastro de Vendedor</div></td></tr><tr><td><div>False</div></td></tr><tr><td><div>http://127.0.0.1:8000/site_two_alterado/Veiculo/vendedor</div></td></tr></table></div></td></tr><tr><td><div><table><tr><td><div>Cadastro de Marca</div></td></tr><tr><td><div>False</div></td></tr><tr><td><div>http://127.0.0.1:8000/site_two_alterado/Veiculo/marca</div></td></tr></table></div></td></tr><tr><td><div><table><tr><td><div>Admin</div></td></tr><tr><td><div>False</div></td></tr><tr><td><div>http://127.0.0.1:8000/site_two_alterado/Veiculo/admin</div></td></tr></table></div></td></tr><tr><td><div><table><tr><td><div>Venda</div></td></tr><tr><td><div>False</div></td></tr><tr><td><div>http://127.0.0.1:8000/site_two_alterado/Veiculo/venda</div></td></tr></table></div></td></tr><tr><td><div><table><tr><td><div>Contato</div></td></tr><tr><td><div>False</div></td></tr><tr><td><div>http://127.0.0.1:8000/site_two_alterado/Veiculo/send_email</div></td></tr></table></div></td></tr><tr><td><div><table><tr><td><div>Autentique-se</div></td></tr><tr><td><div>False</div></td></tr><tr><td><div>http://127.0.0.1:8000/site_two_alterado/Veiculo/meu_user</div></td></tr></table></div></td></tr></table></div></td></tr><tr><td style="font-weight:bold;vertical-align:top;">body</td><td style="vertical-align:top;">:</td><td><div>&lt;cStringIO.StringO object at 0x09E19500&gt;</div></td></tr><tr><td style="font-weight:bold;vertical-align:top;">cookies</td><td style="vertical-align:top;">:</td><td><div><table><tr><td style="font-weight:bold;vertical-align:top;">session_id_site_two_alterado</td><td style="vertical-align:top;">:</td><td><div>127.0.0.1-f7bb48da-bbfc-47db-987c-d381661c8a3c<table><tr><td style="font-weight:bold;vertical-align:top;">comment</td><td style="vertical-align:top;">:</td><td><div></div></td></tr><tr><td style="font-weight:bold;vertical-align:top;">domain</td><td style="vertical-align:top;">:</td><td><div></div></td></tr><tr><td style="font-weight:bold;vertical-align:top;">expires</td><td style="vertical-align:top;">:</td><td><div></div></td></tr><tr><td style="font-weight:bold;vertical-align:top;">httponly</td><td style="vertical-align:top;">:</td><td><div></div></td></tr><tr><td style="font-weight:bold;vertical-align:top;">max-age</td><td style="vertical-align:top;">:</td><td><div></div></td></tr><tr><td style="font-weight:bold;vertical-align:top;">path</td><td style="vertical-align:top;">:</td><td><div>/</div></td></tr><tr><td style="font-weight:bold;vertical-align:top;">secure</td><td style="vertical-align:top;">:</td><td><div></div></td></tr><tr><td style="font-weight:bold;vertical-align:top;">version</td><td style="vertical-align:top;">:</td><td><div></div></td></tr></table></div></td></tr></table></div></td></tr><tr><td style="font-weight:bold;vertical-align:top;">delimiters</td><td style="vertical-align:top;">:</td><td><div><table><tr><td><div>{{</div></td></tr><tr><td><div>}}</div></td></tr></table></div></td></tr><tr><td style="font-weight:bold;vertical-align:top;">files</td><td style="vertical-align:top;">:</td><td><div><table></table></div></td></tr><tr><td style="font-weight:bold;vertical-align:top;">flash</td><td style="vertical-align:top;">:</td><td><div></div></td></tr><tr><td style="font-weight:bold;vertical-align:top;">form_label_separator</td><td style="vertical-align:top;">:</td><td><div></div></td></tr><tr><td style="font-weight:bold;vertical-align:top;">formstyle</td><td style="vertical-align:top;">:</td><td><div>bootstrap3_inline</div></td></tr><tr><td style="font-weight:bold;vertical-align:top;">generic_patterns</td><td style="vertical-align:top;">:</td><td><div><table><tr><td><div>*</div></td></tr></table></div></td></tr><tr><td style="font-weight:bold;vertical-align:top;">google_analytics_id</td><td style="vertical-align:top;">:</td><td><div>None</div></td></tr><tr><td style="font-weight:bold;vertical-align:top;">headers</td><td style="vertical-align:top;">:</td><td><div><table><tr><td style="font-weight:bold;vertical-align:top;">X-Powered-By</td><td style="vertical-align:top;">:</td><td><div>web2py</div></td></tr></table></div></td></tr><tr><td style="font-weight:bold;vertical-align:top;">logo</td><td style="vertical-align:top;">:</td><td><div><a class="navbar-brand" href="http://www.web2py.com/" id="web2py-logo"><b>web<span>2</span>py</b>&trade;&nbsp;</a></div></td></tr><tr><td style="font-weight:bold;vertical-align:top;">menu</td><td style="vertical-align:top;">:</td><td><div><table><tr><td><div><table><tr><td><div>Principal</div></td></tr><tr><td><div>False</div></td></tr><tr><td><div>/site_two_alterado/default/index</div></td></tr><tr><td><div><table></table></div></td></tr></table></div></td></tr><tr><td><div><table><tr><td><div>Meus sites</div></td></tr><tr><td><div>False</div></td></tr><tr><td><div>/admin/default/site</div></td></tr></table></div></td></tr><tr><td><div><table><tr><td><div>Esta aplica\xc3\xa7\xc3\xa3o</div></td></tr><tr><td><div>False</div></td></tr><tr><td><div>#</div></td></tr><tr><td><div><table><tr><td><div><table><tr><td><div>Design</div></td></tr><tr><td><div>False</div></td></tr><tr><td><div>/admin/default/design/site_two_alterado</div></td></tr></table></div></td></tr><tr><td><div><li class="divider"></li></div></td></tr><tr><td><div><table><tr><td><div>Controlador</div></td></tr><tr><td><div>False</div></td></tr><tr><td><div>/admin/default/edit/site_two_alterado/controllers/Veiculo.py</div></td></tr></table></div></td></tr><tr><td><div><table><tr><td><div>Visualiza\xc3\xa7\xc3\xa3o</div></td></tr><tr><td><div>False</div></td></tr><tr><td><div>/admin/default/edit/site_two_alterado/views/Veiculo/Inicio.html</div></td></tr></table></div></td></tr><tr><td><div><table><tr><td><div>Modelo BD</div></td></tr><tr><td><div>False</div></td></tr><tr><td><div>/admin/default/edit/site_two_alterado/models/db.py</div></td></tr></table></div></td></tr><tr><td><div><table><tr><td><div>Modelo de Menu</div></td></tr><tr><td><div>False</div></td></tr><tr><td><div>/admin/default/edit/site_two_alterado/models/menu.py</div></td></tr></table></div></td></tr><tr><td><div><table><tr><td><div>Config.ini</div></td></tr><tr><td><div>False</div></td></tr><tr><td><div>/admin/default/edit/site_two_alterado/private/appconfig.ini</div></td></tr></table></div></td></tr><tr><td><div><table><tr><td><div>Layout</div></td></tr><tr><td><div>False</div></td></tr><tr><td><div>/admin/default/edit/site_two_alterado/views/layout.html</div></td></tr></table></div></td></tr><tr><td><div><table><tr><td><div>Folha de estilo</div></td></tr><tr><td><div>False</div></td></tr><tr><td><div>/admin/default/edit/site_two_alterado/static/css/web2py-bootstrap3.css</div></td></tr></table></div></td></tr><tr><td><div><table><tr><td><div>banco de dados</div></td></tr><tr><td><div>False</div></td></tr><tr><td><div>/site_two_alterado/appadmin/index</div></td></tr></table></div></td></tr><tr><td><div><table><tr><td><div>Erros</div></td></tr><tr><td><div>False</div></td></tr><tr><td><div>/admin/default/errors/site_two_alterado</div></td></tr></table></div></td></tr><tr><td><div><table><tr><td><div>Sobre</div></td></tr><tr><td><div>False</div></td></tr><tr><td><div>/admin/default/about/site_two_alterado</div></td></tr></table></div></td></tr></table></div></td></tr></table></div></td></tr><tr><td><div><table><tr><td><div>web2py.com</div></td></tr><tr><td><div>False</div></td></tr><tr><td><div>#</div></td></tr><tr><td><div><table><tr><td><div><table><tr><td><div>Download</div></td></tr><tr><td><div>False</div></td></tr><tr><td><div>http://www.web2py.com/examples/default/download</div></td></tr></table></div></td></tr><tr><td><div><table><tr><td><div>Suporte</div></td></tr><tr><td><div>False</div></td></tr><tr><td><div>http://www.web2py.com/examples/default/support</div></td></tr></table></div></td></tr><tr><td><div><table><tr><td><div>Demo</div></td></tr><tr><td><div>False</div></td></tr><tr><td><div>http://web2py.com/demo_admin</div></td></tr></table></div></td></tr><tr><td><div><table><tr><td><div>Exemplos r\xc3\xa1pidos</div></td></tr><tr><td><div>False</div></td></tr><tr><td><div>http://web2py.com/examples/default/examples</div></td></tr></table></div></td></tr><tr><td><div><table><tr><td><div>Perguntas frequentes</div></td></tr><tr><td><div>False</div></td></tr><tr><td><div>http://web2py.com/AlterEgo</div></td></tr></table></div></td></tr><tr><td><div><table><tr><td><div>V\xc3\xaddeos</div></td></tr><tr><td><div>False</div></td></tr><tr><td><div>http://www.web2py.com/examples/default/videos/</div></td></tr></table></div></td></tr><tr><td><div><table><tr><td><div>Aplica\xc3\xa7\xc3\xb5es gratuitas</div></td></tr><tr><td><div>False</div></td></tr><tr><td><div>http://web2py.com/appliances</div></td></tr></table></div></td></tr><tr><td><div><table><tr><td><div>Plugins</div></td></tr><tr><td><div>False</div></td></tr><tr><td><div>http://web2py.com/plugins</div></td></tr></table></div></td></tr><tr><td><div><table><tr><td><div>Receitas</div></td></tr><tr><td><div>False</div></td></tr><tr><td><div>http://web2pyslices.com/</div></td></tr></table></div></td></tr></table></div></td></tr></table></div></td></tr><tr><td><div><table><tr><td><div>Documenta\xc3\xa7\xc3\xa3o</div></td></tr><tr><td><div>False</div></td></tr><tr><td><div>#</div></td></tr><tr><td><div><table><tr><td><div><table><tr><td><div>Online book</div></td></tr><tr><td><div>False</div></td></tr><tr><td><div>http://www.web2py.com/book</div></td></tr></table></div></td></tr><tr><td><div><li class="divider"></li></div></td></tr><tr><td><div><table><tr><td><div>Pref\xc3\xa1cio</div></td></tr><tr><td><div>False</div></td></tr><tr><td><div>http://www.web2py.com/book/default/chapter/00</div></td></tr></table></div></td></tr><tr><td><div><table><tr><td><div>Introdu\xc3\xa7\xc3\xa3o</div></td></tr><tr><td><div>False</div></td></tr><tr><td><div>http://www.web2py.com/book/default/chapter/01</div></td></tr></table></div></td></tr><tr><td><div><table><tr><td><div>Python</div></td></tr><tr><td><div>False</div></td></tr><tr><td><div>http://www.web2py.com/book/default/chapter/02</div></td></tr></table></div></td></tr><tr><td><div><table><tr><td><div>Vis\xc3\xa3o Geral</div></td></tr><tr><td><div>False</div></td></tr><tr><td><div>http://www.web2py.com/book/default/chapter/03</div></td></tr></table></div></td></tr><tr><td><div><table><tr><td><div>The Core</div></td></tr><tr><td><div>False</div></td></tr><tr><td><div>http://www.web2py.com/book/default/chapter/04</div></td></tr></table></div></td></tr><tr><td><div><table><tr><td><div>As views</div></td></tr><tr><td><div>False</div></td></tr><tr><td><div>http://www.web2py.com/book/default/chapter/05</div></td></tr></table></div></td></tr><tr><td><div><table><tr><td><div>banco de dados</div></td></tr><tr><td><div>False</div></td></tr><tr><td><div>http://www.web2py.com/book/default/chapter/06</div></td></tr></table></div></td></tr><tr><td><div><table><tr><td><div>Formul\xc3\xa1rios e Validadores</div></td></tr><tr><td><div>False</div></td></tr><tr><td><div>http://www.web2py.com/book/default/chapter/07</div></td></tr></table></div></td></tr><tr><td><div><table><tr><td><div>Email e SMS</div></td></tr><tr><td><div>False</div></td></tr><tr><td><div>http://www.web2py.com/book/default/chapter/08</div></td></tr></table></div></td></tr><tr><td><div><table><tr><td><div>Controle de Acesso</div></td></tr><tr><td><div>False</div></td></tr><tr><td><div>http://www.web2py.com/book/default/chapter/09</div></td></tr></table></div></td></tr><tr><td><div><table><tr><td><div>Servi\xc3\xa7o</div></td></tr><tr><td><div>False</div></td></tr><tr><td><div>http://www.web2py.com/book/default/chapter/10</div></td></tr></table></div></td></tr><tr><td><div><table><tr><td><div>Receitas de Ajax</div></td></tr><tr><td><div>False</div></td></tr><tr><td><div>http://www.web2py.com/book/default/chapter/11</div></td></tr></table></div></td></tr><tr><td><div><table><tr><td><div>Componentes e Plugins</div></td></tr><tr><td><div>False</div></td></tr><tr><td><div>http://www.web2py.com/book/default/chapter/12</div></td></tr></table></div></td></tr><tr><td><div><table><tr><td><div>Receitas de deploy</div></td></tr><tr><td><div>False</div></td></tr><tr><td><div>http://www.web2py.com/book/default/chapter/13</div></td></tr></table></div></td></tr><tr><td><div><table><tr><td><div>Outras Receitas</div></td></tr><tr><td><div>False</div></td></tr><tr><td><div>http://www.web2py.com/book/default/chapter/14</div></td></tr></table></div></td></tr><tr><td><div><table><tr><td><div>Helping web2py</div></td></tr><tr><td><div>False</div></td></tr><tr><td><div>http://www.web2py.com/book/default/chapter/15</div></td></tr></table></div></td></tr><tr><td><div><table><tr><td><div>Buy web2py\'s book</div></td></tr><tr><td><div>False</div></td></tr><tr><td><div>http://stores.lulu.com/web2py</div></td></tr></table></div></td></tr></table></div></td></tr></table></div></td></tr><tr><td><div><table><tr><td><div>Comunidade</div></td></tr><tr><td><div>False</div></td></tr><tr><td><div>None</div></td></tr><tr><td><div><table><tr><td><div><table><tr><td><div>Grupos</div></td></tr><tr><td><div>False</div></td></tr><tr><td><div>http://www.web2py.com/examples/default/usergroups</div></td></tr></table></div></td></tr><tr><td><div><table><tr><td><div>Twitter</div></td></tr><tr><td><div>False</div></td></tr><tr><td><div>http://twitter.com/web2py</div></td></tr></table></div></td></tr><tr><td><div><table><tr><td><div>Chat ao vivo</div></td></tr><tr><td><div>False</div></td></tr><tr><td><div>http://webchat.freenode.net/?channels=web2py</div></td></tr></table></div></td></tr></table></div></td></tr></table></div></td></tr><tr><td><div><table><tr><td><div>Minha Pagina Teste</div></td></tr><tr><td><div>False</div></td></tr><tr><td><div>None</div></td></tr><tr><td><div><table><tr><td><div><table><tr><td><div>Forms - accessories grid</div></td></tr><tr><td><div>False</div></td></tr><tr><td><div>http://127.0.0.1:8000/site_two_alterado/forms/accessories_grid_selectable.html</div></td></tr></table></div></td></tr><tr><td><div><table><tr><td><div>Forms - accessories crud</div></td></tr><tr><td><div>False</div></td></tr><tr><td><div>http://127.0.0.1:8000/site_two_alterado/forms/accessory_crud</div></td></tr></table></div></td></tr><tr><td><div><table><tr><td><div>Forms - car model</div></td></tr><tr><td><div>False</div></td></tr><tr><td><div>http://127.0.0.1:8000/site_two_alterado/forms/car_model_form</div></td></tr></table></div></td></tr><tr><td><div><table><tr><td><div>Forms - sale</div></td></tr><tr><td><div>False</div></td></tr><tr><td><div>http://127.0.0.1:8000/site_two_alterado/forms/sale_sqlform_factory</div></td></tr></table></div></td></tr><tr><td><div><table><tr><td><div>Forms - vendor</div></td></tr><tr><td><div>False</div></td></tr><tr><td><div>http://127.0.0.1:8000/site_two_alterado/forms/vendor_sqlform</div></td></tr></table></div></td></tr><tr><td><div><li class="divider"></li></div></td></tr><tr><td><div><table><tr><td><div>Lista grid</div></td></tr><tr><td><div>False</div></td></tr><tr><td><div>http://127.0.0.1:8000/site_two_alterado/grids/database_lists_grid</div></td></tr></table></div></td></tr><tr><td><div><table><tr><td><div>Lista smartgrid</div></td></tr><tr><td><div>False</div></td></tr><tr><td><div>http://127.0.0.1:8000/site_two_alterado/grids/database_lists_smartgrid</div></td></tr></table></div></td></tr><tr><td><div><li class="divider"></li></div></td></tr><tr><td><div><table><tr><td><div>Nova Manual</div></td></tr><tr><td><div>False</div></td></tr><tr><td><div>http://127.0.0.1:8000/site_two_alterado/NovaManual/NovaManual</div></td></tr></table></div></td></tr></table></div></td></tr></table></div></td></tr><tr><td><div><table><tr><td><div>Apostila</div></td></tr><tr><td><div>False</div></td></tr><tr><td><div>None</div></td></tr><tr><td><div><table><tr><td><div><table><tr><td><div>Gerais</div></td></tr><tr><td><div>False</div></td></tr><tr><td><div>http://127.0.0.1:8000/site_two_alterado/Apostila/Apostila</div></td></tr></table></div></td></tr><tr><td><div><li class="divider"></li></div></td></tr><tr><td><div><table><tr><td><div>Banco de Dados</div></td></tr><tr><td><div>False</div></td></tr><tr><td><div>http://127.0.0.1:8000/site_two_alterado/Apostila/BD_Apostila</div></td></tr></table></div></td></tr></table></div></td></tr></table></div></td></tr><tr><td><div><table><tr><td><div>Loja de carros</div></td></tr><tr><td><div>False</div></td></tr><tr><td><div>None</div></td></tr><tr><td><div><table><tr><td><div><table><tr><td><div>Inicial</div></td></tr><tr><td><div>False</div></td></tr><tr><td><div>http://127.0.0.1:8000/site_two_alterado/Veiculo/Inicio</div></td></tr></table></div></td></tr></table></div></td></tr></table></div></td></tr></table></div></td></tr><tr><td style="font-weight:bold;vertical-align:top;">meta</td><td style="vertical-align:top;">:</td><td><div><table><tr><td style="font-weight:bold;vertical-align:top;">author</td><td style="vertical-align:top;">:</td><td><div>Your Name &lt;you@example.com&gt;</div></td></tr><tr><td style="font-weight:bold;vertical-align:top;">description</td><td style="vertical-align:top;">:</td><td><div>a cool new app</div></td></tr><tr><td style="font-weight:bold;vertical-align:top;">generator</td><td style="vertical-align:top;">:</td><td><div>Web2py Web Framework</div></td></tr><tr><td style="font-weight:bold;vertical-align:top;">keywords</td><td style="vertical-align:top;">:</td><td><div>web2py, python, framework</div></td></tr></table></div></td></tr><tr><td style="font-weight:bold;vertical-align:top;">models_to_run</td><td style="vertical-align:top;">:</td><td><div><table><tr><td><div>^\\w+\\.py$</div></td></tr><tr><td><div>^Veiculo/\\w+\\.py$</div></td></tr><tr><td><div>^Veiculo/Inicio/\\w+\\.py$</div></td></tr></table></div></td></tr><tr><td style="font-weight:bold;vertical-align:top;">postprocessing</td><td style="vertical-align:top;">:</td><td><div><table></table></div></td></tr><tr><td style="font-weight:bold;vertical-align:top;">session_client</td><td style="vertical-align:top;">:</td><td><div>127.0.0.1</div></td></tr><tr><td style="font-weight:bold;vertical-align:top;">session_cookie_compression_level</td><td style="vertical-align:top;">:</td><td><div>None</div></td></tr><tr><td style="font-weight:bold;vertical-align:top;">session_cookie_expires</td><td style="vertical-align:top;">:</td><td><div>None</div></td></tr><tr><td style="font-weight:bold;vertical-align:top;">session_cookie_key</td><td style="vertical-align:top;">:</td><td><div>None</div></td></tr><tr><td style="font-weight:bold;vertical-align:top;">session_data_name</td><td style="vertical-align:top;">:</td><td><div>session_data_site_two_alterado</div></td></tr><tr><td style="font-weight:bold;vertical-align:top;">session_file</td><td style="vertical-align:top;">:</td><td><div>&lt;open file &#x27;C:\\\\Users\\\\TecSUS-3\\\\Desktop\\\\template_site\\\\web2py\\\\applications\\\\site_two_alterado\\\\sessions\\\\126\\\\11a\\\\127.0.0.1-f7bb48da-bbfc-47db-987c-d381661c8a3c&#x27;, mode &#x27;rb+&#x27; at 0x0A7E4808&gt;</div></td></tr><tr><td style="font-weight:bold;vertical-align:top;">session_filename</td><td style="vertical-align:top;">:</td><td><div>C:\\Users\\TecSUS-3\\Desktop\\template_site\\web2py\\applications\\site_two_alterado\\sessions\\127.0.0.1-f7bb48da-bbfc-47db-987c-d381661c8a3c</div></td></tr><tr><td style="font-weight:bold;vertical-align:top;">session_hash</td><td style="vertical-align:top;">:</td><td><div>da59a6e7bf2c77bb11a1e7624377be31</div></td></tr><tr><td style="font-weight:bold;vertical-align:top;">session_id</td><td style="vertical-align:top;">:</td><td><div>127.0.0.1-f7bb48da-bbfc-47db-987c-d381661c8a3c</div></td></tr><tr><td style="font-weight:bold;vertical-align:top;">session_id_name</td><td style="vertical-align:top;">:</td><td><div>session_id_site_two_alterado</div></td></tr><tr><td style="font-weight:bold;vertical-align:top;">session_locked</td><td style="vertical-align:top;">:</td><td><div>True</div></td></tr><tr><td style="font-weight:bold;vertical-align:top;">session_masterapp</td><td style="vertical-align:top;">:</td><td><div>site_two_alterado</div></td></tr><tr><td style="font-weight:bold;vertical-align:top;">session_new</td><td style="vertical-align:top;">:</td><td><div>False</div></td></tr><tr><td style="font-weight:bold;vertical-align:top;">session_storage_type</td><td style="vertical-align:top;">:</td><td><div>file</div></td></tr><tr><td style="font-weight:bold;vertical-align:top;">status</td><td style="vertical-align:top;">:</td><td><div>200</div></td></tr><tr><td style="font-weight:bold;vertical-align:top;">subtitle</td><td style="vertical-align:top;">:</td><td><div></div></td></tr><tr><td style="font-weight:bold;vertical-align:top;">title</td><td style="vertical-align:top;">:</td><td><div>Site Two Alterado</div></td></tr><tr><td style="font-weight:bold;vertical-align:top;">view</td><td style="vertical-align:top;">:</td><td><div>Veiculo/Inicio.html</div></td></tr></table></div>'
tRp113
sS'locals'
p114
(dp115
S'Service'
p116
S"<class 'gluon.tools.Service'>"
p117
sS'OBJECT'
p118
S"<class 'gluon.html.OBJECT'>"
p119
sS'SQLDB'
p120
S"<class 'pydal.base.DAL'>"
p121
sg106
S"<Storage {'counter': 15, '_formkey[marca/2]': ['...grid': '/site_two_alterado/veiculo/marca/marca'}>"
p122
sS'LINK'
p123
S"<class 'gluon.html.LINK'>"
p124
sS'BR'
p125
S"<class 'gluon.html.BR'>"
p126
sS'local_import'
p127
S'<function <lambda>>'
p128
sS'OPTGROUP'
p129
S"<class 'gluon.html.OPTGROUP'>"
p130
sS'LI'
p131
S"<class 'gluon.html.LI'>"
p132
sS'PRE'
p133
S"<class 'gluon.html.PRE'>"
p134
sS'IS_INT_IN_RANGE'
p135
S"<class 'gluon.validators.IS_INT_IN_RANGE'>"
p136
sS'MyList'
p137
S"<class '__restricted__.MyList'>"
p138
sS'IS_LOWER'
p139
S"<class 'gluon.validators.IS_LOWER'>"
p140
sS'IS_STRONG'
p141
S"<class 'gluon.validators.IS_STRONG'>"
p142
sS'cache'
p143
S'<gluon.cache.Cache object>'
p144
sS'IS_IN_DB'
p145
S"<class 'gluon.validators.IS_IN_DB'>"
p146
sS'TAG'
p147
S'<gluon.html.__TAG__ object>'
p148
sS'SQLField'
p149
S"<class 'pydal.objects.Field'>"
p150
sS'mail'
p151
S'<gluon.tools.Mail object>'
p152
sS'BODY'
p153
S"<class 'gluon.html.BODY'>"
p154
sS'IS_DATE_IN_RANGE'
p155
S"<class 'gluon.validators.IS_DATE_IN_RANGE'>"
p156
sS'TH'
p157
S"<class 'gluon.html.TH'>"
p158
sS'URL'
p159
S'<function URL>'
p160
sS'__file__'
p161
S"r'C:\\Users\\TecSUS-3\\Desktop\\template_site\\web2py\\applications\\site_two_alterado\\controllers/Veiculo.py'"
p162
sS'db'
p163
S'<DAL uri="sqlite://storage.sqlite">'
p164
sS'marca'
p165
S'<function marca>'
p166
sS'auth'
p167
S'<gluon.tools.Auth object>'
p168
sS'P'
S"<class 'gluon.html.P'>"
p169
sS'TFOOT'
p170
S"<class 'gluon.html.TFOOT'>"
p171
sS'XHTML'
p172
S"<class 'gluon.html.XHTML'>"
p173
sS'db2'
p174
S'<DAL uri="sqlite://storage.sqlite">'
p175
sS'ON'
p176
S'True'
p177
sS'OL'
p178
S"<class 'gluon.html.OL'>"
p179
sS'TEXTAREA'
p180
S"<class 'gluon.html.TEXTAREA'>"
p181
sS'MENU'
p182
S"<class 'gluon.html.MENU'>"
p183
sS'IS_LIST_OF'
p184
S"<class 'gluon.validators.IS_LIST_OF'>"
p185
sS'meu_grupo'
p186
S'<function meu_grupo>'
p187
sS'estados'
p188
S"('Novo', 'Usado')"
p189
sS'e_m'
p190
S"{'email': 'Voc\\xc3\\xaa precisa inserir um e-mail v\\xc3\\xa1lido', 'empty': 'Este campo \\xc3\\xa9 obrigat\\xc3\\xb3rio', 'image': 'O arquivo precisa ser uma imagem v\\xc3\\xa1lida', 'in_db': 'Este registro j\\xc3\\xa1 existe no banco de dados', 'not_in_db': 'Este registro n\\xc3\\xa3o existe no banco de dados', 'not_in_range': 'Digite um n\\xc3\\xbamero entre %(min)s e %(max)s', 'not_in_set': 'Voc\\xc3\\xaa precisa escolher um valor v\\xc3\\xa1lido'}"
p191
sS'LOAD'
p192
S'<function LOAD>'
p193
sS'CODE'
p194
S"<class 'gluon.html.CODE'>"
p195
sS'HTTP'
p196
S"<class 'gluon.http.HTTP'>"
p197
sS'HR'
p198
S"<class 'gluon.html.HR'>"
p199
sS'Inicio'
p200
S'<function Inicio>'
p201
sS'HEAD'
p202
S"<class 'gluon.html.HEAD'>"
p203
sS'LABEL'
p204
S"<class 'gluon.html.LABEL'>"
p205
sS'CLEANUP'
p206
S"<class 'gluon.validators.CLEANUP'>"
p207
sS'plugins'
p208
S'<gluon.tools.PluginManager object>'
p209
sS'download'
p210
S'<function download>'
p211
sS'SELECT'
p212
S"<class 'gluon.html.SELECT'>"
p213
sS'venda'
p214
S'<function venda>'
p215
sS'CENTER'
p216
S"<class 'gluon.html.CENTER'>"
p217
sS'meu_membros'
p218
S'<function meu_membros>'
p219
sS'Crud'
p220
S"<class 'gluon.tools.Crud'>"
p221
sS'Auth'
p222
S"<class 'gluon.tools.Auth'>"
p223
sS'DEVELOPMENT_MENU'
p224
g177
sS'__builtins__'
p225
S"{'ArithmeticError': <type 'exceptions.ArithmeticError'>, 'AssertionError': <type 'exceptions.AssertionError'>, 'AttributeError': <type 'exceptions.AttributeError'>, 'BaseException': <type 'exceptions.BaseException'>, 'BufferError': <type 'exceptions.BufferError'>, 'BytesWarning': <type 'exceptions.BytesWarning'>, 'DeprecationWarning': <type 'exceptions.DeprecationWarning'>, 'EOFError': <type 'exceptions.EOFError'>, 'Ellipsis': Ellipsis, 'EnvironmentError': <type 'exceptions.EnvironmentError'>, ...}"
p226
sS'HTML'
p227
S"<class 'gluon.html.HTML'>"
p228
sS'SQLFORM'
p229
S"<class 'gluon.sqlhtml.SQLFORM'>"
p230
sS'minha_permissao'
p231
S'<function minha_permissao>'
p232
sS'EM'
p233
S"<class 'gluon.html.EM'>"
p234
sS'redirect'
p235
S'<function redirect>'
p236
sS'FIELDSET'
p237
S"<class 'gluon.html.FIELDSET'>"
p238
sS'IS_EQUAL_TO'
p239
S"<class 'gluon.validators.IS_EQUAL_TO'>"
p240
sS'pesquisa_geral'
p241
S'<function pesquisa_geral>'
p242
sS'embed64'
p243
S'<function embed64>'
p244
sS'config'
p245
S"{'dscsite': 'S\\xc3\\xb3 os melhores carros', 'nmsite': 'Loja de Carro'}"
p246
sS'__name__'
p247
S"'__restricted__'"
p248
sS'EMBED'
p249
S"<class 'gluon.html.EMBED'>"
p250
sS'_'
S'<function _>'
p251
sS'FORM'
p252
S"<class 'gluon.html.FORM'>"
p253
sS'IS_DATETIME'
p254
S"<class 'gluon.validators.IS_DATETIME'>"
p255
sS'myconf'
p256
S"{'forms': {'formstyle': 'bootstrap3_inline', 'se...csus@gmail.com', 'server': 'smtp.gmail.com:587'}}"
p257
sS'H2'
p258
S"<class 'gluon.html.H2'>"
p259
sS'H3'
p260
S"<class 'gluon.html.H3'>"
p261
sS'AppConfig'
p262
S'<function AppConfig>'
p263
sS'SCRIPT'
p264
S"<class 'gluon.html.SCRIPT'>"
p265
sS'H6'
p266
S"<class 'gluon.html.H6'>"
p267
sS'comprador'
p268
S'<function comprador>'
p269
sS'H4'
p270
S"<class 'gluon.html.H4'>"
p271
sS'H5'
p272
S"<class 'gluon.html.H5'>"
p273
sS'UL'
p274
S"<class 'gluon.html.UL'>"
p275
sS'IS_UPPER'
p276
S"<class 'gluon.validators.IS_UPPER'>"
p277
sS'IS_LIST_OF_EMAILS'
p278
S"<class 'gluon.validators.IS_LIST_OF_EMAILS'>"
p279
sS'xmlescape'
p280
S'<function xmlescape>'
p281
sS'IS_TIME'
p282
S"<class 'gluon.validators.IS_TIME'>"
p283
sS'OPTION'
p284
S"<class 'gluon.html.OPTION'>"
p285
sS'TITLE'
p286
S"<class 'gluon.html.TITLE'>"
p287
sS'CRYPT'
p288
S"<class 'gluon.validators.CRYPT'>"
p289
sS'IS_EMPTY_OR'
p290
S"<class 'gluon.validators.IS_EMPTY_OR'>"
p291
sS'MARKMIN'
p292
S"<class 'gluon.html.MARKMIN'>"
p293
sS'INPUT'
p294
S"<class 'gluon.html.INPUT'>"
p295
sS'MyClass'
p296
S"<class '__restricted__.MyClass'>"
p297
sS'STRONG'
p298
S"<class 'gluon.html.STRONG'>"
p299
sS'COL'
p300
S"<class 'gluon.html.COL'>"
p301
sS'fecha_venda'
p302
S'<function fecha_venda>'
p303
sS'service'
p304
S'<gluon.tools.Service object>'
p305
sS'SHOWCASE'
p306
S'<function SHOWCASE>'
p307
sS'consultar_compradores'
p308
S'<function consultar_compradores>'
p309
sS'TABLE'
p310
S"<class 'gluon.html.TABLE'>"
p311
sS'IS_IPV4'
p312
S"<class 'gluon.validators.IS_IPV4'>"
p313
sS'IS_LENGTH'
p314
S"<class 'gluon.validators.IS_LENGTH'>"
p315
sS'IS_IPV6'
p316
S"<class 'gluon.validators.IS_IPV6'>"
p317
sS'XML'
p318
S"<class 'gluon.html.XML'>"
p319
sS'B'
S"<class 'gluon.html.B'>"
p320
sS'IMG'
p321
S"<class 'gluon.html.IMG'>"
p322
sS'SQLTABLE'
p323
S"<class 'gluon.sqlhtml.SQLTABLE'>"
p324
sS'IS_MATCH'
p325
S"<class 'gluon.validators.IS_MATCH'>"
p326
sS'IS_ALPHANUMERIC'
p327
S"<class 'gluon.validators.IS_ALPHANUMERIC'>"
p328
sS'__author__'
p329
S"'TecSUS-3'"
p330
sS'SPAN'
p331
S"<class 'gluon.html.SPAN'>"
p332
sS'IS_JSON'
p333
S"<class 'gluon.validators.IS_JSON'>"
p334
sS'IS_IPADDRESS'
p335
S"<class 'gluon.validators.IS_IPADDRESS'>"
p336
sS'auth2'
p337
S'<gluon.tools.Auth object>'
p338
sS'IS_SLUG'
p339
S"<class 'gluon.validators.IS_SLUG'>"
p340
sS'BEAUTIFY'
p341
S"<class 'gluon.html.BEAUTIFY'>"
p342
sS'META'
p343
S"<class 'gluon.html.META'>"
p344
sS'meu_user'
p345
S'<function meu_user>'
p346
sS'BUTTON'
p347
S"<class 'gluon.html.BUTTON'>"
p348
sS'mails'
p349
S'<gluon.tools.Mail object>'
p350
sS'H1'
p351
S"<class 'gluon.html.H1'>"
p352
sS'IS_DATE'
p353
S"<class 'gluon.validators.IS_DATE'>"
p354
sS'IS_EMAIL'
p355
S"<class 'gluon.validators.IS_EMAIL'>"
p356
sS'IS_NOT_EMPTY'
p357
S"<class 'gluon.validators.IS_NOT_EMPTY'>"
p358
sg56
S"<Storage {'_vars': <Storage {}>, 'function': 'In...ite\\\\web2py\\\\applications\\\\site_two_alterado\\\\'}>"
p359
sS'TBODY'
p360
S"<class 'gluon.html.TBODY'>"
p361
sS'CAT'
p362
S"<class 'gluon.html.CAT'>"
p363
sS'Field'
p364
S"<class 'pydal.objects.Field'>"
p365
sS'purchased'
p366
S'<Query ((person.id = purchased.buyer_id) AND (product.id = purchased.product_id))>'
p367
sS'Mail'
p368
S"<class 'gluon.tools.Mail'>"
p369
sS'DIV'
p370
S"<class 'gluon.html.DIV'>"
p371
sS'LEGEND'
p372
S"<class 'gluon.html.LEGEND'>"
p373
sS'COLGROUP'
p374
S"<class 'gluon.html.COLGROUP'>"
p375
sS'DAL'
p376
S"<class 'pydal.base.DAL'>"
p377
sS'ASSIGNJS'
p378
S'<function ASSIGNJS>'
p379
sS'TR'
p380
S"<class 'gluon.html.TR'>"
p381
sS'__package__'
p382
S'None'
p383
sS'IFRAME'
p384
S"<class 'gluon.html.IFRAME'>"
p385
sS'TD'
p386
S"<class 'gluon.html.TD'>"
p387
sS'PluginManager'
p388
S"<class 'gluon.tools.PluginManager'>"
p389
sS'IS_URL'
p390
S"<class 'gluon.validators.IS_URL'>"
p391
sS'detalhes_geral'
p392
S'<function detalhes_geral>'
p393
sS'A'
S"<class 'gluon.html.A'>"
p394
sS'STYLE'
p395
S"<class 'gluon.html.STYLE'>"
p396
sS'IS_DATETIME_IN_RANGE'
p397
S"<class 'gluon.validators.IS_DATETIME_IN_RANGE'>"
p398
sS'IS_IMAGE'
p399
S"<class 'gluon.validators.IS_IMAGE'>"
p400
sS'I'
S"<class 'gluon.html.I'>"
p401
sS'crud'
p402
S'<gluon.tools.Crud object>'
p403
sS'IS_NOT_IN_DB'
p404
S"<class 'gluon.validators.IS_NOT_IN_DB'>"
p405
sg112
S"<Storage {'body': <cStringIO.StringO object at 0...> at 0x0AEEBA70>, 'view': 'Veiculo/Inicio.html'}>"
p406
sS'THEAD'
p407
S"<class 'gluon.html.THEAD'>"
p408
sS'ANY_OF'
p409
S"<class 'gluon.validators.ANY_OF'>"
p410
sS'IS_NULL_OR'
p411
S"<class 'gluon.validators.IS_EMPTY_OR'>"
p412
sS'notempty'
p413
S'<gluon.validators.IS_NOT_EMPTY object>'
p414
sS'IS_FLOAT_IN_RANGE'
p415
S"<class 'gluon.validators.IS_FLOAT_IN_RANGE'>"
p416
sS'IS_EXPR'
p417
S"<class 'gluon.validators.IS_EXPR'>"
p418
sS'TiposCarros'
p419
S"['Novo', 'Usado']"
p420
sS'IS_IN_SET'
p421
S"<class 'gluon.validators.IS_IN_SET'>"
p422
sS'IS_UPLOAD_FILENAME'
p423
S"<class 'gluon.validators.IS_UPLOAD_FILENAME'>"
p424
sS'cores'
p425
S"('Azul', 'Amarelo', 'Verde', 'Vermelho', 'Prata', 'Branco', 'Preto', 'Vinho')"
p426
sS'IS_DECIMAL_IN_RANGE'
p427
S"<class 'gluon.validators.IS_DECIMAL_IN_RANGE'>"
p428
sS'TT'
p429
S"<class 'gluon.html.TT'>"
p430
sS'T'
S'<gluon.languages.translator object>'
p431
sssS'traceback'
p432
S'Traceback (most recent call last):\n  File "C:\\Users\\TecSUS-3\\Desktop\\template_site\\web2py\\gluon\\restricted.py", line 227, in restricted\n    exec ccode in environment\n  File "C:\\Users\\TecSUS-3\\Desktop\\template_site\\web2py\\applications\\site_two_alterado\\controllers/Veiculo.py", line 309, in <module>\n    @auth2.requires_membership(name = \'read\')\nTypeError: requires_membership() got an unexpected keyword argument \'name\'\n'
p433
s.