(dp1
S'output'
p2
S"<type 'exceptions.SyntaxError'> CRLF Injection Detected"
p3
sS'layer'
p4
S'C:\\Users\\TecSUS-3\\Desktop\\template_site\\web2py\\applications\\site_two_alterado\\views\\Veiculo/Inicio.html'
p5
sS'code'
p6
S'right_sidebar_enabled=True\nresponse.write(\'\\r\\n\', escape=False)\nleft_sidebar_enabled=True\nresponse.write(\'\\r\\n\', escape=False)\n\'message\' in globals()\nresponse.write(\'\\r\\n\\r\\n\', escape=False)\nresponse.write(\'<!DOCTYPE html>\\n<!--[if (gt IE 9)|!(IE)]><!--> <html class="no-js" lang="\', escape=False)\nresponse.write(T.accepted_language or \'en\')\nresponse.write(\'"> <!--<![endif]-->\\n  <head>\\n    <meta charset="utf-8">\\n    <!-- www.phpied.com/conditional-comments-block-downloads/ -->\\n    <!-- Always force latest IE rendering engine\\n         (even in intranet) & Chrome Frame\\n         Remove this if you use the .htaccess -->\\n    <meta http-equiv="X-UA-Compatible" content="IE=edge\', escape=False)\nresponse.write(not request.is_local and \',chrome=1\' or \'\')\nresponse.write(\'">\\n    <!--  Mobile Viewport Fix\\n          j.mp/mobileviewport & davidbcalhoun.com/2010/viewport-metatag\\n          device-width: Occupy full width of the screen in its current orientation\\n          initial-scale = 1.0 retains dimensions instead of zooming out if page height > device height\\n          user-scalable = yes allows the user to zoom in -->\\n    <meta name="viewport" content="width=device-width, initial-scale=1.0">\\n    <title>\', escape=False)\nresponse.write(response.title or request.application)\nresponse.write(\'</title>\\n    <!-- http://dev.w3.org/html5/markup/meta.name.html -->\\n    <meta name="application-name" content="\', escape=False)\nresponse.write(request.application)\nresponse.write(\'">\\n    <!-- Speaking of Google, don\\\'t forget to set your site up:\\n         http://google.com/webmasters -->\\n    <meta name="google-site-verification" content="">\\n    <!-- include stylesheets -->\\n    <link rel="stylesheet" href="\', escape=False)\nresponse.write(URL(\'static\',\'css/bootstrap.min.css\'))\nresponse.write(\'"/>\\n    <link rel="stylesheet" href="\', escape=False)\nresponse.write(URL(\'static\',\'css/bootstrap-theme.min.css\'))\nresponse.write(\'"/>\\n    <link rel="stylesheet" href="\', escape=False)\nresponse.write(URL(\'static\',\'css/web2py-bootstrap3.css\'))\nresponse.write(\'"/>\\n    <link rel="shortcut icon" href="\', escape=False)\nresponse.write(URL(\'static\',\'images/favicon.ico\'))\nresponse.write(\'" type="image/x-icon">\\n    <link rel="apple-touch-icon" href="\', escape=False)\nresponse.write(URL(\'static\',\'images/favicon.png\'))\nresponse.write(\'">\\n    <!-- All JavaScript at the bottom, except for Modernizr which enables\\n         HTML5 elements & feature detects -->\\n    <script src="\', escape=False)\nresponse.write(URL(\'static\',\'js/modernizr-2.8.3.min.js\'))\nresponse.write(\'"></script>\\n    <!--[if lt IE 9]>\\n        <script src="\', escape=False)\nresponse.write(URL(\'static\',\'js/respond-1.4.2.min.js\'))\nresponse.write(\'"></script>\\n        <![endif]-->\\n    <!-- Favicons -->\\n    \', escape=False)\nresponse.write(\'<script type="text/javascript"><!--\\n    // These variables are used by the web2py_ajax_init function in web2py_ajax.js (which is loaded below).\\n    var w2p_ajax_confirm_message = "\', escape=False)\nresponse.write(T(\'Are you sure you want to delete this object?\'))\nresponse.write(\'";\\n    var w2p_ajax_disable_with_message = "\', escape=False)\nresponse.write(T(\'Working...\'))\nresponse.write(\'";\\n    var w2p_ajax_date_format = "\', escape=False)\nresponse.write(T(\'%Y-%m-%d\'))\nresponse.write(\'";\\n    var w2p_ajax_datetime_format = "\', escape=False)\nresponse.write(T(\'%Y-%m-%d %H:%M:%S\'))\nresponse.write(\'";\\n    var ajax_error_500 = \\\'\', escape=False)\nresponse.write(T.M(\'An error occured, please [[reload %s]] the page\') % URL(args=request.args, vars=request.get_vars))\nresponse.write("\'\\n    //--></script>\\n", escape=False)\nresponse.files.insert(0,URL(\'static\',\'js/jquery.js\'))\nresponse.files.insert(1,URL(\'static\',\'css/calendar.css\'))\nresponse.files.insert(2,URL(\'static\',\'js/calendar.js\'))\nresponse.files.insert(3,URL(\'static\',\'js/web2py.js\'))\nresponse.include_meta()\nresponse.include_files()\nresponse.write(\'\\n\', escape=False)\nresponse.write(\' <!-- this includes jquery.js, calendar.js/.css and web2py.js -->\\n    \', escape=False)\nresponse.write(\'\\n    \', escape=False)\n# using sidebars need to know what sidebar you want to use\nmc0 = \'col-md-12\'\nmc1 = \'col-md-9\'\nmc2 = \'col-md-6\'\nleft_sidebar_enabled = globals().get(\'left_sidebar_enabled\', False)\nright_sidebar_enabled = globals().get(\'right_sidebar_enabled\', False)\nmiddle_column = {0: mc0, 1: mc1, 2: mc2}[\n(left_sidebar_enabled and 1 or 0)+(right_sidebar_enabled and 1 or 0)]\nresponse.write(\'\\n  </head>\\n  <body>\\n    <!--[if lt IE 8]><p class="browserupgrade">You are using an <strong>outdated</strong> browser. Please <a href="http://browsehappy.com/">upgrade your browser</a> to improve your experience.</p><![endif]-->\\n    <div class="flash alert alert-dismissable">\', escape=False)\nresponse.write(response.flash or \'\')\nresponse.write(\'</div>\\n    <!-- Navbar ======================================= -->\\n    <nav class="navbar navbar-inverse navbar-fixed-top" role="navigation">\\n      <div class="container-fluid">\\n        <div class="navbar-header">\\n          <button type="button" class="navbar-toggle" data-toggle="collapse" data-target=".navbar-collapse">\\n            <span class="sr-only">Toggle navigation</span>\\n            <span class="icon-bar"></span>\\n            <span class="icon-bar"></span>\\n            <span class="icon-bar"></span>\\n          </button>\\n          \', escape=False)\nresponse.write(response.logo or \'\')\nresponse.write(\'\\n        </div>\\n        <div class="collapse navbar-collapse navbar-ex1-collapse">\\n          <ul class="nav navbar-nav navbar-right">\\n            \', escape=False)\nresponse.write(\'auth\' in globals() and auth.navbar(\'Welcome\',mode=\'dropdown\') or \'\')\nresponse.write(\'\\n          </ul>\\n          \', escape=False)\nif response.menu:\n    response.write(\'\\n          \', escape=False)\n    response.write(MENU(response.menu, _class=\'nav navbar-nav\',li_class=\'dropdown\',ul_class=\'dropdown-menu\'))\n    response.write(\'\\n          \', escape=False)\n    pass\nresponse.write(\'\\n        </div>\\n      </div>\\n    </nav>\\n    <!-- Masthead ===================================== -->    \\n    \', escape=False)\nresponse.write(\'\\r\\n    <header class="container-fluid background">\\r\\n      <div class="jumbotron text-center">\\r\\n        \', escape=False)\nif response.title:\n    response.write(\'\\r\\n        <h1>\', escape=False)\n    response.write(title)\n    response.write(\'\\r\\n          <small>\', escape=False)\n    response.write(response.subtitle or \'\')\n    response.write(\'</small></h1>\\r\\n        \', escape=False)\n    pass\nresponse.write(\'\\r\\n      </div>\\r\\n    </header>\\r\\n\', escape=False)\nresponse.write(\'\\n    <!-- Main ========================================= -->\\n    <!-- Begin page content -->\\n    <div class="container-fluid">\\n      \', escape=False)\nif left_sidebar_enabled:\n    response.write(\'\\n        <div class="col-md-3 left-sidebar">\\n            \', escape=False)\n    response.write(\'\\r\\n<div class="panel panel-info">\\r\\n  <div class="panel-heading"><h3 class="panel-title"><a class="btn-block"\\r\\n      href="\', escape=False)\n    response.write(URL(\'admin\',\'default\',\'index\'))\n    response.write(\'">\\r\\n      <i class="glyphicon glyphicon-cog"></i>\\r\\n      \', escape=False)\n    response.write(T("Op\xc3\xa7\xc3\xb5es"))\n    response.write(\'\\r\\n    </a></h3>\\r\\n  </div>\\r\\n  <div class="panel-body">\\r\\n     <div>\\r\\n      \', escape=False)\n    response.write(MENU(response.MeuMenu,_class=\'sf-menu\'))\n    response.write(\'\\r\\n     </div>\\r\\n  </div>\\r\\n</div>\\r\\n\', escape=False)\n    response.write(\'\\n        </div>\\n      \', escape=False)\n    pass\nresponse.write(\'\\n\\n      <div class="\', escape=False)\nresponse.write(middle_column)\nresponse.write(\'">\\n        \', escape=False)\nresponse.write(\'\\r\\n\', escape=False)\nif \'message\' in globals():\n    response.write(\'\\r\\n    <h2>\', escape=False)\n    response.write(message)\n    response.write(\'</h2>\\r\\n\', escape=False)\nelif \'content\' in globals():\n    response.write(\'\\r\\n    \', escape=False)\n    response.write(content)\n    response.write(\'\\r\\n\', escape=False)\nelse:\n    response.write(\'\\r\\n\\r\\n    <h1>Modelos Dispon\\xc3\\xadveis</h1>\\r\\n    \', escape=False)\n    response.write(form_teste)\n    response.write(\'\\r\\n\\r\\n\\r\\n    <div style="text-align: center">\\r\\n        <img width="200px" src="\', escape=False)\n    response.write(URL(\'site_two_alterado\\uploads\'))\n    response.write(\'"/>\\r\\n        <h1>Modelos Dispon\\xc3\\xadveis 2</h1>\\r\\n        <ul>\\r\\n            \', escape=False)\n    for registro in registros:\n        response.write(\'\\r\\n                <li><img src="/site_one/static/download.jpg" alt="My Logo" /></li>\\r\\n                <li>\', escape=False)\n        response.write(URL(\'/site_one/static/download.jpg\'))\n        response.write(\'</li>\\r\\n                <li>\', escape=False)\n        response.write(URL(\'site_two_alterado\\uploads\'+registro.foto_data))\n        response.write(\'</li>\\r\\n                <li><img src="site_two_alterado\\\\uploads"/> </li>\\r\\n            \', escape=False)\n        pass\n    response.write(\'\\r\\n        </ul>\\r\\n    </div>\\r\\n\', escape=False)\n    pass\nresponse.write(\'\\r\\n\', escape=False)\nresponse.write(\'\\n      </div>\\n\\n      \', escape=False)\nif right_sidebar_enabled:\n    response.write(\'\\n        <div class="col-md-3">\\n            \', escape=False)\n    response.write(\'\\r\\n<div class="panel panel-info">\\r\\n      \', escape=False)\n    response.write(form_hora)\n    response.write(\'\\r\\n</div>\\r\\n\', escape=False)\n    response.write(\'\\n        </div>\\n      \', escape=False)\n    pass\nresponse.write(\'\\n\\n    </div>\\n\\n    \', escape=False)\nresponse.write(\' <!-- this is default footer -->      \\n    <footer class="footer">\\n      <div class="container-fluid">\\n        <div class="copyright pull-left">\', escape=False)\nresponse.write(T(\'Copyright\'))\nresponse.write(\' &#169; \', escape=False)\nresponse.write(request.now.year)\nresponse.write(\'</div>\\n          <div id="poweredBy" class="pull-right">\\n            \', escape=False)\nresponse.write(T(\'Powered by\'))\nresponse.write(\'\\n            <a href="http://www.web2py.com/">web2py</a>\\n          </div>\\n      </div>\\n    </footer>\\n    \', escape=False)\nresponse.write(\'\\n    <!-- The javascript =============================== -->\\n    <script src="\', escape=False)\nresponse.write(URL(\'static\',\'js/bootstrap.min.js\'))\nresponse.write(\'"></script>\\n    <script src="\', escape=False)\nresponse.write(URL(\'static\',\'js/web2py-bootstrap3.js\'))\nresponse.write(\'"></script>\\n    \', escape=False)\nresponse.write(\'\\n    \', escape=False)\nif response.google_analytics_id:\n    response.write(\'\\n    <!-- Analytics ==================================== -->\\n    <script src="\', escape=False)\n    response.write(URL(\'static\',\'js/analytics.min.js\'))\n    response.write(\'"></script>\\n    <script type="text/javascript">\\n      analytics.initialize({\\n      \\\'Google Analytics\\\':{trackingId:\\\'\', escape=False)\n    response.write(response.google_analytics_id)\n    response.write("\'}\\n      });\\n    </script>\\n    ", escape=False)\n    pass\nresponse.write(\'\\n    <!-- Share ============================y============ -->\\n    <script src="\', escape=False)\nresponse.write(URL(\'static\',\'js/share.js\',vars=dict(static=URL(\'static\',\'images\'))))\nresponse.write(\'"></script>\\n  </body>\\n</html>\\n\', escape=False)'
p7
sS'snapshot'
p8
(dp9
S'exception'
p10
(dp11
S'__getslice__'
p12
S"<method-wrapper '__getslice__' of exceptions.SyntaxError object>"
p13
sS'text'
p14
S'None'
p15
sS'__str__'
p16
S"<method-wrapper '__str__' of exceptions.SyntaxError object>"
p17
sS'__reduce__'
p18
S'<built-in method __reduce__ of exceptions.SyntaxError object>'
p19
sS'__dict__'
p20
S'{}'
p21
sS'__sizeof__'
p22
S'<built-in method __sizeof__ of exceptions.SyntaxError object>'
p23
sS'__init__'
p24
S"<method-wrapper '__init__' of exceptions.SyntaxError object>"
p25
sS'__setattr__'
p26
S"<method-wrapper '__setattr__' of exceptions.SyntaxError object>"
p27
sS'__reduce_ex__'
p28
S'<built-in method __reduce_ex__ of exceptions.SyntaxError object>'
p29
sS'__new__'
p30
S'<built-in method __new__ of type object>'
p31
sS'__format__'
p32
S'<built-in method __format__ of exceptions.SyntaxError object>'
p33
sS'__class__'
p34
S"<type 'exceptions.SyntaxError'>"
p35
sS'filename'
p36
S'None'
p37
sS'lineno'
p38
S'None'
p39
sS'msg'
p40
S"'CRLF Injection Detected'"
p41
sS'__doc__'
p42
S"'Invalid syntax.'"
p43
sS'__getitem__'
p44
S"<method-wrapper '__getitem__' of exceptions.SyntaxError object>"
p45
sS'__setstate__'
p46
S'<built-in method __setstate__ of exceptions.SyntaxError object>'
p47
sS'__getattribute__'
p48
S"<method-wrapper '__getattribute__' of exceptions.SyntaxError object>"
p49
sS'print_file_and_line'
p50
S'None'
p51
sS'args'
p52
S"('CRLF Injection Detected',)"
p53
sS'__subclasshook__'
p54
S'<built-in method __subclasshook__ of type object>'
p55
sS'offset'
p56
S'None'
p57
sS'__unicode__'
p58
S'<built-in method __unicode__ of exceptions.SyntaxError object>'
p59
sS'__delattr__'
p60
S"<method-wrapper '__delattr__' of exceptions.SyntaxError object>"
p61
sS'__repr__'
p62
S"<method-wrapper '__repr__' of exceptions.SyntaxError object>"
p63
sS'__hash__'
p64
S"<method-wrapper '__hash__' of exceptions.SyntaxError object>"
p65
ssS'evalue'
p66
S'CRLF Injection Detected'
p67
sS'request'
p68
cgluon.html
XML_unpickle
p69
(S's\x9dg\x00\x00<div><table><tr><td style="font-weight:bold;vertical-align:top;">ajax</td><td style="vertical-align:top;">:</td><td><div>False</div></td></tr><tr><td style="font-weight:bold;vertical-align:top;">application</td><td style="vertical-align:top;">:</td><td><div>site_two_alterado</div></td></tr><tr><td style="font-weight:bold;vertical-align:top;">args</td><td style="vertical-align:top;">:</td><td><div><table></table></div></td></tr><tr><td style="font-weight:bold;vertical-align:top;">cid</td><td style="vertical-align:top;">:</td><td><div>None</div></td></tr><tr><td style="font-weight:bold;vertical-align:top;">client</td><td style="vertical-align:top;">:</td><td><div>127.0.0.1</div></td></tr><tr><td style="font-weight:bold;vertical-align:top;">controller</td><td style="vertical-align:top;">:</td><td><div>Veiculo</div></td></tr><tr><td style="font-weight:bold;vertical-align:top;">cookies</td><td style="vertical-align:top;">:</td><td><div><table><tr><td style="font-weight:bold;vertical-align:top;">session_id_admin</td><td style="vertical-align:top;">:</td><td><div>127.0.0.1-0e680a8e-e9d8-4a84-b0c5-e48ec6a5d283<table><tr><td style="font-weight:bold;vertical-align:top;">comment</td><td style="vertical-align:top;">:</td><td><div></div></td></tr><tr><td style="font-weight:bold;vertical-align:top;">domain</td><td style="vertical-align:top;">:</td><td><div></div></td></tr><tr><td style="font-weight:bold;vertical-align:top;">expires</td><td style="vertical-align:top;">:</td><td><div></div></td></tr><tr><td style="font-weight:bold;vertical-align:top;">httponly</td><td style="vertical-align:top;">:</td><td><div></div></td></tr><tr><td style="font-weight:bold;vertical-align:top;">max-age</td><td style="vertical-align:top;">:</td><td><div></div></td></tr><tr><td style="font-weight:bold;vertical-align:top;">path</td><td style="vertical-align:top;">:</td><td><div></div></td></tr><tr><td style="font-weight:bold;vertical-align:top;">secure</td><td style="vertical-align:top;">:</td><td><div></div></td></tr><tr><td style="font-weight:bold;vertical-align:top;">version</td><td style="vertical-align:top;">:</td><td><div></div></td></tr></table></div></td></tr><tr><td style="font-weight:bold;vertical-align:top;">session_id_site_one</td><td style="vertical-align:top;">:</td><td><div>127.0.0.1-4df52b43-f8e8-44ba-86d6-b984b7f16f1d<table><tr><td style="font-weight:bold;vertical-align:top;">comment</td><td style="vertical-align:top;">:</td><td><div></div></td></tr><tr><td style="font-weight:bold;vertical-align:top;">domain</td><td style="vertical-align:top;">:</td><td><div></div></td></tr><tr><td style="font-weight:bold;vertical-align:top;">expires</td><td style="vertical-align:top;">:</td><td><div></div></td></tr><tr><td style="font-weight:bold;vertical-align:top;">httponly</td><td style="vertical-align:top;">:</td><td><div></div></td></tr><tr><td style="font-weight:bold;vertical-align:top;">max-age</td><td style="vertical-align:top;">:</td><td><div></div></td></tr><tr><td style="font-weight:bold;vertical-align:top;">path</td><td style="vertical-align:top;">:</td><td><div></div></td></tr><tr><td style="font-weight:bold;vertical-align:top;">secure</td><td style="vertical-align:top;">:</td><td><div></div></td></tr><tr><td style="font-weight:bold;vertical-align:top;">version</td><td style="vertical-align:top;">:</td><td><div></div></td></tr></table></div></td></tr><tr><td style="font-weight:bold;vertical-align:top;">session_id_site_two_alterado</td><td style="vertical-align:top;">:</td><td><div>127.0.0.1-0cfc6c86-4fee-4a0d-abac-1badf3735747<table><tr><td style="font-weight:bold;vertical-align:top;">comment</td><td style="vertical-align:top;">:</td><td><div></div></td></tr><tr><td style="font-weight:bold;vertical-align:top;">domain</td><td style="vertical-align:top;">:</td><td><div></div></td></tr><tr><td style="font-weight:bold;vertical-align:top;">expires</td><td style="vertical-align:top;">:</td><td><div></div></td></tr><tr><td style="font-weight:bold;vertical-align:top;">httponly</td><td style="vertical-align:top;">:</td><td><div></div></td></tr><tr><td style="font-weight:bold;vertical-align:top;">max-age</td><td style="vertical-align:top;">:</td><td><div></div></td></tr><tr><td style="font-weight:bold;vertical-align:top;">path</td><td style="vertical-align:top;">:</td><td><div></div></td></tr><tr><td style="font-weight:bold;vertical-align:top;">secure</td><td style="vertical-align:top;">:</td><td><div></div></td></tr><tr><td style="font-weight:bold;vertical-align:top;">version</td><td style="vertical-align:top;">:</td><td><div></div></td></tr></table></div></td></tr><tr><td style="font-weight:bold;vertical-align:top;">session_id_welcome</td><td style="vertical-align:top;">:</td><td><div>127.0.0.1-9f3fef3c-b3b9-42b6-8edf-ec7e573445b8<table><tr><td style="font-weight:bold;vertical-align:top;">comment</td><td style="vertical-align:top;">:</td><td><div></div></td></tr><tr><td style="font-weight:bold;vertical-align:top;">domain</td><td style="vertical-align:top;">:</td><td><div></div></td></tr><tr><td style="font-weight:bold;vertical-align:top;">expires</td><td style="vertical-align:top;">:</td><td><div></div></td></tr><tr><td style="font-weight:bold;vertical-align:top;">httponly</td><td style="vertical-align:top;">:</td><td><div></div></td></tr><tr><td style="font-weight:bold;vertical-align:top;">max-age</td><td style="vertical-align:top;">:</td><td><div></div></td></tr><tr><td style="font-weight:bold;vertical-align:top;">path</td><td style="vertical-align:top;">:</td><td><div></div></td></tr><tr><td style="font-weight:bold;vertical-align:top;">secure</td><td style="vertical-align:top;">:</td><td><div></div></td></tr><tr><td style="font-weight:bold;vertical-align:top;">version</td><td style="vertical-align:top;">:</td><td><div></div></td></tr></table></div></td></tr></table></div></td></tr><tr><td style="font-weight:bold;vertical-align:top;">env</td><td style="vertical-align:top;">:</td><td><div><table><tr><td style="font-weight:bold;vertical-align:top;">HTTP_ACCEPT</td><td style="vertical-align:top;">:</td><td><div>text/html,application/xhtml+xml,application/xml;q=0.9,image/webp,*/*;q=0.8</div></td></tr><tr><td style="font-weight:bold;vertical-align:top;">HTTP_ACCEPT_ENCODING</td><td style="vertical-align:top;">:</td><td><div>gzip, deflate, sdch</div></td></tr><tr><td style="font-weight:bold;vertical-align:top;">HTTP_ACCEPT_LANGUAGE</td><td style="vertical-align:top;">:</td><td><div>pt-BR,pt;q=0.8,en-US;q=0.6,en;q=0.4</div></td></tr><tr><td style="font-weight:bold;vertical-align:top;">HTTP_CACHE_CONTROL</td><td style="vertical-align:top;">:</td><td><div>max-age=0</div></td></tr><tr><td style="font-weight:bold;vertical-align:top;">HTTP_CONNECTION</td><td style="vertical-align:top;">:</td><td><div>keep-alive</div></td></tr><tr><td style="font-weight:bold;vertical-align:top;">HTTP_COOKIE</td><td style="vertical-align:top;">:</td><td><div>session_id_site_one=127.0.0.1-4df52b43-f8e8-44ba-86d6-b984b7f16f1d; session_id_welcome=127.0.0.1-9f3fef3c-b3b9-42b6-8edf-ec7e573445b8; session_id_admin=127.0.0.1-0e680a8e-e9d8-4a84-b0c5-e48ec6a5d283; session_id_site_two_alterado=127.0.0.1-0cfc6c86-4fee-4a0d-abac-1badf3735747</div></td></tr><tr><td style="font-weight:bold;vertical-align:top;">HTTP_HOST</td><td style="vertical-align:top;">:</td><td><div>127.0.0.1:8000</div></td></tr><tr><td style="font-weight:bold;vertical-align:top;">HTTP_REFERER</td><td style="vertical-align:top;">:</td><td><div>http://127.0.0.1:8000/site_two_alterado/default/index</div></td></tr><tr><td style="font-weight:bold;vertical-align:top;">HTTP_UPGRADE_INSECURE_REQUESTS</td><td style="vertical-align:top;">:</td><td><div>1</div></td></tr><tr><td style="font-weight:bold;vertical-align:top;">HTTP_USER_AGENT</td><td style="vertical-align:top;">:</td><td><div>Mozilla/5.0 (Windows NT 6.1; WOW64) AppleWebKit/537.36 (KHTML, like Gecko) Chrome/44.0.2403.155 Safari/537.36</div></td></tr><tr><td style="font-weight:bold;vertical-align:top;">PATH_INFO</td><td style="vertical-align:top;">:</td><td><div>/site_two_alterado/Veiculo/Inicio</div></td></tr><tr><td style="font-weight:bold;vertical-align:top;">QUERY_STRING</td><td style="vertical-align:top;">:</td><td><div></div></td></tr><tr><td style="font-weight:bold;vertical-align:top;">REMOTE_ADDR</td><td style="vertical-align:top;">:</td><td><div>127.0.0.1</div></td></tr><tr><td style="font-weight:bold;vertical-align:top;">REMOTE_PORT</td><td style="vertical-align:top;">:</td><td><div>50046</div></td></tr><tr><td style="font-weight:bold;vertical-align:top;">REQUEST_METHOD</td><td style="vertical-align:top;">:</td><td><div>GET</div></td></tr><tr><td style="font-weight:bold;vertical-align:top;">SCRIPT_NAME</td><td style="vertical-align:top;">:</td><td><div></div></td></tr><tr><td style="font-weight:bold;vertical-align:top;">SERVER_NAME</td><td style="vertical-align:top;">:</td><td><div>TecSUS-3-PC</div></td></tr><tr><td style="font-weight:bold;vertical-align:top;">SERVER_PORT</td><td style="vertical-align:top;">:</td><td><div>8000</div></td></tr><tr><td style="font-weight:bold;vertical-align:top;">SERVER_PROTOCOL</td><td style="vertical-align:top;">:</td><td><div>HTTP/1.1</div></td></tr><tr><td style="font-weight:bold;vertical-align:top;">SERVER_SOFTWARE</td><td style="vertical-align:top;">:</td><td><div>Rocket 1.2.6</div></td></tr><tr><td style="font-weight:bold;vertical-align:top;">app_folders</td><td style="vertical-align:top;">:</td><td><div>set([&#x27;C:\\\\Users\\\\TecSUS-3\\\\Desktop\\\\template_site\\\\web2py\\\\applications\\\\admin\\\\&#x27;, &#x27;C:\\\\Users\\\\TecSUS-3\\\\Desktop\\\\template_site\\\\web2py\\\\applications\\\\site_two_alterado\\\\&#x27;, &#x27;C:\\\\Users\\\\TecSUS-3\\\\Desktop\\\\template_site\\\\web2py\\\\applications\\\\welcome\\\\&#x27;, &#x27;C:\\\\Users\\\\TecSUS-3\\\\Desktop\\\\template_site\\\\web2py\\\\applications\\\\site_one\\\\&#x27;])</div></td></tr><tr><td style="font-weight:bold;vertical-align:top;">applications_parent</td><td style="vertical-align:top;">:</td><td><div>C:\\Users\\TecSUS-3\\Desktop\\template_site\\web2py</div></td></tr><tr><td style="font-weight:bold;vertical-align:top;">cmd_args</td><td style="vertical-align:top;">:</td><td><div><table></table></div></td></tr><tr><td style="font-weight:bold;vertical-align:top;">cmd_options</td><td style="vertical-align:top;">:</td><td><div>&lt;Values at 0x3797cb0: {&#x27;verbose&#x27;: False, &#x27;ip&#x27;: &#x27;127.0.0.1&#x27;, &#x27;debuglevel&#x27;: 30, &#x27;with_scheduler&#x27;: False, &#x27;ips&#x27;: [&#x27;192.241.173.135&#x27;], &#x27;shutdown_timeout&#x27;: 5, &#x27;taskbar&#x27;: False, &#x27;with_coverage&#x27;: False, &#x27;scheduler_groups&#x27;: None, &#x27;port&#x27;: 8000, &#x27;maxthreads&#x27;: None, &#x27;softcron&#x27;: False, &#x27;server_name&#x27;: &#x27;TecSUS-3-PC&#x27;, &#x27;bpython&#x27;: False, &#x27;nogui&#x27;: False, &#x27;pid_filename&#x27;: &#x27;httpserver.pid&#x27;, &#x27;print_errors&#x27;: False, &#x27;extcron&#x27;: False, &#x27;runcron&#x27;: False, &#x27;run_system_tests&#x27;: False, &#x27;test&#x27;: None, &#x27;folder&#x27;: &#x27;C:\\\\Users\\\\TecSUS-3\\\\Desktop\\\\template_site\\\\web2py&#x27;, &#x27;config&#x27;: &#x27;&#x27;, &#x27;minthreads&#x27;: None, &#x27;shell&#x27;: None, &#x27;run&#x27;: &#x27;&#x27;, &#x27;log_filename&#x27;: &#x27;httpserver.log&#x27;, &#x27;profiler_dir&#x27;: None, &#x27;args&#x27;: [&#x27;&#x27;], &#x27;socket_timeout&#x27;: 5, &#x27;ssl_ca_certificate&#x27;: None, &#x27;scheduler&#x27;: None, &#x27;interfaces&#x27;: None, &#x27;ssl_private_key&#x27;: &#x27;&#x27;, &#x27;gae&#x27;: None, &#x27;password&#x27;: &#x27;&lt;ask&gt;&#x27;, &#x27;request_queue_size&#x27;: 5, &#x27;ssl_certificate&#x27;: &#x27;&#x27;, &#x27;cronjob&#x27;: False, &#x27;numthreads&#x27;: None, &#x27;quiet&#x27;: False, &#x27;import_models&#x27;: False, &#x27;timeout&#x27;: 10, &#x27;plain&#x27;: False, &#x27;nobanner&#x27;: False}&gt;</div></td></tr><tr><td style="font-weight:bold;vertical-align:top;">db_sessions</td><td style="vertical-align:top;">:</td><td><div>set([])</div></td></tr><tr><td style="font-weight:bold;vertical-align:top;">debugging</td><td style="vertical-align:top;">:</td><td><div>False</div></td></tr><tr><td style="font-weight:bold;vertical-align:top;">gluon_parent</td><td style="vertical-align:top;">:</td><td><div>C:\\Users\\TecSUS-3\\Desktop\\template_site\\web2py</div></td></tr><tr><td style="font-weight:bold;vertical-align:top;">http_accept</td><td style="vertical-align:top;">:</td><td><div>text/html,application/xhtml+xml,application/xml;q=0.9,image/webp,*/*;q=0.8</div></td></tr><tr><td style="font-weight:bold;vertical-align:top;">http_accept_encoding</td><td style="vertical-align:top;">:</td><td><div>gzip, deflate, sdch</div></td></tr><tr><td style="font-weight:bold;vertical-align:top;">http_accept_language</td><td style="vertical-align:top;">:</td><td><div>pt-BR,pt;q=0.8,en-US;q=0.6,en;q=0.4</div></td></tr><tr><td style="font-weight:bold;vertical-align:top;">http_cache_control</td><td style="vertical-align:top;">:</td><td><div>max-age=0</div></td></tr><tr><td style="font-weight:bold;vertical-align:top;">http_connection</td><td style="vertical-align:top;">:</td><td><div>keep-alive</div></td></tr><tr><td style="font-weight:bold;vertical-align:top;">http_cookie</td><td style="vertical-align:top;">:</td><td><div>session_id_site_one=127.0.0.1-4df52b43-f8e8-44ba-86d6-b984b7f16f1d; session_id_welcome=127.0.0.1-9f3fef3c-b3b9-42b6-8edf-ec7e573445b8; session_id_admin=127.0.0.1-0e680a8e-e9d8-4a84-b0c5-e48ec6a5d283; session_id_site_two_alterado=127.0.0.1-0cfc6c86-4fee-4a0d-abac-1badf3735747</div></td></tr><tr><td style="font-weight:bold;vertical-align:top;">http_host</td><td style="vertical-align:top;">:</td><td><div>127.0.0.1:8000</div></td></tr><tr><td style="font-weight:bold;vertical-align:top;">http_referer</td><td style="vertical-align:top;">:</td><td><div>http://127.0.0.1:8000/site_two_alterado/default/index</div></td></tr><tr><td style="font-weight:bold;vertical-align:top;">http_upgrade_insecure_requests</td><td style="vertical-align:top;">:</td><td><div>1</div></td></tr><tr><td style="font-weight:bold;vertical-align:top;">http_user_agent</td><td style="vertical-align:top;">:</td><td><div>Mozilla/5.0 (Windows NT 6.1; WOW64) AppleWebKit/537.36 (KHTML, like Gecko) Chrome/44.0.2403.155 Safari/537.36</div></td></tr><tr><td style="font-weight:bold;vertical-align:top;">is_jython</td><td style="vertical-align:top;">:</td><td><div>False</div></td></tr><tr><td style="font-weight:bold;vertical-align:top;">is_pypy</td><td style="vertical-align:top;">:</td><td><div>False</div></td></tr><tr><td style="font-weight:bold;vertical-align:top;">is_source</td><td style="vertical-align:top;">:</td><td><div>True</div></td></tr><tr><td style="font-weight:bold;vertical-align:top;">local_hosts</td><td style="vertical-align:top;">:</td><td><div><table><tr><td><div>192.241.173.135</div></td></tr><tr><td><div>fe80::487:2eff:2cf4:8cd6%11</div></td></tr><tr><td><div>TecSUS-3-PC</div></td></tr><tr><td><div>TecSUS-3-PC.tecsus.com.br</div></td></tr><tr><td><div>::ffff:127.0.0.1</div></td></tr><tr><td><div>::1</div></td></tr><tr><td><div>192.168.0.2</div></td></tr><tr><td><div>fe80::5efe:192.168.0.2%12</div></td></tr><tr><td><div>127.0.0.1</div></td></tr></table></div></td></tr><tr><td style="font-weight:bold;vertical-align:top;">path_info</td><td style="vertical-align:top;">:</td><td><div>/site_two_alterado/Veiculo/Inicio</div></td></tr><tr><td style="font-weight:bold;vertical-align:top;">query_string</td><td style="vertical-align:top;">:</td><td><div></div></td></tr><tr><td style="font-weight:bold;vertical-align:top;">remote_addr</td><td style="vertical-align:top;">:</td><td><div>127.0.0.1</div></td></tr><tr><td style="font-weight:bold;vertical-align:top;">remote_port</td><td style="vertical-align:top;">:</td><td><div>50046</div></td></tr><tr><td style="font-weight:bold;vertical-align:top;">request_method</td><td style="vertical-align:top;">:</td><td><div>GET</div></td></tr><tr><td style="font-weight:bold;vertical-align:top;">request_uri</td><td style="vertical-align:top;">:</td><td><div>/site_two_alterado/Veiculo/Inicio</div></td></tr><tr><td style="font-weight:bold;vertical-align:top;">script_name</td><td style="vertical-align:top;">:</td><td><div></div></td></tr><tr><td style="font-weight:bold;vertical-align:top;">server_name</td><td style="vertical-align:top;">:</td><td><div>TecSUS-3-PC</div></td></tr><tr><td style="font-weight:bold;vertical-align:top;">server_port</td><td style="vertical-align:top;">:</td><td><div>8000</div></td></tr><tr><td style="font-weight:bold;vertical-align:top;">server_protocol</td><td style="vertical-align:top;">:</td><td><div>HTTP/1.1</div></td></tr><tr><td style="font-weight:bold;vertical-align:top;">server_software</td><td style="vertical-align:top;">:</td><td><div>Rocket 1.2.6</div></td></tr><tr><td style="font-weight:bold;vertical-align:top;">web2py_path</td><td style="vertical-align:top;">:</td><td><div>C:\\Users\\TecSUS-3\\Desktop\\template_site\\web2py</div></td></tr><tr><td style="font-weight:bold;vertical-align:top;">web2py_version</td><td style="vertical-align:top;">:</td><td><div>2.10.4-stable+timestamp.2015.04.26.15.11.54</div></td></tr><tr><td style="font-weight:bold;vertical-align:top;">wsgi.errors</td><td style="vertical-align:top;">:</td><td><div>&lt;open file &#x27;&lt;stderr&gt;&#x27;, mode &#x27;w&#x27; at 0x01DDD0D0&gt;</div></td></tr><tr><td style="font-weight:bold;vertical-align:top;">wsgi.file_wrapper</td><td style="vertical-align:top;">:</td><td><div>&lt;class wsgiref.util.FileWrapper at 0x03732F10&gt;</div></td></tr><tr><td style="font-weight:bold;vertical-align:top;">wsgi.input</td><td style="vertical-align:top;">:</td><td><div>&lt;socket._fileobject object at 0x04A3B070&gt;</div></td></tr><tr><td style="font-weight:bold;vertical-align:top;">wsgi.multiprocess</td><td style="vertical-align:top;">:</td><td><div>False</div></td></tr><tr><td style="font-weight:bold;vertical-align:top;">wsgi.multithread</td><td style="vertical-align:top;">:</td><td><div>True</div></td></tr><tr><td style="font-weight:bold;vertical-align:top;">wsgi.run_once</td><td style="vertical-align:top;">:</td><td><div>False</div></td></tr><tr><td style="font-weight:bold;vertical-align:top;">wsgi.url_scheme</td><td style="vertical-align:top;">:</td><td><div>http</div></td></tr><tr><td style="font-weight:bold;vertical-align:top;">wsgi.version</td><td style="vertical-align:top;">:</td><td><div><table><tr><td><div>1</div></td></tr><tr><td><div>0</div></td></tr></table></div></td></tr><tr><td style="font-weight:bold;vertical-align:top;">wsgi_errors</td><td style="vertical-align:top;">:</td><td><div>&lt;open file &#x27;&lt;stderr&gt;&#x27;, mode &#x27;w&#x27; at 0x01DDD0D0&gt;</div></td></tr><tr><td style="font-weight:bold;vertical-align:top;">wsgi_file_wrapper</td><td style="vertical-align:top;">:</td><td><div>&lt;class wsgiref.util.FileWrapper at 0x03732F10&gt;</div></td></tr><tr><td style="font-weight:bold;vertical-align:top;">wsgi_input</td><td style="vertical-align:top;">:</td><td><div>&lt;socket._fileobject object at 0x04A3B070&gt;</div></td></tr><tr><td style="font-weight:bold;vertical-align:top;">wsgi_multiprocess</td><td style="vertical-align:top;">:</td><td><div>False</div></td></tr><tr><td style="font-weight:bold;vertical-align:top;">wsgi_multithread</td><td style="vertical-align:top;">:</td><td><div>True</div></td></tr><tr><td style="font-weight:bold;vertical-align:top;">wsgi_run_once</td><td style="vertical-align:top;">:</td><td><div>False</div></td></tr><tr><td style="font-weight:bold;vertical-align:top;">wsgi_url_scheme</td><td style="vertical-align:top;">:</td><td><div>http</div></td></tr><tr><td style="font-weight:bold;vertical-align:top;">wsgi_version</td><td style="vertical-align:top;">:</td><td><div><table><tr><td><div>1</div></td></tr><tr><td><div>0</div></td></tr></table></div></td></tr></table></div></td></tr><tr><td style="font-weight:bold;vertical-align:top;">extension</td><td style="vertical-align:top;">:</td><td><div>html</div></td></tr><tr><td style="font-weight:bold;vertical-align:top;">folder</td><td style="vertical-align:top;">:</td><td><div>C:\\Users\\TecSUS-3\\Desktop\\template_site\\web2py\\applications\\site_two_alterado\\</div></td></tr><tr><td style="font-weight:bold;vertical-align:top;">function</td><td style="vertical-align:top;">:</td><td><div>Inicio</div></td></tr><tr><td style="font-weight:bold;vertical-align:top;">global_settings</td><td style="vertical-align:top;">:</td><td><div><table><tr><td style="font-weight:bold;vertical-align:top;">app_folders</td><td style="vertical-align:top;">:</td><td><div>set([&#x27;C:\\\\Users\\\\TecSUS-3\\\\Desktop\\\\template_site\\\\web2py\\\\applications\\\\admin\\\\&#x27;, &#x27;C:\\\\Users\\\\TecSUS-3\\\\Desktop\\\\template_site\\\\web2py\\\\applications\\\\site_two_alterado\\\\&#x27;, &#x27;C:\\\\Users\\\\TecSUS-3\\\\Desktop\\\\template_site\\\\web2py\\\\applications\\\\welcome\\\\&#x27;, &#x27;C:\\\\Users\\\\TecSUS-3\\\\Desktop\\\\template_site\\\\web2py\\\\applications\\\\site_one\\\\&#x27;])</div></td></tr><tr><td style="font-weight:bold;vertical-align:top;">applications_parent</td><td style="vertical-align:top;">:</td><td><div>C:\\Users\\TecSUS-3\\Desktop\\template_site\\web2py</div></td></tr><tr><td style="font-weight:bold;vertical-align:top;">cmd_args</td><td style="vertical-align:top;">:</td><td><div><table></table></div></td></tr><tr><td style="font-weight:bold;vertical-align:top;">cmd_options</td><td style="vertical-align:top;">:</td><td><div>&lt;Values at 0x3797cb0: {&#x27;verbose&#x27;: False, &#x27;ip&#x27;: &#x27;127.0.0.1&#x27;, &#x27;debuglevel&#x27;: 30, &#x27;with_scheduler&#x27;: False, &#x27;ips&#x27;: [&#x27;192.241.173.135&#x27;], &#x27;shutdown_timeout&#x27;: 5, &#x27;taskbar&#x27;: False, &#x27;with_coverage&#x27;: False, &#x27;scheduler_groups&#x27;: None, &#x27;port&#x27;: 8000, &#x27;maxthreads&#x27;: None, &#x27;softcron&#x27;: False, &#x27;server_name&#x27;: &#x27;TecSUS-3-PC&#x27;, &#x27;bpython&#x27;: False, &#x27;nogui&#x27;: False, &#x27;pid_filename&#x27;: &#x27;httpserver.pid&#x27;, &#x27;print_errors&#x27;: False, &#x27;extcron&#x27;: False, &#x27;runcron&#x27;: False, &#x27;run_system_tests&#x27;: False, &#x27;test&#x27;: None, &#x27;folder&#x27;: &#x27;C:\\\\Users\\\\TecSUS-3\\\\Desktop\\\\template_site\\\\web2py&#x27;, &#x27;config&#x27;: &#x27;&#x27;, &#x27;minthreads&#x27;: None, &#x27;shell&#x27;: None, &#x27;run&#x27;: &#x27;&#x27;, &#x27;log_filename&#x27;: &#x27;httpserver.log&#x27;, &#x27;profiler_dir&#x27;: None, &#x27;args&#x27;: [&#x27;&#x27;], &#x27;socket_timeout&#x27;: 5, &#x27;ssl_ca_certificate&#x27;: None, &#x27;scheduler&#x27;: None, &#x27;interfaces&#x27;: None, &#x27;ssl_private_key&#x27;: &#x27;&#x27;, &#x27;gae&#x27;: None, &#x27;password&#x27;: &#x27;&lt;ask&gt;&#x27;, &#x27;request_queue_size&#x27;: 5, &#x27;ssl_certificate&#x27;: &#x27;&#x27;, &#x27;cronjob&#x27;: False, &#x27;numthreads&#x27;: None, &#x27;quiet&#x27;: False, &#x27;import_models&#x27;: False, &#x27;timeout&#x27;: 10, &#x27;plain&#x27;: False, &#x27;nobanner&#x27;: False}&gt;</div></td></tr><tr><td style="font-weight:bold;vertical-align:top;">db_sessions</td><td style="vertical-align:top;">:</td><td><div>set([])</div></td></tr><tr><td style="font-weight:bold;vertical-align:top;">debugging</td><td style="vertical-align:top;">:</td><td><div>False</div></td></tr><tr><td style="font-weight:bold;vertical-align:top;">gluon_parent</td><td style="vertical-align:top;">:</td><td><div>C:\\Users\\TecSUS-3\\Desktop\\template_site\\web2py</div></td></tr><tr><td style="font-weight:bold;vertical-align:top;">is_jython</td><td style="vertical-align:top;">:</td><td><div>False</div></td></tr><tr><td style="font-weight:bold;vertical-align:top;">is_pypy</td><td style="vertical-align:top;">:</td><td><div>False</div></td></tr><tr><td style="font-weight:bold;vertical-align:top;">is_source</td><td style="vertical-align:top;">:</td><td><div>True</div></td></tr><tr><td style="font-weight:bold;vertical-align:top;">local_hosts</td><td style="vertical-align:top;">:</td><td><div><table><tr><td><div>192.241.173.135</div></td></tr><tr><td><div>fe80::487:2eff:2cf4:8cd6%11</div></td></tr><tr><td><div>TecSUS-3-PC</div></td></tr><tr><td><div>TecSUS-3-PC.tecsus.com.br</div></td></tr><tr><td><div>::ffff:127.0.0.1</div></td></tr><tr><td><div>::1</div></td></tr><tr><td><div>192.168.0.2</div></td></tr><tr><td><div>fe80::5efe:192.168.0.2%12</div></td></tr><tr><td><div>127.0.0.1</div></td></tr></table></div></td></tr><tr><td style="font-weight:bold;vertical-align:top;">web2py_version</td><td style="vertical-align:top;">:</td><td><div>2.10.4-stable+timestamp.2015.04.26.15.11.54</div></td></tr></table></div></td></tr><tr><td style="font-weight:bold;vertical-align:top;">is_https</td><td style="vertical-align:top;">:</td><td><div>False</div></td></tr><tr><td style="font-weight:bold;vertical-align:top;">is_local</td><td style="vertical-align:top;">:</td><td><div>True</div></td></tr><tr><td style="font-weight:bold;vertical-align:top;">is_restful</td><td style="vertical-align:top;">:</td><td><div>False</div></td></tr><tr><td style="font-weight:bold;vertical-align:top;">is_sheduler</td><td style="vertical-align:top;">:</td><td><div>None</div></td></tr><tr><td style="font-weight:bold;vertical-align:top;">is_shell</td><td style="vertical-align:top;">:</td><td><div>None</div></td></tr><tr><td style="font-weight:bold;vertical-align:top;">now</td><td style="vertical-align:top;">:</td><td><div>datetime.datetime(2015, 8, 17, 11, 9, 17, 447000)</div></td></tr><tr><td style="font-weight:bold;vertical-align:top;">raw_args</td><td style="vertical-align:top;">:</td><td><div></div></td></tr><tr><td style="font-weight:bold;vertical-align:top;">raw_extension</td><td style="vertical-align:top;">:</td><td><div>None</div></td></tr><tr><td style="font-weight:bold;vertical-align:top;">url</td><td style="vertical-align:top;">:</td><td><div>/site_two_alterado/Veiculo/Inicio</div></td></tr><tr><td style="font-weight:bold;vertical-align:top;">utcnow</td><td style="vertical-align:top;">:</td><td><div>datetime.datetime(2015, 8, 17, 14, 9, 17, 447000)</div></td></tr><tr><td style="font-weight:bold;vertical-align:top;">uuid</td><td style="vertical-align:top;">:</td><td><div>site_two_alterado/127.0.0.1.2015-08-17.11-09-17.3d67ee4e-5aac-4077-b120-932676799ea6</div></td></tr><tr><td style="font-weight:bold;vertical-align:top;">wsgi</td><td style="vertical-align:top;">:</td><td><div>&lt;gluon.main.LazyWSGI object at 0x046FCE30&gt;</div></td></tr></table></div>'
tRp70
sS'frames'
p71
(lp72
(dp73
S'file'
p74
S'C:\\Users\\TecSUS-3\\Desktop\\template_site\\web2py\\gluon\\restricted.py'
p75
sS'dump'
p76
(dp77
S'environment'
p78
S"{'A': <class 'gluon.html.A'>, 'ANY_OF': <class 'gluon.validators.ANY_OF'>, 'ASSIGNJS': <function ASSIGNJS>, 'AppConfig': <function AppConfig>, 'Auth': <class 'gluon.tools.Auth'>, 'B': <class 'gluon.html.B'>, 'BEAUTIFY': <class 'gluon.html.BEAUTIFY'>, 'BODY': <class 'gluon.html.BODY'>, 'BR': <class 'gluon.html.BR'>, 'BUTTON': <class 'gluon.html.BUTTON'>, ...}"
p79
sS'ccode'
p80
S'<code object <module> at 0A29CB60, file "C:\\User..._two_alterado\\views\\Veiculo/Inicio.html", line 1>'
p81
ssS'lnum'
p82
I227
sS'lines'
p83
(dp84
I224
S'            ccode = code'
p85
sI225
S'        else:'
p86
sI226
S'            ccode = compile2(code, layer)'
p87
sI227
S'        exec ccode in environment'
p88
sI228
S'    except HTTP:'
p89
sI229
S'        raise'
p90
sI230
S'    except RestrictedError:'
p91
sI231
S'        # do not encapsulate (obfuscate) the original RestrictedError'
p92
sI222
S'    try:'
p93
sI223
S'        if isinstance(code, types.CodeType):'
p94
ssS'call'
p95
S'(code=\'right_sidebar_enabled=True\\nresponse.write(\\\'\\\\r\\\\n\\\'..."></script>\\\\n  </body>\\\\n</html>\\\\n\\\', escape=False)\', environment={\'A\': <class \'gluon.html.A\'>, \'ANY_OF\': <class \'gluon.validators.ANY_OF\'>, \'ASSIGNJS\': <function ASSIGNJS>, \'AppConfig\': <function AppConfig>, \'Auth\': <class \'gluon.tools.Auth\'>, \'B\': <class \'gluon.html.B\'>, \'BEAUTIFY\': <class \'gluon.html.BEAUTIFY\'>, \'BODY\': <class \'gluon.html.BODY\'>, \'BR\': <class \'gluon.html.BR\'>, \'BUTTON\': <class \'gluon.html.BUTTON\'>, ...}, layer=r\'C:\\Users\\TecSUS-3\\Desktop\\template_site\\web2py\\a...tions\\site_two_alterado\\views\\Veiculo/Inicio.html\')'
p96
sS'func'
p97
S'restricted'
p98
sa(dp99
g74
S'C:\\Users\\TecSUS-3\\Desktop\\template_site\\web2py\\applications\\site_two_alterado\\views\\Veiculo\\Inicio.html'
p100
sg76
(dp101
sg82
I114
sg83
(dp102
I105
S"    response.write('\\r\\n\\r\\n    <h1>Modelos Dispon\\xc3\\xadveis</h1>\\r\\n    ', escape=False)"
p103
sI106
S'    response.write(form_teste)'
p104
sI107
S'    response.write(\'\\r\\n\\r\\n\\r\\n    <div style="text-align: center">\\r\\n        <img width="200px" src="\', escape=False)'
p105
sI108
S"    response.write(URL('site_two_alterado\\uploads'))"
p106
sI109
S'    response.write(\'"/>\\r\\n        <h1>Modelos Dispon\\xc3\\xadveis 2</h1>\\r\\n        <ul>\\r\\n            \', escape=False)'
p107
sI110
S'    for registro in registros:'
p108
sI111
S'        response.write(\'\\r\\n                <li><img src="/site_one/static/download.jpg" alt="My Logo" /></li>\\r\\n                <li>\', escape=False)'
p109
sI112
S"        response.write(URL('/site_one/static/download.jpg'))"
p110
sI113
S"        response.write('</li>\\r\\n                <li>', escape=False)"
p111
sI114
S"        response.write(URL('site_two_alterado\\uploads'+registro.foto_data))"
p112
sI115
S'        response.write(\'</li>\\r\\n                <li><img src="site_two_alterado\\\\uploads"/> </li>\\r\\n            \', escape=False)'
p113
sI116
S'        pass'
p114
sI117
S"    response.write('\\r\\n        </ul>\\r\\n    </div>\\r\\n', escape=False)"
p115
sI118
S'    pass'
p116
sI119
S"response.write('\\r\\n', escape=False)"
p117
sI120
S"response.write('\\n      </div>\\n\\n      ', escape=False)"
p118
sI121
S'if right_sidebar_enabled:'
p119
sI122
S'    response.write(\'\\n        <div class="col-md-3">\\n            \', escape=False)'
p120
sI123
S'    response.write(\'\\r\\n<div class="panel panel-info">\\r\\n      \', escape=False)'
p121
sI124
S'    response.write(form_hora)'
p122
ssg95
S'()'
p123
sg97
S'<module>'
p124
sa(dp125
g74
S'C:\\Users\\TecSUS-3\\Desktop\\template_site\\web2py\\gluon\\html.py'
p126
sg76
(dp127
S'builtinSyntaxError'
p128
S"<type 'exceptions.SyntaxError'>"
p129
ssg82
I399
sg83
(dp130
I394
S"            other += '#' + (str(anchor))"
p131
sI395
S'    if extension:'
p132
sI396
S"        function += '.' + extension"
p133
sI397
S''
sI398
S'    if regex_crlf.search(join([application, controller, function, other])):'
p134
sI399
S"        raise SyntaxError('CRLF Injection Detected')"
p135
sI400
S''
sI401
S'    url = url_out(r, env, application, controller, function,'
p136
sI402
S'                  args, other, scheme, host, port, language=language)'
p137
sI403
S'    return url'
p138
ssg95
S'(a=None, c=None, f=\'site_two_alterado\\\\uploads\\x89PNG\\r\\n\\x1a\\n\\x00\\x00\\x00\\rIHDR\\x00\\x00\\x02\\xad\\x00\\x00\\x02...T\\xd5\\xbd\\xff\\xffM\\x8c\\x08B\\x08(\\xd5\\x84\\x0b\\x12\\xcb\\xb3\\x8a\\x10\\x04\\xb4\\\\\\xd1I\\x11iE\\x04\\xe9\\x15\\x15\\xfa\\xfb\\x11\\x8a\\x8a\\xda^\\x84{\\x01\\xeb\\xdf\\x85\\x0c\\xb8\\xfc\\xa9`\', r=<Storage {\'_vars\': <Storage {}>, \'function\': \'In...ite\\\\web2py\\\\applications\\\\site_two_alterado\\\\\'}>, args=[\'H[+*\\x12\\xee\\x92\\x87b\', \'\\x8a\\x88\\xadE\\xca \\x16\\x15\\x90\\x04\\xb1\\x02\\x026H.\\t\\x16%\\x10\\x10D\\x84\\xff|\\x87\\x19\\x1a0$\\xf3p\\xce\\xde\\xfb\\x9cy\\xbf\\xd6\\xca\\nb\\x98\\xf30g2\\x9f...FS\\x0b\\x15\\xb7\\xfc\\x01\\x00 \\xb4\\x02\\x16\\x85T\\xa9M\\x8d\\x8d\\xa4\\xcawFS\\x01\\x00 \\xb4\\x02V\\x04\\xd5\\xbcjAu g\\x04\\x00\\x00B+`KP\\x8dM\\xa2\\x92\', \'n\\xfb\\x03\\x00@h\\x05\\xac\\n\\xaa\\x85\\xd1\\xa0J\\xdfT\\x00\\x00\\x08\\xad\\x00A\\x15\\x00\\x00B+\\x00\\x82*\\x00\\x00\\x84V\\x80\\xa0\\x8a\\xf4\\x91\\xdf0[\\xdd\\xd0"_\\xbd\\xb5...\\x93\\x86\\x98\\x82p@\\tq\\x1a\\xd2\\xfa=I\\x82jI\\xb5\\xf7\\xa3\\x9d\\xe1\\xafB\\xae\\x8b\\xda1\\xd2\\n\\xbf\\xffR\\xe0\\xf6?\\x1cW\\xbdv\\xb5.\\x12j\\xefj\\xd7W\\x057\', \'\\xe3\\xc4\\x01\\x88\\x19\\xa3N\\x1f@\\x91?\\xaf\\x0c\\xbfoM\\x0e\\x07\\xd7 \\xa7\\xa7f\\x8c\\xb4\\xc2\\x8fa\\xb5\\xab\\xfa\\xe7\\xa8j6g\\x04N\\x91\\xce\\x00R\\xa7*\\xb7\\xfd\\x13\\xd5...p<\\xac\\xaa\\x93\\xed=\\x08\\xaa\\xb0\\x86\\x8cb\\x8e\\xbd\\xee~c\\x13\\xaej\\xb3r\\xebJ\\xf5\\xd4\\x07\\xff\\xad\\x8a\\x0f\\xef\\xe7\\x89\\x02\\xfc\\xa1\\xc8\\x92\\xf7\\xc0\\xe1\\xe1\\xf7d\\xf9>\\xc6\', \'+h1\\x11\\x0bN\\x85\\xd5<u\\xb2\\x86\\x87zUX\\x17X\\x1f\\xb9\\xf1A\\xeb\\xf6K&`-\\xd8\\xb0H\\x057\', \'\\xe3IJ?L\\xc4\\xf2\\xff{b\\xd7\\xe8{\\xa2\\r\\xe1uc\\xf8+\\xe0\\x87\\xe0Jh\\x85\\x13a5\\xa8h[\\x05\\x02k\\xdc\\x9e[3[\\xbd\\xb0m\\xb9*;v\\x94...WFZ\\x11OX\\rD?\\x1dv\\xe1l\\xc0f\\xb6\\x95\\x04\\x94U\\x96\\xa9\\t\\xcb\\x1f\\xa7\\x1c\\x00gb\\xa4\\x95\\xf7UyO5Y^\\xe7\\xc9\\x11WFZQ\\xdb\\x8b*\', \'\\xfc%\\x05\\xe4+\\t\\xac\\xb0]~\\xc3\\xecH[+[\\xac\', \']\\xa7\\x06\', \'\\x19G`\\x05\\xf0\\x1d\\xe1\\xb0(%v#\\xd4\\xc9\\xa5WM\\xf0\\xe4\\x88+\\xa1\\x155\\x85\\xd5\\xa6\\xd1\\xd54\\xfe\\xaeha\\x05\\x8fx\\xea\\x87\\x13\\xac)\\t\\x90\\xfa\\xd5[V...\\xb1\\xb0jS#d \\xa1\\xc0:\\xa0\\xf3\\x00\\xe3\\xfb!\\xed\\xac\\xc6\\xfde*+[!\\x1e\\xd4\\xb4\\xa2\\xa6\\xf7a\\x93u\\xaes\\xc3\\xd7d\\xa1\\xed\\xe7\\x88\\x91V^$M\\xa3\', \'\\x94b\\x02+\\xbc&\\xd8\\xa9\\xbf\\x15\\x81U\\x96b\\x1d\\xfe\\xe6d\\x02+\\x80\\xa4U\\xabs5A\\x96|-"\\xb4\\xc2\\xe6\\xc0*\\x9f\\xaaJ\\x15\\x0b\\x04\\xc0\\x83\\xa4\\xb5\\xd5=...\\x12Z\\xe1J`\\x95\\x8bZFW\\x87s6\\xe0\\x07R\\x16\\xf0\\xb3\\x9e\\xc3\\x8c\\xee\\x83\\xf4a}t\\xc3<\\x9e\\x0c\\x00\\xe9\\x18\\\\\\x1f\\x08g\\x8bA\\x84V8\\x19V\\xa9]\\x85\', \'IY@\\xcb\\xa6-\\x8dm\\x9f>\\xac\\x00,\\x0b\\xae\\x12 u\\xb7\\xc3*\\xb2\\xa1\\xa3\\x00\\xa1\\xd5\\x1f\\x81U>yQ\\xbb\\n\\xdf\\x91%ZM\\x96\\x05P\\x12\\x00\\xc0\\xc2\\xe0Z\\xaa\\xf4\\xf7q\\xcd\\x8e\\x06W\\xa3\\x13\\xb3\\x08\\xad\\xde\\x0f\\xac\\x8c\\xae\\xc2\\x97~\\x9as\\x85\\xd1%Z\\t\\xac\\x00,\\x0e\\xae\\xb1vX:\\xc9\\xc4,\\xa3\\xf5\\xad\\x84V\\xef\\x86\\xd5\\xae\\xe1\', \'FW\\xe1KR\\xc7:\\xb1\\xcfx\\x02+\\x00\\xd4\\x1e\\\\Gh\\xde\\xecp\\x93+f\\x11Z\\xbd\\x19Xem\\xe0P\\xf4S\\x0f\\xe0;\\x13\\xbb\\r3\\xb6\\xe2\\xd5\\xe6\\x8a\\xcd\\x04V\\x00^\\t\\xaeE\\xe1oc5ov\\x86\\xa9\\xfaVB\\xab\\xb7\\xc2\\xaaL\\xb6z5\\xfc\\xc7\\xe9\\xead}\\t\\xe0;\\x03\', \'hc\\xac,\\xa0\\xac\\xb2L\\r\\x7fs2O\\x02\\x00\', "\\x05W\\xb9e?W\\xe3&#\\xf5\\xad\\x84V\\xd4\\x16X\\x03\\xe1o\\xa5\\xf2\\x9e\\xce\\xd9\\x80_IY\\xc0\\xc3\\x05\\xe6*^&,\\x7f\\xdc\\xb3]\\x02\\x02Mr#\\x81_\\xce...\\xe1\\xc8\';\\xf9tDw\\x00\\xa4\\r\\x93\\x8b\\x08\\xc8\\xc4\\xab%_\\xee\\xf0\\xcc\\xb9\\x92\\xfaU\\x99h\\x95H\\xffZ\\x19\\x8d\\xbd\\xb7\\xd5\\xd5\\\\h@\\xcd\\xef\\xbb\\x12\\xb2j\\x9a\\x01", "w9\\xa7\\xcb \\x92\\xe9eKS$\\x81|\\xa7\\xa6mI\\x99\\x80\\xebA\\x9f\\xd0j\\xc7\\x0bg\\x90b\\xb1\\x00\\xa4\\xa1\'\\xaf\\x19ed\\x11\\x01", \'M\\xbc\\x92`?\\xab\\xe7\\x88\\xd3&[%\\xe2g=\\x87Q&\\x00\\xd4l\\x86\\xaa\\xbd\\x0cO\\x06\\x91<[.\\x10\\x9d\\x98\\xa5\\xb3\\xbeu\\x92\\xdb\\xe7\\x8a\\xd0j>\\xb0\\x06\\xc3...\\xbe\\xee{e\\xbc\\x1a\\xb7q\\x11\\x17"\\xd2Vt\\x16\\xbd\\x1b\\xb7\\xc7\\x87{,\\xb8\\x86\\xc2\\xdf\\xe6j\\xda\\\\\\x90\\xd0\\xea\\x91\\xc0\\xaaX0\\x008eX\\xfb~\\xda\\xb7)e\\x01\', \'U|dm\\x88\\x97\\xc0\\xeaDK\\xab\\xda<\\xb7f\\xb6\\xea\\xf9?\\xa3\\x19a\\x05N\\x066)\\x11\\xc8\\x0f\\x7f\\xadr!\\xb8z\\xa9\\xb3\\x80\\x9c\\x07\\x1d\\xdd\\x04\\xaew\\xb2\\xf6\\x97\\xd0\\xeaN`\\x95Y\\x85\\xa5\\x04V\\xe0$\\x19Q\\x1cpE\\x7f\\xed\\xdb\\xfd\\xafuEV\\x9e\\x0f\\x99\\xc5\\xbfp\\xf0LW\\x03\\xab\\x04\\xf6\\xa1\', \'\\xff\\xdc\\xfaZ^\\xc0@p-\\t\\x7f\\x05\\xd4\\xc9\\xa6\\xfbN\\x067y\\xcf\\x0fy!\\xb8F\\xcb\\x04\\xc6h\\xda\\x9cc\\xb5\\xad\\x84Vw\\x02kH\\xd1!\\x008EVd...\\xc9(\\xab\\xac\\xc8\\xa4\\x93L\\xbezt\\xc3<+\\xcf\\x85\\xb4\\x9dr3\\xb0\\xcad\\xabQkiT\\x02\\xc4\\x19\\xdcJ\\xa2\\xc1\\xd5\\xc9\\x1aO\\xcf\\x04W\\xa5o\\xb45Hh\\xb5\', "\\xb0\\xce!\\xb0\\x02\\xa7\\x9b\\xd8m\\x98\\xf6QV[\'_\\xc9\\xb9p\\xab$`s\\xc5\\xe6H9\\x00\\x93\\xad\\x80\\x84\\x83ke\\xf8K\\xde\\xc3\\xc7\\xa6[p\\x8d\\x86v\\x1d\\x93...\\x93\\x8f\\xba\\xb7\\xee\\xaeu\\x9b\\xb6\\x8c\\xb2\\xca\\xb1?\\\\\\xf0\\x00\\x81\\x15\\xf0\\x7fpu*lN\\xb7\\xb8\\xbe5\\xa8a\\x1b\\x85\\x89\\x96I\\x10Zk\\x0f\\xac3\\x08\\xac@\\x02\\x1f\\x9b", \'\\x1f\\xa4u\\x94Uf\\xd1\\xdb2\\xca*\\xc7\\xde\\xb2iKG\\x1fS\\xdaZ=\\xbaa\\x1e\\x17\\x16`Wp-R\\xce\\xad\\x9c\\xf5\\xaa\\x8d\\xf5\\xad\\x9aF[\\xa5\\xbe7\\xa1n...\\x1d\\xa9\\xa2\\xad\\x15`wp}\\xda\\x81\\x87j\\xad\\xec\\xado\\r\\xea\\xf8\\xbcOhu&\\xb0r?\\x0eH\\x80\\xdc\\x1e\\xd7=\\xcajK_\\xd6\\xd1?\\xf8\\x99\\xe3\\x8f9j\\xe9\', ...], vars={}, anchor=\'\', extension=\'#\\x01x\\xa5?v\\x00\\x00\\x00\\x19tEXtSoftware\\x00Adobe ImageReadyq\\xc9e<\\x00\\x00mHI...T\\xd5\\xbd\\xff\\xffM\\x8c\\x08B\\x08(\\xd5\\x84\\x0b\\x12\\xcb\\xb3\\x8a\\x10\\x04\\xb4\\\\\\xd1I\\x11iE\\x04\\xe9\\x15\\x15\\xfa\\xfb\\x11\\x8a\\x8a\\xda^\\x84{\\x01\\xeb\\xdf\\x85\\x0c\\xb8\\xfc\\xa9`\', env=<Storage {\'HTTP_REFERER\': \'http://127.0.0.1:8000..., \'HTTP_ACCEPT_ENCODING\': \'gzip, deflate, sdch\'}>, hmac_key=None, hash_vars=True, salt=None, user_signature=None, scheme=None, host=None, port=None, encode_embedded_slash=False, url_encode=True, language=None)'
p139
sg97
S'URL'
p140
sasS'pyver'
p141
S'Python 2.7.8: C:\\Python27\\python.exe (prefix: C:\\Python27)'
p142
sS'session'
p143
g69
(S's>\x02\x00\x00<div><table><tr><td style="font-weight:bold;vertical-align:top;">counter</td><td style="vertical-align:top;">:</td><td><div>18</div></td></tr><tr><td style="font-weight:bold;vertical-align:top;">flashed</td><td style="vertical-align:top;">:</td><td><div>False</div></td></tr><tr><td style="font-weight:bold;vertical-align:top;">last_orderby</td><td style="vertical-align:top;">:</td><td><div>None</div></td></tr><tr><td style="font-weight:bold;vertical-align:top;">last_query</td><td style="vertical-align:top;">:</td><td><div>db2.carro.id&gt;0</div></td></tr></table></div>'
tRp144
sS'etype'
p145
S"<type 'exceptions.SyntaxError'>"
p146
sS'date'
p147
S'Mon Aug 17 11:09:17 2015'
p148
sS'response'
p149
g69
(S's~S\x00\x00<div><table><tr><td style="font-weight:bold;vertical-align:top;">MeuMenu</td><td style="vertical-align:top;">:</td><td><div><table><tr><td><div><table><tr><td><div>Principal</div></td></tr><tr><td><div>False</div></td></tr><tr><td><div>http://127.0.0.1:8000/site_two_alterado/Veiculo/Inicio</div></td></tr></table></div></td></tr><tr><td><div><table><tr><td><div>Cadastro de Comprador</div></td></tr><tr><td><div>False</div></td></tr><tr><td><div>http://127.0.0.1:8000/site_two_alterado/Veiculo/comprador</div></td></tr></table></div></td></tr><tr><td><div><table><tr><td><div>Cadastro de Carro</div></td></tr><tr><td><div>False</div></td></tr><tr><td><div>http://127.0.0.1:8000/site_two_alterado/Veiculo/carro</div></td></tr></table></div></td></tr><tr><td><div><table><tr><td><div>Cadastro de Vendedor</div></td></tr><tr><td><div>False</div></td></tr><tr><td><div>http://127.0.0.1:8000/site_two_alterado/Veiculo/vendedor</div></td></tr></table></div></td></tr><tr><td><div><table><tr><td><div>Cadastro de Marca</div></td></tr><tr><td><div>False</div></td></tr><tr><td><div>http://127.0.0.1:8000/site_two_alterado/Veiculo/marca</div></td></tr></table></div></td></tr><tr><td><div><table><tr><td><div>Admin</div></td></tr><tr><td><div>False</div></td></tr><tr><td><div>http://127.0.0.1:8000/site_two_alterado/Veiculo/admin</div></td></tr></table></div></td></tr></table></div></td></tr><tr><td style="font-weight:bold;vertical-align:top;">body</td><td style="vertical-align:top;">:</td><td><div>&lt;cStringIO.StringO object at 0x09E6B3E0&gt;</div></td></tr><tr><td style="font-weight:bold;vertical-align:top;">cookies</td><td style="vertical-align:top;">:</td><td><div><table><tr><td style="font-weight:bold;vertical-align:top;">session_id_site_two_alterado</td><td style="vertical-align:top;">:</td><td><div>127.0.0.1-0cfc6c86-4fee-4a0d-abac-1badf3735747<table><tr><td style="font-weight:bold;vertical-align:top;">comment</td><td style="vertical-align:top;">:</td><td><div></div></td></tr><tr><td style="font-weight:bold;vertical-align:top;">domain</td><td style="vertical-align:top;">:</td><td><div></div></td></tr><tr><td style="font-weight:bold;vertical-align:top;">expires</td><td style="vertical-align:top;">:</td><td><div></div></td></tr><tr><td style="font-weight:bold;vertical-align:top;">httponly</td><td style="vertical-align:top;">:</td><td><div></div></td></tr><tr><td style="font-weight:bold;vertical-align:top;">max-age</td><td style="vertical-align:top;">:</td><td><div></div></td></tr><tr><td style="font-weight:bold;vertical-align:top;">path</td><td style="vertical-align:top;">:</td><td><div>/</div></td></tr><tr><td style="font-weight:bold;vertical-align:top;">secure</td><td style="vertical-align:top;">:</td><td><div></div></td></tr><tr><td style="font-weight:bold;vertical-align:top;">version</td><td style="vertical-align:top;">:</td><td><div></div></td></tr></table></div></td></tr></table></div></td></tr><tr><td style="font-weight:bold;vertical-align:top;">delimiters</td><td style="vertical-align:top;">:</td><td><div><table><tr><td><div>{{</div></td></tr><tr><td><div>}}</div></td></tr></table></div></td></tr><tr><td style="font-weight:bold;vertical-align:top;">files</td><td style="vertical-align:top;">:</td><td><div><table><tr><td><div>/site_two_alterado/static/js/jquery.js</div></td></tr><tr><td><div>/site_two_alterado/static/css/calendar.css</div></td></tr><tr><td><div>/site_two_alterado/static/js/calendar.js</div></td></tr><tr><td><div>/site_two_alterado/static/js/web2py.js</div></td></tr></table></div></td></tr><tr><td style="font-weight:bold;vertical-align:top;">flash</td><td style="vertical-align:top;">:</td><td><div>Bem vindo a loja de carros!</div></td></tr><tr><td style="font-weight:bold;vertical-align:top;">form_label_separator</td><td style="vertical-align:top;">:</td><td><div></div></td></tr><tr><td style="font-weight:bold;vertical-align:top;">formstyle</td><td style="vertical-align:top;">:</td><td><div>bootstrap3_inline</div></td></tr><tr><td style="font-weight:bold;vertical-align:top;">generic_patterns</td><td style="vertical-align:top;">:</td><td><div><table><tr><td><div>*</div></td></tr></table></div></td></tr><tr><td style="font-weight:bold;vertical-align:top;">google_analytics_id</td><td style="vertical-align:top;">:</td><td><div>None</div></td></tr><tr><td style="font-weight:bold;vertical-align:top;">headers</td><td style="vertical-align:top;">:</td><td><div><table><tr><td style="font-weight:bold;vertical-align:top;">X-Powered-By</td><td style="vertical-align:top;">:</td><td><div>web2py</div></td></tr></table></div></td></tr><tr><td style="font-weight:bold;vertical-align:top;">logo</td><td style="vertical-align:top;">:</td><td><div><a class="navbar-brand" href="http://www.web2py.com/" id="web2py-logo"><b>web<span>2</span>py</b>&trade;&nbsp;</a></div></td></tr><tr><td style="font-weight:bold;vertical-align:top;">menu</td><td style="vertical-align:top;">:</td><td><div><table><tr><td><div><table><tr><td><div>Principal</div></td></tr><tr><td><div>False</div></td></tr><tr><td><div>/site_two_alterado/default/index</div></td></tr><tr><td><div><table></table></div></td></tr></table></div></td></tr><tr><td><div><table><tr><td><div>Meus sites</div></td></tr><tr><td><div>False</div></td></tr><tr><td><div>/admin/default/site</div></td></tr></table></div></td></tr><tr><td><div><table><tr><td><div>Esta aplica\xc3\xa7\xc3\xa3o</div></td></tr><tr><td><div>False</div></td></tr><tr><td><div>#</div></td></tr><tr><td><div><table><tr><td><div><table><tr><td><div>Design</div></td></tr><tr><td><div>False</div></td></tr><tr><td><div>/admin/default/design/site_two_alterado</div></td></tr></table></div></td></tr><tr><td><div><li class="divider"></li></div></td></tr><tr><td><div><table><tr><td><div>Controlador</div></td></tr><tr><td><div>False</div></td></tr><tr><td><div>/admin/default/edit/site_two_alterado/controllers/Veiculo.py</div></td></tr></table></div></td></tr><tr><td><div><table><tr><td><div>Visualiza\xc3\xa7\xc3\xa3o</div></td></tr><tr><td><div>False</div></td></tr><tr><td><div>/admin/default/edit/site_two_alterado/views/Veiculo/Inicio.html</div></td></tr></table></div></td></tr><tr><td><div><table><tr><td><div>Modelo BD</div></td></tr><tr><td><div>False</div></td></tr><tr><td><div>/admin/default/edit/site_two_alterado/models/db.py</div></td></tr></table></div></td></tr><tr><td><div><table><tr><td><div>Modelo de Menu</div></td></tr><tr><td><div>False</div></td></tr><tr><td><div>/admin/default/edit/site_two_alterado/models/menu.py</div></td></tr></table></div></td></tr><tr><td><div><table><tr><td><div>Config.ini</div></td></tr><tr><td><div>False</div></td></tr><tr><td><div>/admin/default/edit/site_two_alterado/private/appconfig.ini</div></td></tr></table></div></td></tr><tr><td><div><table><tr><td><div>Layout</div></td></tr><tr><td><div>False</div></td></tr><tr><td><div>/admin/default/edit/site_two_alterado/views/layout.html</div></td></tr></table></div></td></tr><tr><td><div><table><tr><td><div>Folha de estilo</div></td></tr><tr><td><div>False</div></td></tr><tr><td><div>/admin/default/edit/site_two_alterado/static/css/web2py-bootstrap3.css</div></td></tr></table></div></td></tr><tr><td><div><table><tr><td><div>banco de dados</div></td></tr><tr><td><div>False</div></td></tr><tr><td><div>/site_two_alterado/appadmin/index</div></td></tr></table></div></td></tr><tr><td><div><table><tr><td><div>Erros</div></td></tr><tr><td><div>False</div></td></tr><tr><td><div>/admin/default/errors/site_two_alterado</div></td></tr></table></div></td></tr><tr><td><div><table><tr><td><div>Sobre</div></td></tr><tr><td><div>False</div></td></tr><tr><td><div>/admin/default/about/site_two_alterado</div></td></tr></table></div></td></tr></table></div></td></tr></table></div></td></tr><tr><td><div><table><tr><td><div>web2py.com</div></td></tr><tr><td><div>False</div></td></tr><tr><td><div>#</div></td></tr><tr><td><div><table><tr><td><div><table><tr><td><div>Download</div></td></tr><tr><td><div>False</div></td></tr><tr><td><div>http://www.web2py.com/examples/default/download</div></td></tr></table></div></td></tr><tr><td><div><table><tr><td><div>Suporte</div></td></tr><tr><td><div>False</div></td></tr><tr><td><div>http://www.web2py.com/examples/default/support</div></td></tr></table></div></td></tr><tr><td><div><table><tr><td><div>Demo</div></td></tr><tr><td><div>False</div></td></tr><tr><td><div>http://web2py.com/demo_admin</div></td></tr></table></div></td></tr><tr><td><div><table><tr><td><div>Exemplos r\xc3\xa1pidos</div></td></tr><tr><td><div>False</div></td></tr><tr><td><div>http://web2py.com/examples/default/examples</div></td></tr></table></div></td></tr><tr><td><div><table><tr><td><div>Perguntas frequentes</div></td></tr><tr><td><div>False</div></td></tr><tr><td><div>http://web2py.com/AlterEgo</div></td></tr></table></div></td></tr><tr><td><div><table><tr><td><div>V\xc3\xaddeos</div></td></tr><tr><td><div>False</div></td></tr><tr><td><div>http://www.web2py.com/examples/default/videos/</div></td></tr></table></div></td></tr><tr><td><div><table><tr><td><div>Aplica\xc3\xa7\xc3\xb5es gratuitas</div></td></tr><tr><td><div>False</div></td></tr><tr><td><div>http://web2py.com/appliances</div></td></tr></table></div></td></tr><tr><td><div><table><tr><td><div>Plugins</div></td></tr><tr><td><div>False</div></td></tr><tr><td><div>http://web2py.com/plugins</div></td></tr></table></div></td></tr><tr><td><div><table><tr><td><div>Receitas</div></td></tr><tr><td><div>False</div></td></tr><tr><td><div>http://web2pyslices.com/</div></td></tr></table></div></td></tr></table></div></td></tr></table></div></td></tr><tr><td><div><table><tr><td><div>Documenta\xc3\xa7\xc3\xa3o</div></td></tr><tr><td><div>False</div></td></tr><tr><td><div>#</div></td></tr><tr><td><div><table><tr><td><div><table><tr><td><div>Online book</div></td></tr><tr><td><div>False</div></td></tr><tr><td><div>http://www.web2py.com/book</div></td></tr></table></div></td></tr><tr><td><div><li class="divider"></li></div></td></tr><tr><td><div><table><tr><td><div>Pref\xc3\xa1cio</div></td></tr><tr><td><div>False</div></td></tr><tr><td><div>http://www.web2py.com/book/default/chapter/00</div></td></tr></table></div></td></tr><tr><td><div><table><tr><td><div>Introdu\xc3\xa7\xc3\xa3o</div></td></tr><tr><td><div>False</div></td></tr><tr><td><div>http://www.web2py.com/book/default/chapter/01</div></td></tr></table></div></td></tr><tr><td><div><table><tr><td><div>Python</div></td></tr><tr><td><div>False</div></td></tr><tr><td><div>http://www.web2py.com/book/default/chapter/02</div></td></tr></table></div></td></tr><tr><td><div><table><tr><td><div>Vis\xc3\xa3o Geral</div></td></tr><tr><td><div>False</div></td></tr><tr><td><div>http://www.web2py.com/book/default/chapter/03</div></td></tr></table></div></td></tr><tr><td><div><table><tr><td><div>The Core</div></td></tr><tr><td><div>False</div></td></tr><tr><td><div>http://www.web2py.com/book/default/chapter/04</div></td></tr></table></div></td></tr><tr><td><div><table><tr><td><div>As views</div></td></tr><tr><td><div>False</div></td></tr><tr><td><div>http://www.web2py.com/book/default/chapter/05</div></td></tr></table></div></td></tr><tr><td><div><table><tr><td><div>banco de dados</div></td></tr><tr><td><div>False</div></td></tr><tr><td><div>http://www.web2py.com/book/default/chapter/06</div></td></tr></table></div></td></tr><tr><td><div><table><tr><td><div>Formul\xc3\xa1rios e Validadores</div></td></tr><tr><td><div>False</div></td></tr><tr><td><div>http://www.web2py.com/book/default/chapter/07</div></td></tr></table></div></td></tr><tr><td><div><table><tr><td><div>Email e SMS</div></td></tr><tr><td><div>False</div></td></tr><tr><td><div>http://www.web2py.com/book/default/chapter/08</div></td></tr></table></div></td></tr><tr><td><div><table><tr><td><div>Controle de Acesso</div></td></tr><tr><td><div>False</div></td></tr><tr><td><div>http://www.web2py.com/book/default/chapter/09</div></td></tr></table></div></td></tr><tr><td><div><table><tr><td><div>Servi\xc3\xa7o</div></td></tr><tr><td><div>False</div></td></tr><tr><td><div>http://www.web2py.com/book/default/chapter/10</div></td></tr></table></div></td></tr><tr><td><div><table><tr><td><div>Receitas de Ajax</div></td></tr><tr><td><div>False</div></td></tr><tr><td><div>http://www.web2py.com/book/default/chapter/11</div></td></tr></table></div></td></tr><tr><td><div><table><tr><td><div>Componentes e Plugins</div></td></tr><tr><td><div>False</div></td></tr><tr><td><div>http://www.web2py.com/book/default/chapter/12</div></td></tr></table></div></td></tr><tr><td><div><table><tr><td><div>Receitas de deploy</div></td></tr><tr><td><div>False</div></td></tr><tr><td><div>http://www.web2py.com/book/default/chapter/13</div></td></tr></table></div></td></tr><tr><td><div><table><tr><td><div>Outras Receitas</div></td></tr><tr><td><div>False</div></td></tr><tr><td><div>http://www.web2py.com/book/default/chapter/14</div></td></tr></table></div></td></tr><tr><td><div><table><tr><td><div>Helping web2py</div></td></tr><tr><td><div>False</div></td></tr><tr><td><div>http://www.web2py.com/book/default/chapter/15</div></td></tr></table></div></td></tr><tr><td><div><table><tr><td><div>Buy web2py\'s book</div></td></tr><tr><td><div>False</div></td></tr><tr><td><div>http://stores.lulu.com/web2py</div></td></tr></table></div></td></tr></table></div></td></tr></table></div></td></tr><tr><td><div><table><tr><td><div>Comunidade</div></td></tr><tr><td><div>False</div></td></tr><tr><td><div>None</div></td></tr><tr><td><div><table><tr><td><div><table><tr><td><div>Grupos</div></td></tr><tr><td><div>False</div></td></tr><tr><td><div>http://www.web2py.com/examples/default/usergroups</div></td></tr></table></div></td></tr><tr><td><div><table><tr><td><div>Twitter</div></td></tr><tr><td><div>False</div></td></tr><tr><td><div>http://twitter.com/web2py</div></td></tr></table></div></td></tr><tr><td><div><table><tr><td><div>Chat ao vivo</div></td></tr><tr><td><div>False</div></td></tr><tr><td><div>http://webchat.freenode.net/?channels=web2py</div></td></tr></table></div></td></tr></table></div></td></tr></table></div></td></tr><tr><td><div><table><tr><td><div>Minha Pagina Teste</div></td></tr><tr><td><div>False</div></td></tr><tr><td><div>None</div></td></tr><tr><td><div><table><tr><td><div><table><tr><td><div>Forms - accessories grid</div></td></tr><tr><td><div>False</div></td></tr><tr><td><div>http://127.0.0.1:8000/site_two_alterado/forms/accessories_grid_selectable.html</div></td></tr></table></div></td></tr><tr><td><div><table><tr><td><div>Forms - accessories crud</div></td></tr><tr><td><div>False</div></td></tr><tr><td><div>http://127.0.0.1:8000/site_two_alterado/forms/accessory_crud</div></td></tr></table></div></td></tr><tr><td><div><table><tr><td><div>Forms - car model</div></td></tr><tr><td><div>False</div></td></tr><tr><td><div>http://127.0.0.1:8000/site_two_alterado/forms/car_model_form</div></td></tr></table></div></td></tr><tr><td><div><table><tr><td><div>Forms - sale</div></td></tr><tr><td><div>False</div></td></tr><tr><td><div>http://127.0.0.1:8000/site_two_alterado/forms/sale_sqlform_factory</div></td></tr></table></div></td></tr><tr><td><div><table><tr><td><div>Forms - vendor</div></td></tr><tr><td><div>False</div></td></tr><tr><td><div>http://127.0.0.1:8000/site_two_alterado/forms/vendor_sqlform</div></td></tr></table></div></td></tr><tr><td><div><li class="divider"></li></div></td></tr><tr><td><div><table><tr><td><div>Lista grid</div></td></tr><tr><td><div>False</div></td></tr><tr><td><div>http://127.0.0.1:8000/site_two_alterado/grids/database_lists_grid</div></td></tr></table></div></td></tr><tr><td><div><table><tr><td><div>Lista smartgrid</div></td></tr><tr><td><div>False</div></td></tr><tr><td><div>http://127.0.0.1:8000/site_two_alterado/grids/database_lists_smartgrid</div></td></tr></table></div></td></tr><tr><td><div><li class="divider"></li></div></td></tr><tr><td><div><table><tr><td><div>Nova Manual</div></td></tr><tr><td><div>False</div></td></tr><tr><td><div>http://127.0.0.1:8000/site_two_alterado/NovaManual/NovaManual</div></td></tr></table></div></td></tr></table></div></td></tr></table></div></td></tr><tr><td><div><table><tr><td><div>Apostila</div></td></tr><tr><td><div>False</div></td></tr><tr><td><div>None</div></td></tr><tr><td><div><table><tr><td><div><table><tr><td><div>Gerais</div></td></tr><tr><td><div>False</div></td></tr><tr><td><div>http://127.0.0.1:8000/site_two_alterado/Apostila/Apostila</div></td></tr></table></div></td></tr><tr><td><div><li class="divider"></li></div></td></tr><tr><td><div><table><tr><td><div>Banco de Dados</div></td></tr><tr><td><div>False</div></td></tr><tr><td><div>http://127.0.0.1:8000/site_two_alterado/Apostila/BD_Apostila</div></td></tr></table></div></td></tr></table></div></td></tr></table></div></td></tr><tr><td><div><table><tr><td><div>Loja de carros</div></td></tr><tr><td><div>False</div></td></tr><tr><td><div>None</div></td></tr><tr><td><div><table><tr><td><div><table><tr><td><div>Inicial</div></td></tr><tr><td><div>False</div></td></tr><tr><td><div>http://127.0.0.1:8000/site_two_alterado/Veiculo/Inicio</div></td></tr></table></div></td></tr></table></div></td></tr></table></div></td></tr></table></div></td></tr><tr><td style="font-weight:bold;vertical-align:top;">meta</td><td style="vertical-align:top;">:</td><td><div><table><tr><td style="font-weight:bold;vertical-align:top;">author</td><td style="vertical-align:top;">:</td><td><div>Your Name &lt;you@example.com&gt;</div></td></tr><tr><td style="font-weight:bold;vertical-align:top;">description</td><td style="vertical-align:top;">:</td><td><div>a cool new app</div></td></tr><tr><td style="font-weight:bold;vertical-align:top;">generator</td><td style="vertical-align:top;">:</td><td><div>Web2py Web Framework</div></td></tr><tr><td style="font-weight:bold;vertical-align:top;">keywords</td><td style="vertical-align:top;">:</td><td><div>web2py, python, framework</div></td></tr></table></div></td></tr><tr><td style="font-weight:bold;vertical-align:top;">models_to_run</td><td style="vertical-align:top;">:</td><td><div><table><tr><td><div>^\\w+\\.py$</div></td></tr><tr><td><div>^Veiculo/\\w+\\.py$</div></td></tr><tr><td><div>^Veiculo/Inicio/\\w+\\.py$</div></td></tr></table></div></td></tr><tr><td style="font-weight:bold;vertical-align:top;">postprocessing</td><td style="vertical-align:top;">:</td><td><div><table></table></div></td></tr><tr><td style="font-weight:bold;vertical-align:top;">session_client</td><td style="vertical-align:top;">:</td><td><div>127.0.0.1</div></td></tr><tr><td style="font-weight:bold;vertical-align:top;">session_cookie_compression_level</td><td style="vertical-align:top;">:</td><td><div>None</div></td></tr><tr><td style="font-weight:bold;vertical-align:top;">session_cookie_expires</td><td style="vertical-align:top;">:</td><td><div>None</div></td></tr><tr><td style="font-weight:bold;vertical-align:top;">session_cookie_key</td><td style="vertical-align:top;">:</td><td><div>None</div></td></tr><tr><td style="font-weight:bold;vertical-align:top;">session_data_name</td><td style="vertical-align:top;">:</td><td><div>session_data_site_two_alterado</div></td></tr><tr><td style="font-weight:bold;vertical-align:top;">session_file</td><td style="vertical-align:top;">:</td><td><div>&lt;open file &#x27;C:\\\\Users\\\\TecSUS-3\\\\Desktop\\\\template_site\\\\web2py\\\\applications\\\\site_two_alterado\\\\sessions\\\\025\\\\126\\\\127.0.0.1-0cfc6c86-4fee-4a0d-abac-1badf3735747&#x27;, mode &#x27;rb+&#x27; at 0x04AC2808&gt;</div></td></tr><tr><td style="font-weight:bold;vertical-align:top;">session_filename</td><td style="vertical-align:top;">:</td><td><div>C:\\Users\\TecSUS-3\\Desktop\\template_site\\web2py\\applications\\site_two_alterado\\sessions\\127.0.0.1-0cfc6c86-4fee-4a0d-abac-1badf3735747</div></td></tr><tr><td style="font-weight:bold;vertical-align:top;">session_hash</td><td style="vertical-align:top;">:</td><td><div>7727d5b8440043029ce8f90295186412</div></td></tr><tr><td style="font-weight:bold;vertical-align:top;">session_id</td><td style="vertical-align:top;">:</td><td><div>127.0.0.1-0cfc6c86-4fee-4a0d-abac-1badf3735747</div></td></tr><tr><td style="font-weight:bold;vertical-align:top;">session_id_name</td><td style="vertical-align:top;">:</td><td><div>session_id_site_two_alterado</div></td></tr><tr><td style="font-weight:bold;vertical-align:top;">session_locked</td><td style="vertical-align:top;">:</td><td><div>True</div></td></tr><tr><td style="font-weight:bold;vertical-align:top;">session_masterapp</td><td style="vertical-align:top;">:</td><td><div>site_two_alterado</div></td></tr><tr><td style="font-weight:bold;vertical-align:top;">session_new</td><td style="vertical-align:top;">:</td><td><div>False</div></td></tr><tr><td style="font-weight:bold;vertical-align:top;">session_storage_type</td><td style="vertical-align:top;">:</td><td><div>file</div></td></tr><tr><td style="font-weight:bold;vertical-align:top;">status</td><td style="vertical-align:top;">:</td><td><div>200</div></td></tr><tr><td style="font-weight:bold;vertical-align:top;">subtitle</td><td style="vertical-align:top;">:</td><td><div></div></td></tr><tr><td style="font-weight:bold;vertical-align:top;">title</td><td style="vertical-align:top;">:</td><td><div>Site Two Alterado</div></td></tr><tr><td style="font-weight:bold;vertical-align:top;">view</td><td style="vertical-align:top;">:</td><td><div>Veiculo/Inicio.html</div></td></tr></table></div>'
tRp150
sS'locals'
p151
(dp152
S'vars'
p153
g21
sS'hash_vars'
p154
S'True'
p155
sS'port'
p156
S'None'
p157
sS'current'
p158
S'<thread._local object>'
p159
sS'application'
p160
S"'site_two_alterado'"
p161
sS'other'
p162
S"'/H%5B%2B%2A%12%EE%92%87b/%8A%88%ADE%CA%20%16%15%...4%18%00%DBp%F7EX%CBC%CF%00%00%00%00IEND%AEB%60%82'"
p163
sS'user_signature'
p164
S'None'
p165
sS'env'
p166
S"<Storage {'HTTP_REFERER': 'http://127.0.0.1:8000..., 'HTTP_ACCEPT_ENCODING': 'gzip, deflate, sdch'}>"
p167
sS'url_encode'
p168
g155
sS'scheme'
p169
S'None'
p170
sS'function'
p171
S"'site_two_alterado\\\\uploads\\x89PNG\\r\\n\\x1a\\n\\x00\\x00\\x00\\rIHDR\\x00\\x00\\x02\\xad\\x00\\x00\\x02...T\\xd5\\xbd\\xff\\xffM\\x8c\\x08B\\x08(\\xd5\\x84\\x0b\\x12\\xcb\\xb3\\x8a\\x10\\x04\\xb4\\\\\\xd1I\\x11iE\\x04\\xe9\\x15\\x15\\xfa\\xfb\\x11\\x8a\\x8a\\xda^\\x84{\\x01\\xeb\\xdf\\x85\\x0c\\xb8\\xfc\\xa9`'"
p172
sS'encode_embedded_slash'
p173
S'False'
p174
sg52
S'[\'H[+*\\x12\\xee\\x92\\x87b\', \'\\x8a\\x88\\xadE\\xca \\x16\\x15\\x90\\x04\\xb1\\x02\\x026H.\\t\\x16%\\x10\\x10D\\x84\\xff|\\x87\\x19\\x1a0$\\xf3p\\xce\\xde\\xfb\\x9cy\\xbf\\xd6\\xca\\nb\\x98\\xf30g2\\x9f...FS\\x0b\\x15\\xb7\\xfc\\x01\\x00 \\xb4\\x02\\x16\\x85T\\xa9M\\x8d\\x8d\\xa4\\xcawFS\\x01\\x00 \\xb4\\x02V\\x04\\xd5\\xbcjAu g\\x04\\x00\\x00B+`KP\\x8dM\\xa2\\x92\', \'n\\xfb\\x03\\x00@h\\x05\\xac\\n\\xaa\\x85\\xd1\\xa0J\\xdfT\\x00\\x00\\x08\\xad\\x00A\\x15\\x00\\x00B+\\x00\\x82*\\x00\\x00\\x84V\\x80\\xa0\\x8a\\xf4\\x91\\xdf0[\\xdd\\xd0"_\\xbd\\xb5...\\x93\\x86\\x98\\x82p@\\tq\\x1a\\xd2\\xfa=I\\x82jI\\xb5\\xf7\\xa3\\x9d\\xe1\\xafB\\xae\\x8b\\xda1\\xd2\\n\\xbf\\xffR\\xe0\\xf6?\\x1cW\\xbdv\\xb5.\\x12j\\xefj\\xd7W\\x057\', \'\\xe3\\xc4\\x01\\x88\\x19\\xa3N\\x1f@\\x91?\\xaf\\x0c\\xbfoM\\x0e\\x07\\xd7 \\xa7\\xa7f\\x8c\\xb4\\xc2\\x8fa\\xb5\\xab\\xfa\\xe7\\xa8j6g\\x04N\\x91\\xce\\x00R\\xa7*\\xb7\\xfd\\x13\\xd5...p<\\xac\\xaa\\x93\\xed=\\x08\\xaa\\xb0\\x86\\x8cb\\x8e\\xbd\\xee~c\\x13\\xaej\\xb3r\\xebJ\\xf5\\xd4\\x07\\xff\\xad\\x8a\\x0f\\xef\\xe7\\x89\\x02\\xfc\\xa1\\xc8\\x92\\xf7\\xc0\\xe1\\xe1\\xf7d\\xf9>\\xc6\', \'+h1\\x11\\x0bN\\x85\\xd5<u\\xb2\\x86\\x87zUX\\x17X\\x1f\\xb9\\xf1A\\xeb\\xf6K&`-\\xd8\\xb0H\\x057\', \'\\xe3IJ?L\\xc4\\xf2\\xff{b\\xd7\\xe8{\\xa2\\r\\xe1uc\\xf8+\\xe0\\x87\\xe0Jh\\x85\\x13a5\\xa8h[\\x05\\x02k\\xdc\\x9e[3[\\xbd\\xb0m\\xb9*;v\\x94...WFZ\\x11OX\\rD?\\x1dv\\xe1l\\xc0f\\xb6\\x95\\x04\\x94U\\x96\\xa9\\t\\xcb\\x1f\\xa7\\x1c\\x00gb\\xa4\\x95\\xf7UyO5Y^\\xe7\\xc9\\x11WFZQ\\xdb\\x8b*\', \'\\xfc%\\x05\\xe4+\\t\\xac\\xb0]~\\xc3\\xecH[+[\\xac\', \']\\xa7\\x06\', \'\\x19G`\\x05\\xf0\\x1d\\xe1\\xb0(%v#\\xd4\\xc9\\xa5WM\\xf0\\xe4\\x88+\\xa1\\x155\\x85\\xd5\\xa6\\xd1\\xd54\\xfe\\xaeha\\x05\\x8fx\\xea\\x87\\x13\\xac)\\t\\x90\\xfa\\xd5[V...\\xb1\\xb0jS#d \\xa1\\xc0:\\xa0\\xf3\\x00\\xe3\\xfb!\\xed\\xac\\xc6\\xfde*+[!\\x1e\\xd4\\xb4\\xa2\\xa6\\xf7a\\x93u\\xaes\\xc3\\xd7d\\xa1\\xed\\xe7\\x88\\x91V^$M\\xa3\', \'\\x94b\\x02+\\xbc&\\xd8\\xa9\\xbf\\x15\\x81U\\x96b\\x1d\\xfe\\xe6d\\x02+\\x80\\xa4U\\xabs5A\\x96|-"\\xb4\\xc2\\xe6\\xc0*\\x9f\\xaaJ\\x15\\x0b\\x04\\xc0\\x83\\xa4\\xb5\\xd5=...\\x12Z\\xe1J`\\x95\\x8bZFW\\x87s6\\xe0\\x07R\\x16\\xf0\\xb3\\x9e\\xc3\\x8c\\xee\\x83\\xf4a}t\\xc3<\\x9e\\x0c\\x00\\xe9\\x18\\\\\\x1f\\x08g\\x8bA\\x84V8\\x19V\\xa9]\\x85\', \'IY@\\xcb\\xa6-\\x8dm\\x9f>\\xac\\x00,\\x0b\\xae\\x12 u\\xb7\\xc3*\\xb2\\xa1\\xa3\\x00\\xa1\\xd5\\x1f\\x81U>yQ\\xbb\\n\\xdf\\x91%ZM\\x96\\x05P\\x12\\x00\\xc0\\xc2\\xe0Z\\xaa\\xf4\\xf7q\\xcd\\x8e\\x06W\\xa3\\x13\\xb3\\x08\\xad\\xde\\x0f\\xac\\x8c\\xae\\xc2\\x97~\\x9as\\x85\\xd1%Z\\t\\xac\\x00,\\x0e\\xae\\xb1vX:\\xc9\\xc4,\\xa3\\xf5\\xad\\x84V\\xef\\x86\\xd5\\xae\\xe1\', \'FW\\xe1KR\\xc7:\\xb1\\xcfx\\x02+\\x00\\xd4\\x1e\\\\Gh\\xde\\xecp\\x93+f\\x11Z\\xbd\\x19Xem\\xe0P\\xf4S\\x0f\\xe0;\\x13\\xbb\\r3\\xb6\\xe2\\xd5\\xe6\\x8a\\xcd\\x04V\\x00^\\t\\xaeE\\xe1oc5ov\\x86\\xa9\\xfaVB\\xab\\xb7\\xc2\\xaaL\\xb6z5\\xfc\\xc7\\xe9\\xead}\\t\\xe0;\\x03\', \'hc\\xac,\\xa0\\xac\\xb2L\\r\\x7fs2O\\x02\\x00\', "\\x05W\\xb9e?W\\xe3&#\\xf5\\xad\\x84V\\xd4\\x16X\\x03\\xe1o\\xa5\\xf2\\x9e\\xce\\xd9\\x80_IY\\xc0\\xc3\\x05\\xe6*^&,\\x7f\\xdc\\xb3]\\x02\\x02Mr#\\x81_\\xce...\\xe1\\xc8\';\\xf9tDw\\x00\\xa4\\r\\x93\\x8b\\x08\\xc8\\xc4\\xab%_\\xee\\xf0\\xcc\\xb9\\x92\\xfaU\\x99h\\x95H\\xffZ\\x19\\x8d\\xbd\\xb7\\xd5\\xd5\\\\h@\\xcd\\xef\\xbb\\x12\\xb2j\\x9a\\x01", "w9\\xa7\\xcb \\x92\\xe9eKS$\\x81|\\xa7\\xa6mI\\x99\\x80\\xebA\\x9f\\xd0j\\xc7\\x0bg\\x90b\\xb1\\x00\\xa4\\xa1\'\\xaf\\x19ed\\x11\\x01", \'M\\xbc\\x92`?\\xab\\xe7\\x88\\xd3&[%\\xe2g=\\x87Q&\\x00\\xd4l\\x86\\xaa\\xbd\\x0cO\\x06\\x91<[.\\x10\\x9d\\x98\\xa5\\xb3\\xbeu\\x92\\xdb\\xe7\\x8a\\xd0j>\\xb0\\x06\\xc3...\\xbe\\xee{e\\xbc\\x1a\\xb7q\\x11\\x17"\\xd2Vt\\x16\\xbd\\x1b\\xb7\\xc7\\x87{,\\xb8\\x86\\xc2\\xdf\\xe6j\\xda\\\\\\x90\\xd0\\xea\\x91\\xc0\\xaaX0\\x008eX\\xfb~\\xda\\xb7)e\\x01\', \'U|dm\\x88\\x97\\xc0\\xeaDK\\xab\\xda<\\xb7f\\xb6\\xea\\xf9?\\xa3\\x19a\\x05N\\x066)\\x11\\xc8\\x0f\\x7f\\xadr!\\xb8z\\xa9\\xb3\\x80\\x9c\\x07\\x1d\\xdd\\x04\\xaew\\xb2\\xf6\\x97\\xd0\\xeaN`\\x95Y\\x85\\xa5\\x04V\\xe0$\\x19Q\\x1cpE\\x7f\\xed\\xdb\\xfd\\xafuEV\\x9e\\x0f\\x99\\xc5\\xbfp\\xf0LW\\x03\\xab\\x04\\xf6\\xa1\', \'\\xff\\xdc\\xfaZ^\\xc0@p-\\t\\x7f\\x05\\xd4\\xc9\\xa6\\xfbN\\x067y\\xcf\\x0fy!\\xb8F\\xcb\\x04\\xc6h\\xda\\x9cc\\xb5\\xad\\x84Vw\\x02kH\\xd1!\\x008EVd...\\xc9(\\xab\\xac\\xc8\\xa4\\x93L\\xbezt\\xc3<+\\xcf\\x85\\xb4\\x9dr3\\xb0\\xcad\\xabQkiT\\x02\\xc4\\x19\\xdcJ\\xa2\\xc1\\xd5\\xc9\\x1aO\\xcf\\x04W\\xa5o\\xb45Hh\\xb5\', "\\xb0\\xce!\\xb0\\x02\\xa7\\x9b\\xd8m\\x98\\xf6QV[\'_\\xc9\\xb9p\\xab$`s\\xc5\\xe6H9\\x00\\x93\\xad\\x80\\x84\\x83ke\\xf8K\\xde\\xc3\\xc7\\xa6[p\\x8d\\x86v\\x1d\\x93...\\x93\\x8f\\xba\\xb7\\xee\\xaeu\\x9b\\xb6\\x8c\\xb2\\xca\\xb1?\\\\\\xf0\\x00\\x81\\x15\\xf0\\x7fpu*lN\\xb7\\xb8\\xbe5\\xa8a\\x1b\\x85\\x89\\x96I\\x10Zk\\x0f\\xac3\\x08\\xac@\\x02\\x1f\\x9b", \'\\x1f\\xa4u\\x94Uf\\xd1\\xdb2\\xca*\\xc7\\xde\\xb2iKG\\x1fS\\xdaZ=\\xbaa\\x1e\\x17\\x16`Wp-R\\xce\\xad\\x9c\\xf5\\xaa\\x8d\\xf5\\xad\\x9aF[\\xa5\\xbe7\\xa1n...\\x1d\\xa9\\xa2\\xad\\x15`wp}\\xda\\x81\\x87j\\xad\\xec\\xado\\r\\xea\\xf8\\xbcOhu&\\xb0r?\\x0eH\\x80\\xdc\\x1e\\xd7=\\xcajK_\\xd6\\xd1?\\xf8\\x99\\xe3\\x8f9j\\xe9\', ...]'
p175
sS'url_out'
p176
S'<function url_out>'
p177
sS'controller'
p178
S"'Veiculo'"
p179
sS'a'
S'None'
p180
sS'c'
S'None'
p181
sS'function2'
p182
S"'site_two_alterado\\\\uploads\\x89PNG\\r\\n\\x1a\\n\\x00\\x00\\x00\\rIHDR\\x00\\x00\\x02\\xad\\x00\\x00\\x02...T\\xd5\\xbd\\xff\\xffM\\x8c\\x08B\\x08(\\xd5\\x84\\x0b\\x12\\xcb\\xb3\\x8a\\x10\\x04\\xb4\\\\\\xd1I\\x11iE\\x04\\xe9\\x15\\x15\\xfa\\xfb\\x11\\x8a\\x8a\\xda^\\x84{\\x01\\xeb\\xdf\\x85\\x0c\\xb8\\xfc\\xa9`'"
p183
sS'list_vars'
p184
S'[]'
p185
sS'language'
p186
S'None'
p187
sS'extension'
p188
S"'#\\x01x\\xa5?v\\x00\\x00\\x00\\x19tEXtSoftware\\x00Adobe ImageReadyq\\xc9e<\\x00\\x00mHI...T\\xd5\\xbd\\xff\\xffM\\x8c\\x08B\\x08(\\xd5\\x84\\x0b\\x12\\xcb\\xb3\\x8a\\x10\\x04\\xb4\\\\\\xd1I\\x11iE\\x04\\xe9\\x15\\x15\\xfa\\xfb\\x11\\x8a\\x8a\\xda^\\x84{\\x01\\xeb\\xdf\\x85\\x0c\\xb8\\xfc\\xa9`'"
p189
sS'f'
S"'site_two_alterado\\\\uploads\\x89PNG\\r\\n\\x1a\\n\\x00\\x00\\x00\\rIHDR\\x00\\x00\\x02\\xad\\x00\\x00\\x02...T\\xd5\\xbd\\xff\\xffM\\x8c\\x08B\\x08(\\xd5\\x84\\x0b\\x12\\xcb\\xb3\\x8a\\x10\\x04\\xb4\\\\\\xd1I\\x11iE\\x04\\xe9\\x15\\x15\\xfa\\xfb\\x11\\x8a\\x8a\\xda^\\x84{\\x01\\xeb\\xdf\\x85\\x0c\\xb8\\xfc\\xa9`'"
p190
sS'items'
p191
S'[\'site_two_alterado\\\\uploads\\x89PNG\\r\\n\\x1a\\n\\x00\\x00\\x00\\rIHDR\\x00\\x00\\x02\\xad\\x00\\x00\\x02...T\\xd5\\xbd\\xff\\xffM\\x8c\\x08B\\x08(\\xd5\\x84\\x0b\\x12\\xcb\\xb3\\x8a\\x10\\x04\\xb4\\\\\\xd1I\\x11iE\\x04\\xe9\\x15\\x15\\xfa\\xfb\\x11\\x8a\\x8a\\xda^\\x84{\\x01\\xeb\\xdf\\x85\\x0c\\xb8\\xfc\\xa9`\', \'H[+*\\x12\\xee\\x92\\x87b\', \'\\x8a\\x88\\xadE\\xca \\x16\\x15\\x90\\x04\\xb1\\x02\\x026H.\\t\\x16%\\x10\\x10D\\x84\\xff|\\x87\\x19\\x1a0$\\xf3p\\xce\\xde\\xfb\\x9cy\\xbf\\xd6\\xca\\nb\\x98\\xf30g2\\x9f...FS\\x0b\\x15\\xb7\\xfc\\x01\\x00 \\xb4\\x02\\x16\\x85T\\xa9M\\x8d\\x8d\\xa4\\xcawFS\\x01\\x00 \\xb4\\x02V\\x04\\xd5\\xbcjAu g\\x04\\x00\\x00B+`KP\\x8dM\\xa2\\x92\', \'n\\xfb\\x03\\x00@h\\x05\\xac\\n\\xaa\\x85\\xd1\\xa0J\\xdfT\\x00\\x00\\x08\\xad\\x00A\\x15\\x00\\x00B+\\x00\\x82*\\x00\\x00\\x84V\\x80\\xa0\\x8a\\xf4\\x91\\xdf0[\\xdd\\xd0"_\\xbd\\xb5...\\x93\\x86\\x98\\x82p@\\tq\\x1a\\xd2\\xfa=I\\x82jI\\xb5\\xf7\\xa3\\x9d\\xe1\\xafB\\xae\\x8b\\xda1\\xd2\\n\\xbf\\xffR\\xe0\\xf6?\\x1cW\\xbdv\\xb5.\\x12j\\xefj\\xd7W\\x057\', \'\\xe3\\xc4\\x01\\x88\\x19\\xa3N\\x1f@\\x91?\\xaf\\x0c\\xbfoM\\x0e\\x07\\xd7 \\xa7\\xa7f\\x8c\\xb4\\xc2\\x8fa\\xb5\\xab\\xfa\\xe7\\xa8j6g\\x04N\\x91\\xce\\x00R\\xa7*\\xb7\\xfd\\x13\\xd5...p<\\xac\\xaa\\x93\\xed=\\x08\\xaa\\xb0\\x86\\x8cb\\x8e\\xbd\\xee~c\\x13\\xaej\\xb3r\\xebJ\\xf5\\xd4\\x07\\xff\\xad\\x8a\\x0f\\xef\\xe7\\x89\\x02\\xfc\\xa1\\xc8\\x92\\xf7\\xc0\\xe1\\xe1\\xf7d\\xf9>\\xc6\', \'+h1\\x11\\x0bN\\x85\\xd5<u\\xb2\\x86\\x87zUX\\x17X\\x1f\\xb9\\xf1A\\xeb\\xf6K&`-\\xd8\\xb0H\\x057\', \'\\xe3IJ?L\\xc4\\xf2\\xff{b\\xd7\\xe8{\\xa2\\r\\xe1uc\\xf8+\\xe0\\x87\\xe0Jh\\x85\\x13a5\\xa8h[\\x05\\x02k\\xdc\\x9e[3[\\xbd\\xb0m\\xb9*;v\\x94...WFZ\\x11OX\\rD?\\x1dv\\xe1l\\xc0f\\xb6\\x95\\x04\\x94U\\x96\\xa9\\t\\xcb\\x1f\\xa7\\x1c\\x00gb\\xa4\\x95\\xf7UyO5Y^\\xe7\\xc9\\x11WFZQ\\xdb\\x8b*\', \'\\xfc%\\x05\\xe4+\\t\\xac\\xb0]~\\xc3\\xecH[+[\\xac\', \']\\xa7\\x06\', \'\\x19G`\\x05\\xf0\\x1d\\xe1\\xb0(%v#\\xd4\\xc9\\xa5WM\\xf0\\xe4\\x88+\\xa1\\x155\\x85\\xd5\\xa6\\xd1\\xd54\\xfe\\xaeha\\x05\\x8fx\\xea\\x87\\x13\\xac)\\t\\x90\\xfa\\xd5[V...\\xb1\\xb0jS#d \\xa1\\xc0:\\xa0\\xf3\\x00\\xe3\\xfb!\\xed\\xac\\xc6\\xfde*+[!\\x1e\\xd4\\xb4\\xa2\\xa6\\xf7a\\x93u\\xaes\\xc3\\xd7d\\xa1\\xed\\xe7\\x88\\x91V^$M\\xa3\', \'\\x94b\\x02+\\xbc&\\xd8\\xa9\\xbf\\x15\\x81U\\x96b\\x1d\\xfe\\xe6d\\x02+\\x80\\xa4U\\xabs5A\\x96|-"\\xb4\\xc2\\xe6\\xc0*\\x9f\\xaaJ\\x15\\x0b\\x04\\xc0\\x83\\xa4\\xb5\\xd5=...\\x12Z\\xe1J`\\x95\\x8bZFW\\x87s6\\xe0\\x07R\\x16\\xf0\\xb3\\x9e\\xc3\\x8c\\xee\\x83\\xf4a}t\\xc3<\\x9e\\x0c\\x00\\xe9\\x18\\\\\\x1f\\x08g\\x8bA\\x84V8\\x19V\\xa9]\\x85\', \'IY@\\xcb\\xa6-\\x8dm\\x9f>\\xac\\x00,\\x0b\\xae\\x12 u\\xb7\\xc3*\\xb2\\xa1\\xa3\\x00\\xa1\\xd5\\x1f\\x81U>yQ\\xbb\\n\\xdf\\x91%ZM\\x96\\x05P\\x12\\x00\\xc0\\xc2\\xe0Z\\xaa\\xf4\\xf7q\\xcd\\x8e\\x06W\\xa3\\x13\\xb3\\x08\\xad\\xde\\x0f\\xac\\x8c\\xae\\xc2\\x97~\\x9as\\x85\\xd1%Z\\t\\xac\\x00,\\x0e\\xae\\xb1vX:\\xc9\\xc4,\\xa3\\xf5\\xad\\x84V\\xef\\x86\\xd5\\xae\\xe1\', \'FW\\xe1KR\\xc7:\\xb1\\xcfx\\x02+\\x00\\xd4\\x1e\\\\Gh\\xde\\xecp\\x93+f\\x11Z\\xbd\\x19Xem\\xe0P\\xf4S\\x0f\\xe0;\\x13\\xbb\\r3\\xb6\\xe2\\xd5\\xe6\\x8a\\xcd\\x04V\\x00^\\t\\xaeE\\xe1oc5ov\\x86\\xa9\\xfaVB\\xab\\xb7\\xc2\\xaaL\\xb6z5\\xfc\\xc7\\xe9\\xead}\\t\\xe0;\\x03\', \'hc\\xac,\\xa0\\xac\\xb2L\\r\\x7fs2O\\x02\\x00\', "\\x05W\\xb9e?W\\xe3&#\\xf5\\xad\\x84V\\xd4\\x16X\\x03\\xe1o\\xa5\\xf2\\x9e\\xce\\xd9\\x80_IY\\xc0\\xc3\\x05\\xe6*^&,\\x7f\\xdc\\xb3]\\x02\\x02Mr#\\x81_\\xce...\\xe1\\xc8\';\\xf9tDw\\x00\\xa4\\r\\x93\\x8b\\x08\\xc8\\xc4\\xab%_\\xee\\xf0\\xcc\\xb9\\x92\\xfaU\\x99h\\x95H\\xffZ\\x19\\x8d\\xbd\\xb7\\xd5\\xd5\\\\h@\\xcd\\xef\\xbb\\x12\\xb2j\\x9a\\x01", "w9\\xa7\\xcb \\x92\\xe9eKS$\\x81|\\xa7\\xa6mI\\x99\\x80\\xebA\\x9f\\xd0j\\xc7\\x0bg\\x90b\\xb1\\x00\\xa4\\xa1\'\\xaf\\x19ed\\x11\\x01", \'M\\xbc\\x92`?\\xab\\xe7\\x88\\xd3&[%\\xe2g=\\x87Q&\\x00\\xd4l\\x86\\xaa\\xbd\\x0cO\\x06\\x91<[.\\x10\\x9d\\x98\\xa5\\xb3\\xbeu\\x92\\xdb\\xe7\\x8a\\xd0j>\\xb0\\x06\\xc3...\\xbe\\xee{e\\xbc\\x1a\\xb7q\\x11\\x17"\\xd2Vt\\x16\\xbd\\x1b\\xb7\\xc7\\x87{,\\xb8\\x86\\xc2\\xdf\\xe6j\\xda\\\\\\x90\\xd0\\xea\\x91\\xc0\\xaaX0\\x008eX\\xfb~\\xda\\xb7)e\\x01\', \'U|dm\\x88\\x97\\xc0\\xeaDK\\xab\\xda<\\xb7f\\xb6\\xea\\xf9?\\xa3\\x19a\\x05N\\x066)\\x11\\xc8\\x0f\\x7f\\xadr!\\xb8z\\xa9\\xb3\\x80\\x9c\\x07\\x1d\\xdd\\x04\\xaew\\xb2\\xf6\\x97\\xd0\\xeaN`\\x95Y\\x85\\xa5\\x04V\\xe0$\\x19Q\\x1cpE\\x7f\\xed\\xdb\\xfd\\xafuEV\\x9e\\x0f\\x99\\xc5\\xbfp\\xf0LW\\x03\\xab\\x04\\xf6\\xa1\', \'\\xff\\xdc\\xfaZ^\\xc0@p-\\t\\x7f\\x05\\xd4\\xc9\\xa6\\xfbN\\x067y\\xcf\\x0fy!\\xb8F\\xcb\\x04\\xc6h\\xda\\x9cc\\xb5\\xad\\x84Vw\\x02kH\\xd1!\\x008EVd...\\xc9(\\xab\\xac\\xc8\\xa4\\x93L\\xbezt\\xc3<+\\xcf\\x85\\xb4\\x9dr3\\xb0\\xcad\\xabQkiT\\x02\\xc4\\x19\\xdcJ\\xa2\\xc1\\xd5\\xc9\\x1aO\\xcf\\x04W\\xa5o\\xb45Hh\\xb5\', "\\xb0\\xce!\\xb0\\x02\\xa7\\x9b\\xd8m\\x98\\xf6QV[\'_\\xc9\\xb9p\\xab$`s\\xc5\\xe6H9\\x00\\x93\\xad\\x80\\x84\\x83ke\\xf8K\\xde\\xc3\\xc7\\xa6[p\\x8d\\x86v\\x1d\\x93...\\x93\\x8f\\xba\\xb7\\xee\\xaeu\\x9b\\xb6\\x8c\\xb2\\xca\\xb1?\\\\\\xf0\\x00\\x81\\x15\\xf0\\x7fpu*lN\\xb7\\xb8\\xbe5\\xa8a\\x1b\\x85\\x89\\x96I\\x10Zk\\x0f\\xac3\\x08\\xac@\\x02\\x1f\\x9b", ...]'
p192
sS'host'
p193
S'None'
p194
sS'hmac_key'
p195
S'None'
p196
sS'r'
S"<Storage {'_vars': <Storage {}>, 'function': 'In...ite\\\\web2py\\\\applications\\\\site_two_alterado\\\\'}>"
p197
sS'x'
S"'q*\\x0e\\x9fy\\xdb\\xb9x\\xf9\\xa2S{\\xee\\x94\\x9b\\xb1\\x0c\\x88VD+\\xa2\\x15\\xc2\\xc3\\x7f\\x04\\x18\\x00\\xdbp\\xf7EX\\xcbC\\xcf\\x00\\x00\\x00\\x00IEND\\xaeB`\\x82'"
p198
sS'salt'
p199
S'None'
p200
sS'anchor'
p201
S"''"
p202
sssS'traceback'
p203
S'Traceback (most recent call last):\n  File "C:\\Users\\TecSUS-3\\Desktop\\template_site\\web2py\\gluon\\restricted.py", line 227, in restricted\n    exec ccode in environment\n  File "C:\\Users\\TecSUS-3\\Desktop\\template_site\\web2py\\applications\\site_two_alterado\\views\\Veiculo/Inicio.html", line 114, in <module>\n  File "C:\\Users\\TecSUS-3\\Desktop\\template_site\\web2py\\gluon\\html.py", line 399, in URL\n    raise SyntaxError(\'CRLF Injection Detected\')\nSyntaxError: CRLF Injection Detected\n'
p204
s.