(dp1
S'output'
p2
S"<type 'exceptions.AttributeError'> 'DAL' object has no attribute 'foto'"
p3
sS'layer'
p4
S'C:\\Users\\TecSUS-3\\Desktop\\template_site\\web2py\\applications\\site_two_alterado\\views\\Veiculo/Inicio.html'
p5
sS'code'
p6
S'response.write(\'<!-- Layout indpendente do criado pelo web2py !-->\\r\\n<!DOCTYPE html>\\r\\n\\r\\n<!-- arquivos que n\\xc3\\xa3o podem faltar>\\r\\n\', escape=False)\nresponse.write(\'<script type="text/javascript"><!--\\n    // These variables are used by the web2py_ajax_init function in web2py_ajax.js (which is loaded below).\\n    var w2p_ajax_confirm_message = "\', escape=False)\nresponse.write(T(\'Are you sure you want to delete this object?\'))\nresponse.write(\'";\\n    var w2p_ajax_disable_with_message = "\', escape=False)\nresponse.write(T(\'Working...\'))\nresponse.write(\'";\\n    var w2p_ajax_date_format = "\', escape=False)\nresponse.write(T(\'%Y-%m-%d\'))\nresponse.write(\'";\\n    var w2p_ajax_datetime_format = "\', escape=False)\nresponse.write(T(\'%Y-%m-%d %H:%M:%S\'))\nresponse.write(\'";\\n    var ajax_error_500 = \\\'\', escape=False)\nresponse.write(T.M(\'An error occured, please [[reload %s]] the page\') % URL(args=request.args, vars=request.get_vars))\nresponse.write("\'\\n    //--></script>\\n", escape=False)\nresponse.files.insert(0,URL(\'static\',\'js/jquery.js\'))\nresponse.files.insert(1,URL(\'static\',\'css/calendar.css\'))\nresponse.files.insert(2,URL(\'static\',\'js/calendar.js\'))\nresponse.files.insert(3,URL(\'static\',\'js/web2py.js\'))\nresponse.include_meta()\nresponse.include_files()\nresponse.write(\'\\n\', escape=False)\nresponse.write(\'\\r\\n\\r\\n<!-- include stylesheets -->\\r\\n<link rel="stylesheet" href="\', escape=False)\nresponse.write(URL(\'static\',\'css/bootstrap.min.css\'))\nresponse.write(\'"/>\\r\\n<link rel="stylesheet" href="\', escape=False)\nresponse.write(URL(\'static\',\'css/bootstrap-theme.min.css\'))\nresponse.write(\'"/>\\r\\n<link rel="stylesheet" href="\', escape=False)\nresponse.write(URL(\'static\',\'css/web2py-bootstrap3.css\'))\nresponse.write(\'"/>\\r\\n<link rel="shortcut icon" href="\', escape=False)\nresponse.write(URL(\'static\',\'images/favicon.ico\'))\nresponse.write(\'" type="image/x-icon">\\r\\n<link rel="apple-touch-icon" href="\', escape=False)\nresponse.write(URL(\'static\',\'images/favicon.png\'))\nresponse.write(\'">\\r\\n\\r\\n<html xmlns="http://www.w3.org/1999/xhtml" xml:lang="\', escape=False)\nresponse.write(T.accepted_language or \'en\')\nresponse.write(\'">\\r\\n<head lang="en">\\r\\n    <meta charset="UTF-8">\\r\\n    <title>Loja de Carros</title>\\r\\n</head>\\r\\n<body>\\r\\n\\r\\n     <div class="ez-box" id="statusbar">\\r\\n\\t  \', escape=False)\n#------ superfish menu ------\nresponse.write(\'\\r\\n\\t  \', escape=False)\n#=MENU(response.menu,_class=\'sf-menu\')\nresponse.write(\'\\r\\n          <script>\\r\\n\\t    jQuery(document).ready(function(){\\r\\n              jQuery(\\\'ul.sf-menu\\\').superfish({delay:400});});\\r\\n\\t  </script>\\r\\n\\t</div>\\r\\n\\r\\n    <!--fazendo um menu lateral!-->\\r\\n    <div class="ez-fl ez-negmx">\\r\\n            <div class="ez-box" id="left_sidebar">\\r\\n                \', escape=False)\nresponse.write(\'\\r\\n                    \', escape=False)\nresponse.write(MENU(response.MeuMenu,_class=\'sf-menu\'))\nresponse.write(\'\\r\\n                \', escape=False)\nresponse.write(\'\\r\\n            </div>\\r\\n\\t</div>\\r\\n\\r\\n     <!--rodape!-->\\r\\n    <div class="ez-box" id="footer">\\r\\n          \', escape=False)\nresponse.write(T(\'Copyright\'))\nresponse.write(\' &#169; 2015 -\\r\\n          \', escape=False)\nresponse.write(T(\'Powered by\'))\nresponse.write(\' <a href="hehehe.com.br">hehehe</a>\\r\\n          \', escape=False)\ntry:\n    response.write(\'\\r\\n          \', escape=False)\n    response.write(auth.navbar(action=URL(request.application,\'default\',\'user\')))\n    response.write(\'\\r\\n          \', escape=False)\nexcept:pass\nresponse.write(\'\\r\\n          | \', escape=False)\nresponse.write(A(\'admin\',_href=URL(\'admin\')))\nresponse.write(\' |\\r\\n\\t</div>\\r\\n\\r\\n\\r\\n    <div class="ez-fl ez-negmr">\\r\\n            <div class="ez-box" id="content">\', escape=False)\nresponse.write(\'\\r\\n<!DOCTYPE html>\\r\\n\\r\\n<!--  Tentativa e criar login!-->\\r\\n<h2>\', escape=False)\nresponse.write(request.args(0))\nresponse.write(\'</h2>\\r\\n\\r\\n    \', escape=False)\nif request.args(0)==\'login\':\n    response.write(\'\\r\\n        <a href="\', escape=False)\n    response.write(URL(args=\'register\'))\n    response.write(\'" >register</a><br />\\r\\n        <a href="\', escape=False)\n    response.write(URL(args=\'request_reset_password\'))\n    response.write(\'" >lost password</a><br />\\r\\n    \', escape=False)\n    pass\nresponse.write(\'\\r\\n\\r\\n<html>\\r\\n\\r\\n<head lang="en">\\r\\n    <meta charset="UTF-8">\\r\\n    <h1>Inicial</h1>\\r\\n\\r\\n</head>\\r\\n\\r\\n<body>\\r\\n\\r\\n    <br><br><br><br>\\r\\n  <!--  <h1>Carros Grid</h1>\\r\\n\\r\\n    <br><br><br><br>\\r\\n    !-->\\r\\n    \', escape=False)\nresponse.write(agora)\nresponse.write(\'\\r\\n\\r\\n    <h1>Carros smartgrid</h1>\\r\\n    \', escape=False)\nresponse.write(car_smartgrid)\nresponse.write(\'\\r\\n\\r\\n    <div style="text-align: center">\\r\\n    <img width="200px" src="\', escape=False)\nresponse.write(URL(\'download\',args=db2.foto))\nresponse.write(\'"\\r\\n    </div>\\r\\n\\r\\n    <h1>Visitas</h1>\\r\\n    \', escape=False)\nresponse.write(counter)\nresponse.write(\'\\r\\n\\r\\n    \', escape=False)\nresponse.write(session.visitor_name)\nresponse.write(\'\\r\\n\\r\\n</body>\\r\\n\\r\\n</html>\', escape=False)\nresponse.write(\'</div>\\r\\n\\t</div>\\r\\n\\r\\n</body>\\r\\n</html>\', escape=False)'
p7
sS'snapshot'
p8
(dp9
S'exception'
p10
(dp11
S'__hash__'
p12
S"<method-wrapper '__hash__' of exceptions.AttributeError object>"
p13
sS'__setattr__'
p14
S"<method-wrapper '__setattr__' of exceptions.AttributeError object>"
p15
sS'__reduce_ex__'
p16
S'<built-in method __reduce_ex__ of exceptions.AttributeError object>'
p17
sS'__getslice__'
p18
S"<method-wrapper '__getslice__' of exceptions.AttributeError object>"
p19
sS'__getitem__'
p20
S"<method-wrapper '__getitem__' of exceptions.AttributeError object>"
p21
sS'__setstate__'
p22
S'<built-in method __setstate__ of exceptions.AttributeError object>'
p23
sS'__reduce__'
p24
S'<built-in method __reduce__ of exceptions.AttributeError object>'
p25
sS'__str__'
p26
S"<method-wrapper '__str__' of exceptions.AttributeError object>"
p27
sS'__format__'
p28
S'<built-in method __format__ of exceptions.AttributeError object>'
p29
sS'__getattribute__'
p30
S"<method-wrapper '__getattribute__' of exceptions.AttributeError object>"
p31
sS'__class__'
p32
S"<type 'exceptions.AttributeError'>"
p33
sS'__unicode__'
p34
S'<built-in method __unicode__ of exceptions.AttributeError object>'
p35
sS'__delattr__'
p36
S"<method-wrapper '__delattr__' of exceptions.AttributeError object>"
p37
sS'__subclasshook__'
p38
S'<built-in method __subclasshook__ of type object>'
p39
sS'__repr__'
p40
S"<method-wrapper '__repr__' of exceptions.AttributeError object>"
p41
sS'args'
p42
S'("\'DAL\' object has no attribute \'foto\'",)'
p43
sS'__dict__'
p44
S'{}'
p45
sS'__sizeof__'
p46
S'<built-in method __sizeof__ of exceptions.AttributeError object>'
p47
sS'__doc__'
p48
S"'Attribute not found.'"
p49
sS'__init__'
p50
S"<method-wrapper '__init__' of exceptions.AttributeError object>"
p51
sS'__new__'
p52
S'<built-in method __new__ of type object>'
p53
ssS'evalue'
p54
S"'DAL' object has no attribute 'foto'"
p55
sS'request'
p56
cgluon.html
XML_unpickle
p57
(S's\x18g\x00\x00<div><table><tr><td style="font-weight:bold;vertical-align:top;">ajax</td><td style="vertical-align:top;">:</td><td><div>False</div></td></tr><tr><td style="font-weight:bold;vertical-align:top;">application</td><td style="vertical-align:top;">:</td><td><div>site_two_alterado</div></td></tr><tr><td style="font-weight:bold;vertical-align:top;">args</td><td style="vertical-align:top;">:</td><td><div><table><tr><td><div>carro</div></td></tr></table></div></td></tr><tr><td style="font-weight:bold;vertical-align:top;">cid</td><td style="vertical-align:top;">:</td><td><div>None</div></td></tr><tr><td style="font-weight:bold;vertical-align:top;">client</td><td style="vertical-align:top;">:</td><td><div>127.0.0.1</div></td></tr><tr><td style="font-weight:bold;vertical-align:top;">controller</td><td style="vertical-align:top;">:</td><td><div>Veiculo</div></td></tr><tr><td style="font-weight:bold;vertical-align:top;">cookies</td><td style="vertical-align:top;">:</td><td><div><table><tr><td style="font-weight:bold;vertical-align:top;">session_id_admin</td><td style="vertical-align:top;">:</td><td><div>127.0.0.1-5c2f2565-9468-4e2d-9c19-71bd416a5dca<table><tr><td style="font-weight:bold;vertical-align:top;">comment</td><td style="vertical-align:top;">:</td><td><div></div></td></tr><tr><td style="font-weight:bold;vertical-align:top;">domain</td><td style="vertical-align:top;">:</td><td><div></div></td></tr><tr><td style="font-weight:bold;vertical-align:top;">expires</td><td style="vertical-align:top;">:</td><td><div></div></td></tr><tr><td style="font-weight:bold;vertical-align:top;">httponly</td><td style="vertical-align:top;">:</td><td><div></div></td></tr><tr><td style="font-weight:bold;vertical-align:top;">max-age</td><td style="vertical-align:top;">:</td><td><div></div></td></tr><tr><td style="font-weight:bold;vertical-align:top;">path</td><td style="vertical-align:top;">:</td><td><div></div></td></tr><tr><td style="font-weight:bold;vertical-align:top;">secure</td><td style="vertical-align:top;">:</td><td><div></div></td></tr><tr><td style="font-weight:bold;vertical-align:top;">version</td><td style="vertical-align:top;">:</td><td><div></div></td></tr></table></div></td></tr><tr><td style="font-weight:bold;vertical-align:top;">session_id_site_completo</td><td style="vertical-align:top;">:</td><td><div>127.0.0.1-259605c4-a3a1-4099-bdf0-7f7be634b80f<table><tr><td style="font-weight:bold;vertical-align:top;">comment</td><td style="vertical-align:top;">:</td><td><div></div></td></tr><tr><td style="font-weight:bold;vertical-align:top;">domain</td><td style="vertical-align:top;">:</td><td><div></div></td></tr><tr><td style="font-weight:bold;vertical-align:top;">expires</td><td style="vertical-align:top;">:</td><td><div></div></td></tr><tr><td style="font-weight:bold;vertical-align:top;">httponly</td><td style="vertical-align:top;">:</td><td><div></div></td></tr><tr><td style="font-weight:bold;vertical-align:top;">max-age</td><td style="vertical-align:top;">:</td><td><div></div></td></tr><tr><td style="font-weight:bold;vertical-align:top;">path</td><td style="vertical-align:top;">:</td><td><div></div></td></tr><tr><td style="font-weight:bold;vertical-align:top;">secure</td><td style="vertical-align:top;">:</td><td><div></div></td></tr><tr><td style="font-weight:bold;vertical-align:top;">version</td><td style="vertical-align:top;">:</td><td><div></div></td></tr></table></div></td></tr><tr><td style="font-weight:bold;vertical-align:top;">session_id_site_two_alterado</td><td style="vertical-align:top;">:</td><td><div>127.0.0.1-aef6a1e9-27cc-424c-981d-6d93d6561c2f<table><tr><td style="font-weight:bold;vertical-align:top;">comment</td><td style="vertical-align:top;">:</td><td><div></div></td></tr><tr><td style="font-weight:bold;vertical-align:top;">domain</td><td style="vertical-align:top;">:</td><td><div></div></td></tr><tr><td style="font-weight:bold;vertical-align:top;">expires</td><td style="vertical-align:top;">:</td><td><div></div></td></tr><tr><td style="font-weight:bold;vertical-align:top;">httponly</td><td style="vertical-align:top;">:</td><td><div></div></td></tr><tr><td style="font-weight:bold;vertical-align:top;">max-age</td><td style="vertical-align:top;">:</td><td><div></div></td></tr><tr><td style="font-weight:bold;vertical-align:top;">path</td><td style="vertical-align:top;">:</td><td><div></div></td></tr><tr><td style="font-weight:bold;vertical-align:top;">secure</td><td style="vertical-align:top;">:</td><td><div></div></td></tr><tr><td style="font-weight:bold;vertical-align:top;">version</td><td style="vertical-align:top;">:</td><td><div></div></td></tr></table></div></td></tr><tr><td style="font-weight:bold;vertical-align:top;">session_id_welcome</td><td style="vertical-align:top;">:</td><td><div>127.0.0.1-07aeb785-c07c-4692-81f6-19e339ce01ec<table><tr><td style="font-weight:bold;vertical-align:top;">comment</td><td style="vertical-align:top;">:</td><td><div></div></td></tr><tr><td style="font-weight:bold;vertical-align:top;">domain</td><td style="vertical-align:top;">:</td><td><div></div></td></tr><tr><td style="font-weight:bold;vertical-align:top;">expires</td><td style="vertical-align:top;">:</td><td><div></div></td></tr><tr><td style="font-weight:bold;vertical-align:top;">httponly</td><td style="vertical-align:top;">:</td><td><div></div></td></tr><tr><td style="font-weight:bold;vertical-align:top;">max-age</td><td style="vertical-align:top;">:</td><td><div></div></td></tr><tr><td style="font-weight:bold;vertical-align:top;">path</td><td style="vertical-align:top;">:</td><td><div></div></td></tr><tr><td style="font-weight:bold;vertical-align:top;">secure</td><td style="vertical-align:top;">:</td><td><div></div></td></tr><tr><td style="font-weight:bold;vertical-align:top;">version</td><td style="vertical-align:top;">:</td><td><div></div></td></tr></table></div></td></tr></table></div></td></tr><tr><td style="font-weight:bold;vertical-align:top;">env</td><td style="vertical-align:top;">:</td><td><div><table><tr><td style="font-weight:bold;vertical-align:top;">HTTP_ACCEPT</td><td style="vertical-align:top;">:</td><td><div>text/html,application/xhtml+xml,application/xml;q=0.9,image/webp,*/*;q=0.8</div></td></tr><tr><td style="font-weight:bold;vertical-align:top;">HTTP_ACCEPT_ENCODING</td><td style="vertical-align:top;">:</td><td><div>gzip, deflate, sdch</div></td></tr><tr><td style="font-weight:bold;vertical-align:top;">HTTP_ACCEPT_LANGUAGE</td><td style="vertical-align:top;">:</td><td><div>pt-BR,pt;q=0.8,en-US;q=0.6,en;q=0.4</div></td></tr><tr><td style="font-weight:bold;vertical-align:top;">HTTP_CACHE_CONTROL</td><td style="vertical-align:top;">:</td><td><div>max-age=0</div></td></tr><tr><td style="font-weight:bold;vertical-align:top;">HTTP_CONNECTION</td><td style="vertical-align:top;">:</td><td><div>keep-alive</div></td></tr><tr><td style="font-weight:bold;vertical-align:top;">HTTP_COOKIE</td><td style="vertical-align:top;">:</td><td><div>session_id_site_completo=127.0.0.1-259605c4-a3a1-4099-bdf0-7f7be634b80f; session_id_welcome=127.0.0.1-07aeb785-c07c-4692-81f6-19e339ce01ec; session_id_admin=127.0.0.1-5c2f2565-9468-4e2d-9c19-71bd416a5dca; session_id_site_two_alterado=127.0.0.1-aef6a1e9-27cc-424c-981d-6d93d6561c2f</div></td></tr><tr><td style="font-weight:bold;vertical-align:top;">HTTP_HOST</td><td style="vertical-align:top;">:</td><td><div>127.0.0.1:8000</div></td></tr><tr><td style="font-weight:bold;vertical-align:top;">HTTP_REFERER</td><td style="vertical-align:top;">:</td><td><div>http://127.0.0.1:8000/site_two_alterado/default/index</div></td></tr><tr><td style="font-weight:bold;vertical-align:top;">HTTP_UPGRADE_INSECURE_REQUESTS</td><td style="vertical-align:top;">:</td><td><div>1</div></td></tr><tr><td style="font-weight:bold;vertical-align:top;">HTTP_USER_AGENT</td><td style="vertical-align:top;">:</td><td><div>Mozilla/5.0 (Windows NT 6.1; WOW64) AppleWebKit/537.36 (KHTML, like Gecko) Chrome/44.0.2403.125 Safari/537.36</div></td></tr><tr><td style="font-weight:bold;vertical-align:top;">PATH_INFO</td><td style="vertical-align:top;">:</td><td><div>/site_two_alterado/Veiculo/Inicio</div></td></tr><tr><td style="font-weight:bold;vertical-align:top;">QUERY_STRING</td><td style="vertical-align:top;">:</td><td><div></div></td></tr><tr><td style="font-weight:bold;vertical-align:top;">REMOTE_ADDR</td><td style="vertical-align:top;">:</td><td><div>127.0.0.1</div></td></tr><tr><td style="font-weight:bold;vertical-align:top;">REMOTE_PORT</td><td style="vertical-align:top;">:</td><td><div>50822</div></td></tr><tr><td style="font-weight:bold;vertical-align:top;">REQUEST_METHOD</td><td style="vertical-align:top;">:</td><td><div>GET</div></td></tr><tr><td style="font-weight:bold;vertical-align:top;">SCRIPT_NAME</td><td style="vertical-align:top;">:</td><td><div></div></td></tr><tr><td style="font-weight:bold;vertical-align:top;">SERVER_NAME</td><td style="vertical-align:top;">:</td><td><div>TecSUS-3-PC</div></td></tr><tr><td style="font-weight:bold;vertical-align:top;">SERVER_PORT</td><td style="vertical-align:top;">:</td><td><div>8000</div></td></tr><tr><td style="font-weight:bold;vertical-align:top;">SERVER_PROTOCOL</td><td style="vertical-align:top;">:</td><td><div>HTTP/1.1</div></td></tr><tr><td style="font-weight:bold;vertical-align:top;">SERVER_SOFTWARE</td><td style="vertical-align:top;">:</td><td><div>Rocket 1.2.6</div></td></tr><tr><td style="font-weight:bold;vertical-align:top;">app_folders</td><td style="vertical-align:top;">:</td><td><div>set([&#x27;C:\\\\Users\\\\TecSUS-3\\\\Desktop\\\\template_site\\\\web2py\\\\applications\\\\admin\\\\&#x27;, &#x27;C:\\\\Users\\\\TecSUS-3\\\\Desktop\\\\template_site\\\\web2py\\\\applications\\\\site_two_alterado\\\\&#x27;, &#x27;C:\\\\Users\\\\TecSUS-3\\\\Desktop\\\\template_site\\\\web2py\\\\applications\\\\welcome\\\\&#x27;])</div></td></tr><tr><td style="font-weight:bold;vertical-align:top;">applications_parent</td><td style="vertical-align:top;">:</td><td><div>C:\\Users\\TecSUS-3\\Desktop\\template_site\\web2py</div></td></tr><tr><td style="font-weight:bold;vertical-align:top;">cmd_args</td><td style="vertical-align:top;">:</td><td><div><table></table></div></td></tr><tr><td style="font-weight:bold;vertical-align:top;">cmd_options</td><td style="vertical-align:top;">:</td><td><div>&lt;Values at 0x3757cb0: {&#x27;verbose&#x27;: False, &#x27;ip&#x27;: &#x27;127.0.0.1&#x27;, &#x27;debuglevel&#x27;: 30, &#x27;with_scheduler&#x27;: False, &#x27;ips&#x27;: [&#x27;192.241.173.135&#x27;], &#x27;shutdown_timeout&#x27;: 5, &#x27;taskbar&#x27;: False, &#x27;with_coverage&#x27;: False, &#x27;scheduler_groups&#x27;: None, &#x27;port&#x27;: 8000, &#x27;maxthreads&#x27;: None, &#x27;softcron&#x27;: False, &#x27;server_name&#x27;: &#x27;TecSUS-3-PC&#x27;, &#x27;bpython&#x27;: False, &#x27;nogui&#x27;: False, &#x27;pid_filename&#x27;: &#x27;httpserver.pid&#x27;, &#x27;print_errors&#x27;: False, &#x27;extcron&#x27;: False, &#x27;runcron&#x27;: False, &#x27;run_system_tests&#x27;: False, &#x27;test&#x27;: None, &#x27;folder&#x27;: &#x27;C:\\\\Users\\\\TecSUS-3\\\\Desktop\\\\template_site\\\\web2py&#x27;, &#x27;config&#x27;: &#x27;&#x27;, &#x27;minthreads&#x27;: None, &#x27;shell&#x27;: None, &#x27;run&#x27;: &#x27;&#x27;, &#x27;log_filename&#x27;: &#x27;httpserver.log&#x27;, &#x27;profiler_dir&#x27;: None, &#x27;args&#x27;: [&#x27;&#x27;], &#x27;socket_timeout&#x27;: 5, &#x27;ssl_ca_certificate&#x27;: None, &#x27;scheduler&#x27;: None, &#x27;interfaces&#x27;: None, &#x27;ssl_private_key&#x27;: &#x27;&#x27;, &#x27;gae&#x27;: None, &#x27;password&#x27;: &#x27;&lt;ask&gt;&#x27;, &#x27;request_queue_size&#x27;: 5, &#x27;ssl_certificate&#x27;: &#x27;&#x27;, &#x27;cronjob&#x27;: False, &#x27;numthreads&#x27;: None, &#x27;quiet&#x27;: False, &#x27;import_models&#x27;: False, &#x27;timeout&#x27;: 10, &#x27;plain&#x27;: False, &#x27;nobanner&#x27;: False}&gt;</div></td></tr><tr><td style="font-weight:bold;vertical-align:top;">db_sessions</td><td style="vertical-align:top;">:</td><td><div>set([])</div></td></tr><tr><td style="font-weight:bold;vertical-align:top;">debugging</td><td style="vertical-align:top;">:</td><td><div>False</div></td></tr><tr><td style="font-weight:bold;vertical-align:top;">gluon_parent</td><td style="vertical-align:top;">:</td><td><div>C:\\Users\\TecSUS-3\\Desktop\\template_site\\web2py</div></td></tr><tr><td style="font-weight:bold;vertical-align:top;">http_accept</td><td style="vertical-align:top;">:</td><td><div>text/html,application/xhtml+xml,application/xml;q=0.9,image/webp,*/*;q=0.8</div></td></tr><tr><td style="font-weight:bold;vertical-align:top;">http_accept_encoding</td><td style="vertical-align:top;">:</td><td><div>gzip, deflate, sdch</div></td></tr><tr><td style="font-weight:bold;vertical-align:top;">http_accept_language</td><td style="vertical-align:top;">:</td><td><div>pt-BR,pt;q=0.8,en-US;q=0.6,en;q=0.4</div></td></tr><tr><td style="font-weight:bold;vertical-align:top;">http_cache_control</td><td style="vertical-align:top;">:</td><td><div>max-age=0</div></td></tr><tr><td style="font-weight:bold;vertical-align:top;">http_connection</td><td style="vertical-align:top;">:</td><td><div>keep-alive</div></td></tr><tr><td style="font-weight:bold;vertical-align:top;">http_cookie</td><td style="vertical-align:top;">:</td><td><div>session_id_site_completo=127.0.0.1-259605c4-a3a1-4099-bdf0-7f7be634b80f; session_id_welcome=127.0.0.1-07aeb785-c07c-4692-81f6-19e339ce01ec; session_id_admin=127.0.0.1-5c2f2565-9468-4e2d-9c19-71bd416a5dca; session_id_site_two_alterado=127.0.0.1-aef6a1e9-27cc-424c-981d-6d93d6561c2f</div></td></tr><tr><td style="font-weight:bold;vertical-align:top;">http_host</td><td style="vertical-align:top;">:</td><td><div>127.0.0.1:8000</div></td></tr><tr><td style="font-weight:bold;vertical-align:top;">http_referer</td><td style="vertical-align:top;">:</td><td><div>http://127.0.0.1:8000/site_two_alterado/default/index</div></td></tr><tr><td style="font-weight:bold;vertical-align:top;">http_upgrade_insecure_requests</td><td style="vertical-align:top;">:</td><td><div>1</div></td></tr><tr><td style="font-weight:bold;vertical-align:top;">http_user_agent</td><td style="vertical-align:top;">:</td><td><div>Mozilla/5.0 (Windows NT 6.1; WOW64) AppleWebKit/537.36 (KHTML, like Gecko) Chrome/44.0.2403.125 Safari/537.36</div></td></tr><tr><td style="font-weight:bold;vertical-align:top;">is_jython</td><td style="vertical-align:top;">:</td><td><div>False</div></td></tr><tr><td style="font-weight:bold;vertical-align:top;">is_pypy</td><td style="vertical-align:top;">:</td><td><div>False</div></td></tr><tr><td style="font-weight:bold;vertical-align:top;">is_source</td><td style="vertical-align:top;">:</td><td><div>True</div></td></tr><tr><td style="font-weight:bold;vertical-align:top;">local_hosts</td><td style="vertical-align:top;">:</td><td><div><table><tr><td><div>192.241.173.135</div></td></tr><tr><td><div>fe80::487:2eff:2cf4:8cd6%11</div></td></tr><tr><td><div>TecSUS-3-PC</div></td></tr><tr><td><div>TecSUS-3-PC.tecsus.com.br</div></td></tr><tr><td><div>::ffff:127.0.0.1</div></td></tr><tr><td><div>::1</div></td></tr><tr><td><div>192.168.0.2</div></td></tr><tr><td><div>fe80::5efe:192.168.0.2%12</div></td></tr><tr><td><div>127.0.0.1</div></td></tr></table></div></td></tr><tr><td style="font-weight:bold;vertical-align:top;">path_info</td><td style="vertical-align:top;">:</td><td><div>/site_two_alterado/Veiculo/Inicio</div></td></tr><tr><td style="font-weight:bold;vertical-align:top;">query_string</td><td style="vertical-align:top;">:</td><td><div></div></td></tr><tr><td style="font-weight:bold;vertical-align:top;">remote_addr</td><td style="vertical-align:top;">:</td><td><div>127.0.0.1</div></td></tr><tr><td style="font-weight:bold;vertical-align:top;">remote_port</td><td style="vertical-align:top;">:</td><td><div>50822</div></td></tr><tr><td style="font-weight:bold;vertical-align:top;">request_method</td><td style="vertical-align:top;">:</td><td><div>GET</div></td></tr><tr><td style="font-weight:bold;vertical-align:top;">request_uri</td><td style="vertical-align:top;">:</td><td><div>/site_two_alterado/Veiculo/Inicio</div></td></tr><tr><td style="font-weight:bold;vertical-align:top;">script_name</td><td style="vertical-align:top;">:</td><td><div></div></td></tr><tr><td style="font-weight:bold;vertical-align:top;">server_name</td><td style="vertical-align:top;">:</td><td><div>TecSUS-3-PC</div></td></tr><tr><td style="font-weight:bold;vertical-align:top;">server_port</td><td style="vertical-align:top;">:</td><td><div>8000</div></td></tr><tr><td style="font-weight:bold;vertical-align:top;">server_protocol</td><td style="vertical-align:top;">:</td><td><div>HTTP/1.1</div></td></tr><tr><td style="font-weight:bold;vertical-align:top;">server_software</td><td style="vertical-align:top;">:</td><td><div>Rocket 1.2.6</div></td></tr><tr><td style="font-weight:bold;vertical-align:top;">web2py_path</td><td style="vertical-align:top;">:</td><td><div>C:\\Users\\TecSUS-3\\Desktop\\template_site\\web2py</div></td></tr><tr><td style="font-weight:bold;vertical-align:top;">web2py_version</td><td style="vertical-align:top;">:</td><td><div>2.10.4-stable+timestamp.2015.04.26.15.11.54</div></td></tr><tr><td style="font-weight:bold;vertical-align:top;">wsgi.errors</td><td style="vertical-align:top;">:</td><td><div>&lt;open file &#x27;&lt;stderr&gt;&#x27;, mode &#x27;w&#x27; at 0x0048D0D0&gt;</div></td></tr><tr><td style="font-weight:bold;vertical-align:top;">wsgi.file_wrapper</td><td style="vertical-align:top;">:</td><td><div>&lt;class wsgiref.util.FileWrapper at 0x036F2F10&gt;</div></td></tr><tr><td style="font-weight:bold;vertical-align:top;">wsgi.input</td><td style="vertical-align:top;">:</td><td><div>&lt;socket._fileobject object at 0x03A060B0&gt;</div></td></tr><tr><td style="font-weight:bold;vertical-align:top;">wsgi.multiprocess</td><td style="vertical-align:top;">:</td><td><div>False</div></td></tr><tr><td style="font-weight:bold;vertical-align:top;">wsgi.multithread</td><td style="vertical-align:top;">:</td><td><div>True</div></td></tr><tr><td style="font-weight:bold;vertical-align:top;">wsgi.run_once</td><td style="vertical-align:top;">:</td><td><div>False</div></td></tr><tr><td style="font-weight:bold;vertical-align:top;">wsgi.url_scheme</td><td style="vertical-align:top;">:</td><td><div>http</div></td></tr><tr><td style="font-weight:bold;vertical-align:top;">wsgi.version</td><td style="vertical-align:top;">:</td><td><div><table><tr><td><div>1</div></td></tr><tr><td><div>0</div></td></tr></table></div></td></tr><tr><td style="font-weight:bold;vertical-align:top;">wsgi_errors</td><td style="vertical-align:top;">:</td><td><div>&lt;open file &#x27;&lt;stderr&gt;&#x27;, mode &#x27;w&#x27; at 0x0048D0D0&gt;</div></td></tr><tr><td style="font-weight:bold;vertical-align:top;">wsgi_file_wrapper</td><td style="vertical-align:top;">:</td><td><div>&lt;class wsgiref.util.FileWrapper at 0x036F2F10&gt;</div></td></tr><tr><td style="font-weight:bold;vertical-align:top;">wsgi_input</td><td style="vertical-align:top;">:</td><td><div>&lt;socket._fileobject object at 0x03A060B0&gt;</div></td></tr><tr><td style="font-weight:bold;vertical-align:top;">wsgi_multiprocess</td><td style="vertical-align:top;">:</td><td><div>False</div></td></tr><tr><td style="font-weight:bold;vertical-align:top;">wsgi_multithread</td><td style="vertical-align:top;">:</td><td><div>True</div></td></tr><tr><td style="font-weight:bold;vertical-align:top;">wsgi_run_once</td><td style="vertical-align:top;">:</td><td><div>False</div></td></tr><tr><td style="font-weight:bold;vertical-align:top;">wsgi_url_scheme</td><td style="vertical-align:top;">:</td><td><div>http</div></td></tr><tr><td style="font-weight:bold;vertical-align:top;">wsgi_version</td><td style="vertical-align:top;">:</td><td><div><table><tr><td><div>1</div></td></tr><tr><td><div>0</div></td></tr></table></div></td></tr></table></div></td></tr><tr><td style="font-weight:bold;vertical-align:top;">extension</td><td style="vertical-align:top;">:</td><td><div>html</div></td></tr><tr><td style="font-weight:bold;vertical-align:top;">folder</td><td style="vertical-align:top;">:</td><td><div>C:\\Users\\TecSUS-3\\Desktop\\template_site\\web2py\\applications\\site_two_alterado\\</div></td></tr><tr><td style="font-weight:bold;vertical-align:top;">function</td><td style="vertical-align:top;">:</td><td><div>Inicio</div></td></tr><tr><td style="font-weight:bold;vertical-align:top;">global_settings</td><td style="vertical-align:top;">:</td><td><div><table><tr><td style="font-weight:bold;vertical-align:top;">app_folders</td><td style="vertical-align:top;">:</td><td><div>set([&#x27;C:\\\\Users\\\\TecSUS-3\\\\Desktop\\\\template_site\\\\web2py\\\\applications\\\\admin\\\\&#x27;, &#x27;C:\\\\Users\\\\TecSUS-3\\\\Desktop\\\\template_site\\\\web2py\\\\applications\\\\site_two_alterado\\\\&#x27;, &#x27;C:\\\\Users\\\\TecSUS-3\\\\Desktop\\\\template_site\\\\web2py\\\\applications\\\\welcome\\\\&#x27;])</div></td></tr><tr><td style="font-weight:bold;vertical-align:top;">applications_parent</td><td style="vertical-align:top;">:</td><td><div>C:\\Users\\TecSUS-3\\Desktop\\template_site\\web2py</div></td></tr><tr><td style="font-weight:bold;vertical-align:top;">cmd_args</td><td style="vertical-align:top;">:</td><td><div><table></table></div></td></tr><tr><td style="font-weight:bold;vertical-align:top;">cmd_options</td><td style="vertical-align:top;">:</td><td><div>&lt;Values at 0x3757cb0: {&#x27;verbose&#x27;: False, &#x27;ip&#x27;: &#x27;127.0.0.1&#x27;, &#x27;debuglevel&#x27;: 30, &#x27;with_scheduler&#x27;: False, &#x27;ips&#x27;: [&#x27;192.241.173.135&#x27;], &#x27;shutdown_timeout&#x27;: 5, &#x27;taskbar&#x27;: False, &#x27;with_coverage&#x27;: False, &#x27;scheduler_groups&#x27;: None, &#x27;port&#x27;: 8000, &#x27;maxthreads&#x27;: None, &#x27;softcron&#x27;: False, &#x27;server_name&#x27;: &#x27;TecSUS-3-PC&#x27;, &#x27;bpython&#x27;: False, &#x27;nogui&#x27;: False, &#x27;pid_filename&#x27;: &#x27;httpserver.pid&#x27;, &#x27;print_errors&#x27;: False, &#x27;extcron&#x27;: False, &#x27;runcron&#x27;: False, &#x27;run_system_tests&#x27;: False, &#x27;test&#x27;: None, &#x27;folder&#x27;: &#x27;C:\\\\Users\\\\TecSUS-3\\\\Desktop\\\\template_site\\\\web2py&#x27;, &#x27;config&#x27;: &#x27;&#x27;, &#x27;minthreads&#x27;: None, &#x27;shell&#x27;: None, &#x27;run&#x27;: &#x27;&#x27;, &#x27;log_filename&#x27;: &#x27;httpserver.log&#x27;, &#x27;profiler_dir&#x27;: None, &#x27;args&#x27;: [&#x27;&#x27;], &#x27;socket_timeout&#x27;: 5, &#x27;ssl_ca_certificate&#x27;: None, &#x27;scheduler&#x27;: None, &#x27;interfaces&#x27;: None, &#x27;ssl_private_key&#x27;: &#x27;&#x27;, &#x27;gae&#x27;: None, &#x27;password&#x27;: &#x27;&lt;ask&gt;&#x27;, &#x27;request_queue_size&#x27;: 5, &#x27;ssl_certificate&#x27;: &#x27;&#x27;, &#x27;cronjob&#x27;: False, &#x27;numthreads&#x27;: None, &#x27;quiet&#x27;: False, &#x27;import_models&#x27;: False, &#x27;timeout&#x27;: 10, &#x27;plain&#x27;: False, &#x27;nobanner&#x27;: False}&gt;</div></td></tr><tr><td style="font-weight:bold;vertical-align:top;">db_sessions</td><td style="vertical-align:top;">:</td><td><div>set([])</div></td></tr><tr><td style="font-weight:bold;vertical-align:top;">debugging</td><td style="vertical-align:top;">:</td><td><div>False</div></td></tr><tr><td style="font-weight:bold;vertical-align:top;">gluon_parent</td><td style="vertical-align:top;">:</td><td><div>C:\\Users\\TecSUS-3\\Desktop\\template_site\\web2py</div></td></tr><tr><td style="font-weight:bold;vertical-align:top;">is_jython</td><td style="vertical-align:top;">:</td><td><div>False</div></td></tr><tr><td style="font-weight:bold;vertical-align:top;">is_pypy</td><td style="vertical-align:top;">:</td><td><div>False</div></td></tr><tr><td style="font-weight:bold;vertical-align:top;">is_source</td><td style="vertical-align:top;">:</td><td><div>True</div></td></tr><tr><td style="font-weight:bold;vertical-align:top;">local_hosts</td><td style="vertical-align:top;">:</td><td><div><table><tr><td><div>192.241.173.135</div></td></tr><tr><td><div>fe80::487:2eff:2cf4:8cd6%11</div></td></tr><tr><td><div>TecSUS-3-PC</div></td></tr><tr><td><div>TecSUS-3-PC.tecsus.com.br</div></td></tr><tr><td><div>::ffff:127.0.0.1</div></td></tr><tr><td><div>::1</div></td></tr><tr><td><div>192.168.0.2</div></td></tr><tr><td><div>fe80::5efe:192.168.0.2%12</div></td></tr><tr><td><div>127.0.0.1</div></td></tr></table></div></td></tr><tr><td style="font-weight:bold;vertical-align:top;">web2py_version</td><td style="vertical-align:top;">:</td><td><div>2.10.4-stable+timestamp.2015.04.26.15.11.54</div></td></tr></table></div></td></tr><tr><td style="font-weight:bold;vertical-align:top;">is_https</td><td style="vertical-align:top;">:</td><td><div>False</div></td></tr><tr><td style="font-weight:bold;vertical-align:top;">is_local</td><td style="vertical-align:top;">:</td><td><div>True</div></td></tr><tr><td style="font-weight:bold;vertical-align:top;">is_restful</td><td style="vertical-align:top;">:</td><td><div>False</div></td></tr><tr><td style="font-weight:bold;vertical-align:top;">is_sheduler</td><td style="vertical-align:top;">:</td><td><div>None</div></td></tr><tr><td style="font-weight:bold;vertical-align:top;">is_shell</td><td style="vertical-align:top;">:</td><td><div>None</div></td></tr><tr><td style="font-weight:bold;vertical-align:top;">now</td><td style="vertical-align:top;">:</td><td><div>datetime.datetime(2015, 8, 5, 14, 15, 50, 448000)</div></td></tr><tr><td style="font-weight:bold;vertical-align:top;">raw_args</td><td style="vertical-align:top;">:</td><td><div></div></td></tr><tr><td style="font-weight:bold;vertical-align:top;">raw_extension</td><td style="vertical-align:top;">:</td><td><div>None</div></td></tr><tr><td style="font-weight:bold;vertical-align:top;">url</td><td style="vertical-align:top;">:</td><td><div>/site_two_alterado/Veiculo/Inicio</div></td></tr><tr><td style="font-weight:bold;vertical-align:top;">utcnow</td><td style="vertical-align:top;">:</td><td><div>datetime.datetime(2015, 8, 5, 17, 15, 50, 448000)</div></td></tr><tr><td style="font-weight:bold;vertical-align:top;">uuid</td><td style="vertical-align:top;">:</td><td><div>site_two_alterado/127.0.0.1.2015-08-05.14-15-50.f122c3b5-e8fa-4476-bf5c-fad6fa3522c6</div></td></tr><tr><td style="font-weight:bold;vertical-align:top;">wsgi</td><td style="vertical-align:top;">:</td><td><div>&lt;gluon.main.LazyWSGI object at 0x050DE8D0&gt;</div></td></tr></table></div>'
tRp58
sS'frames'
p59
(lp60
(dp61
S'file'
p62
S'C:\\Users\\TecSUS-3\\Desktop\\template_site\\web2py\\gluon\\restricted.py'
p63
sS'dump'
p64
(dp65
S'environment'
p66
S"{'A': <class 'gluon.html.A'>, 'ANY_OF': <class 'gluon.validators.ANY_OF'>, 'ASSIGNJS': <function ASSIGNJS>, 'AppConfig': <function AppConfig>, 'Auth': <class 'gluon.tools.Auth'>, 'B': <class 'gluon.html.B'>, 'BEAUTIFY': <class 'gluon.html.BEAUTIFY'>, 'BODY': <class 'gluon.html.BODY'>, 'BR': <class 'gluon.html.BR'>, 'BUTTON': <class 'gluon.html.BUTTON'>, ...}"
p67
sS'ccode'
p68
S'<code object <module> at 049DBBA8, file "C:\\User..._two_alterado\\views\\Veiculo/Inicio.html", line 1>'
p69
ssS'lnum'
p70
I227
sS'lines'
p71
(dp72
I224
S'            ccode = code'
p73
sI225
S'        else:'
p74
sI226
S'            ccode = compile2(code, layer)'
p75
sI227
S'        exec ccode in environment'
p76
sI228
S'    except HTTP:'
p77
sI229
S'        raise'
p78
sI230
S'    except RestrictedError:'
p79
sI231
S'        # do not encapsulate (obfuscate) the original RestrictedError'
p80
sI222
S'    try:'
p81
sI223
S'        if isinstance(code, types.CodeType):'
p82
ssS'call'
p83
S'(code=r"response.write(\'<!-- Layout indpendente do criad...t</div>\\r\\n\\r\\n</body>\\r\\n</html>\', escape=False)", environment={\'A\': <class \'gluon.html.A\'>, \'ANY_OF\': <class \'gluon.validators.ANY_OF\'>, \'ASSIGNJS\': <function ASSIGNJS>, \'AppConfig\': <function AppConfig>, \'Auth\': <class \'gluon.tools.Auth\'>, \'B\': <class \'gluon.html.B\'>, \'BEAUTIFY\': <class \'gluon.html.BEAUTIFY\'>, \'BODY\': <class \'gluon.html.BODY\'>, \'BR\': <class \'gluon.html.BR\'>, \'BUTTON\': <class \'gluon.html.BUTTON\'>, ...}, layer=r\'C:\\Users\\TecSUS-3\\Desktop\\template_site\\web2py\\a...tions\\site_two_alterado\\views\\Veiculo/Inicio.html\')'
p84
sS'func'
p85
S'restricted'
p86
sa(dp87
g62
S'C:\\Users\\TecSUS-3\\Desktop\\template_site\\web2py\\applications\\site_two_alterado\\views\\Veiculo\\Inicio.html'
p88
sg64
(dp89
sg70
I68
sg71
(dp90
I64
S'response.write(agora)'
p91
sI65
S"response.write('\\r\\n\\r\\n    <h1>Carros smartgrid</h1>\\r\\n    ', escape=False)"
p92
sI66
S'response.write(car_smartgrid)'
p93
sI67
S'response.write(\'\\r\\n\\r\\n    <div style="text-align: center">\\r\\n    <img width="200px" src="\', escape=False)'
p94
sI68
S"response.write(URL('download',args=db2.foto))"
p95
sI69
S'response.write(\'"\\r\\n    </div>\\r\\n\\r\\n    <h1>Visitas</h1>\\r\\n    \', escape=False)'
p96
sI70
S'response.write(counter)'
p97
sI71
S"response.write('\\r\\n\\r\\n    ', escape=False)"
p98
sI72
S'response.write(session.visitor_name)'
p99
sI73
S"response.write('\\r\\n\\r\\n</body>\\r\\n\\r\\n</html>', escape=False)"
p100
sI74
S"response.write('</div>\\r\\n\\t</div>\\r\\n\\r\\n</body>\\r\\n</html>', escape=False)"
p101
sI59
S'    response.write(\'" >register</a><br />\\r\\n        <a href="\', escape=False)'
p102
sI60
S"    response.write(URL(args='request_reset_password'))"
p103
sI61
S'    response.write(\'" >lost password</a><br />\\r\\n    \', escape=False)'
p104
sI62
S'    pass'
p105
sI63
S'response.write(\'\\r\\n\\r\\n<html>\\r\\n\\r\\n<head lang="en">\\r\\n    <meta charset="UTF-8">\\r\\n    <h1>Inicial</h1>\\r\\n\\r\\n</head>\\r\\n\\r\\n<body>\\r\\n\\r\\n    <br><br><br><br>\\r\\n  <!--  <h1>Carros Grid</h1>\\r\\n\\r\\n    <br><br><br><br>\\r\\n    !-->\\r\\n    \', escape=False)'
p106
ssg83
S'()'
p107
sg85
S'<module>'
p108
sa(dp109
g62
S'C:\\Users\\TecSUS-3\\Desktop\\template_site\\web2py\\gluon\\packages\\dal\\pydal\\base.py'
p110
sg64
(dp111
S'self'
p112
S'<DAL uri="sqlite://storage.sqlite">'
p113
sS'global ogetattr'
p114
S"<slot wrapper '__getattribute__' of 'object' objects>"
p115
sS'key'
p116
S"'foto'"
p117
ssg70
I907
sg71
(dp118
I902
S'    def __getattr__(self, key):'
p119
sI903
S"        if ogetattr(self,'_lazy_tables') and \\"
p120
sI904
S"                key in ogetattr(self,'_LAZY_TABLES'):"
p121
sI905
S'            tablename, fields, args = self._LAZY_TABLES.pop(key)'
p122
sI906
S'            return self.lazy_define_table(tablename,*fields,**args)'
p123
sI907
S'        return ogetattr(self, key)'
p124
sI908
S''
sI909
S'    def __setitem__(self, key, value):'
p125
sI910
S'        osetattr(self, str(key), value)'
p126
sI911
S''
ssg83
S'(self=<DAL uri="sqlite://storage.sqlite">, key=\'foto\')'
p127
sg85
S'__getattr__'
p128
sasS'pyver'
p129
S'Python 2.7.8: C:\\Python27\\python.exe (prefix: C:\\Python27)'
p130
sS'session'
p131
g57
(S's\x9d\x01\x00\x00<div><table><tr><td style="font-weight:bold;vertical-align:top;">counter</td><td style="vertical-align:top;">:</td><td><div>6</div></td></tr><tr><td style="font-weight:bold;vertical-align:top;">flash</td><td style="vertical-align:top;">:</td><td><div></div></td></tr><tr><td style="font-weight:bold;vertical-align:top;">flashed</td><td style="vertical-align:top;">:</td><td><div>True</div></td></tr></table></div>'
tRp132
sS'etype'
p133
S"<type 'exceptions.AttributeError'>"
p134
sS'date'
p135
S'Wed Aug 05 14:15:50 2015'
p136
sS'response'
p137
g57
(S's\xa1R\x00\x00<div><table><tr><td style="font-weight:bold;vertical-align:top;">MeuMenu</td><td style="vertical-align:top;">:</td><td><div><table><tr><td><div><table><tr><td><div>Principal</div></td></tr><tr><td><div>False</div></td></tr><tr><td><div>http://127.0.0.1:8000/site_two_alterado/Veiculo/Inicio</div></td></tr></table></div></td></tr><tr><td><div><table><tr><td><div>Cadastro de Comprador</div></td></tr><tr><td><div>False</div></td></tr><tr><td><div>http://127.0.0.1:8000/site_two_alterado/Veiculo/comprador</div></td></tr></table></div></td></tr><tr><td><div><table><tr><td><div>Cadastro de Carro</div></td></tr><tr><td><div>False</div></td></tr><tr><td><div>http://127.0.0.1:8000/site_two_alterado/Veiculo/carro</div></td></tr></table></div></td></tr><tr><td><div><table><tr><td><div>Cadastro de Vendedor</div></td></tr><tr><td><div>False</div></td></tr><tr><td><div>http://127.0.0.1:8000/site_two_alterado/Veiculo/vendedor</div></td></tr></table></div></td></tr><tr><td><div><table><tr><td><div>Cadastro de Marca</div></td></tr><tr><td><div>False</div></td></tr><tr><td><div>http://127.0.0.1:8000/site_two_alterado/Veiculo/marca</div></td></tr></table></div></td></tr></table></div></td></tr><tr><td style="font-weight:bold;vertical-align:top;">body</td><td style="vertical-align:top;">:</td><td><div>&lt;cStringIO.StringO object at 0x05167200&gt;</div></td></tr><tr><td style="font-weight:bold;vertical-align:top;">cookies</td><td style="vertical-align:top;">:</td><td><div><table><tr><td style="font-weight:bold;vertical-align:top;">session_id_site_two_alterado</td><td style="vertical-align:top;">:</td><td><div>127.0.0.1-aef6a1e9-27cc-424c-981d-6d93d6561c2f<table><tr><td style="font-weight:bold;vertical-align:top;">comment</td><td style="vertical-align:top;">:</td><td><div></div></td></tr><tr><td style="font-weight:bold;vertical-align:top;">domain</td><td style="vertical-align:top;">:</td><td><div></div></td></tr><tr><td style="font-weight:bold;vertical-align:top;">expires</td><td style="vertical-align:top;">:</td><td><div></div></td></tr><tr><td style="font-weight:bold;vertical-align:top;">httponly</td><td style="vertical-align:top;">:</td><td><div></div></td></tr><tr><td style="font-weight:bold;vertical-align:top;">max-age</td><td style="vertical-align:top;">:</td><td><div></div></td></tr><tr><td style="font-weight:bold;vertical-align:top;">path</td><td style="vertical-align:top;">:</td><td><div>/</div></td></tr><tr><td style="font-weight:bold;vertical-align:top;">secure</td><td style="vertical-align:top;">:</td><td><div></div></td></tr><tr><td style="font-weight:bold;vertical-align:top;">version</td><td style="vertical-align:top;">:</td><td><div></div></td></tr></table></div></td></tr></table></div></td></tr><tr><td style="font-weight:bold;vertical-align:top;">delimiters</td><td style="vertical-align:top;">:</td><td><div><table><tr><td><div>{{</div></td></tr><tr><td><div>}}</div></td></tr></table></div></td></tr><tr><td style="font-weight:bold;vertical-align:top;">files</td><td style="vertical-align:top;">:</td><td><div><table><tr><td><div>/site_two_alterado/static/js/jquery.js</div></td></tr><tr><td><div>/site_two_alterado/static/css/calendar.css</div></td></tr><tr><td><div>/site_two_alterado/static/js/calendar.js</div></td></tr><tr><td><div>/site_two_alterado/static/js/web2py.js</div></td></tr></table></div></td></tr><tr><td style="font-weight:bold;vertical-align:top;">flash</td><td style="vertical-align:top;">:</td><td><div></div></td></tr><tr><td style="font-weight:bold;vertical-align:top;">form_label_separator</td><td style="vertical-align:top;">:</td><td><div></div></td></tr><tr><td style="font-weight:bold;vertical-align:top;">formstyle</td><td style="vertical-align:top;">:</td><td><div>bootstrap3_inline</div></td></tr><tr><td style="font-weight:bold;vertical-align:top;">generic_patterns</td><td style="vertical-align:top;">:</td><td><div><table><tr><td><div>*</div></td></tr></table></div></td></tr><tr><td style="font-weight:bold;vertical-align:top;">google_analytics_id</td><td style="vertical-align:top;">:</td><td><div>None</div></td></tr><tr><td style="font-weight:bold;vertical-align:top;">headers</td><td style="vertical-align:top;">:</td><td><div><table><tr><td style="font-weight:bold;vertical-align:top;">X-Powered-By</td><td style="vertical-align:top;">:</td><td><div>web2py</div></td></tr></table></div></td></tr><tr><td style="font-weight:bold;vertical-align:top;">logo</td><td style="vertical-align:top;">:</td><td><div><a class="navbar-brand" href="http://www.web2py.com/" id="web2py-logo"><b>web<span>2</span>py</b>&trade;&nbsp;</a></div></td></tr><tr><td style="font-weight:bold;vertical-align:top;">menu</td><td style="vertical-align:top;">:</td><td><div><table><tr><td><div><table><tr><td><div>Principal</div></td></tr><tr><td><div>False</div></td></tr><tr><td><div>/site_two_alterado/default/index</div></td></tr><tr><td><div><table></table></div></td></tr></table></div></td></tr><tr><td><div><table><tr><td><div>Meus sites</div></td></tr><tr><td><div>False</div></td></tr><tr><td><div>/admin/default/site</div></td></tr></table></div></td></tr><tr><td><div><table><tr><td><div>Esta aplica\xc3\xa7\xc3\xa3o</div></td></tr><tr><td><div>False</div></td></tr><tr><td><div>#</div></td></tr><tr><td><div><table><tr><td><div><table><tr><td><div>Design</div></td></tr><tr><td><div>False</div></td></tr><tr><td><div>/admin/default/design/site_two_alterado</div></td></tr></table></div></td></tr><tr><td><div><li class="divider"></li></div></td></tr><tr><td><div><table><tr><td><div>Controlador</div></td></tr><tr><td><div>False</div></td></tr><tr><td><div>/admin/default/edit/site_two_alterado/controllers/Veiculo.py</div></td></tr></table></div></td></tr><tr><td><div><table><tr><td><div>Visualiza\xc3\xa7\xc3\xa3o</div></td></tr><tr><td><div>False</div></td></tr><tr><td><div>/admin/default/edit/site_two_alterado/views/Veiculo/Inicio.html</div></td></tr></table></div></td></tr><tr><td><div><table><tr><td><div>Modelo BD</div></td></tr><tr><td><div>False</div></td></tr><tr><td><div>/admin/default/edit/site_two_alterado/models/db.py</div></td></tr></table></div></td></tr><tr><td><div><table><tr><td><div>Modelo de Menu</div></td></tr><tr><td><div>False</div></td></tr><tr><td><div>/admin/default/edit/site_two_alterado/models/menu.py</div></td></tr></table></div></td></tr><tr><td><div><table><tr><td><div>Config.ini</div></td></tr><tr><td><div>False</div></td></tr><tr><td><div>/admin/default/edit/site_two_alterado/private/appconfig.ini</div></td></tr></table></div></td></tr><tr><td><div><table><tr><td><div>Layout</div></td></tr><tr><td><div>False</div></td></tr><tr><td><div>/admin/default/edit/site_two_alterado/views/layout.html</div></td></tr></table></div></td></tr><tr><td><div><table><tr><td><div>Folha de estilo</div></td></tr><tr><td><div>False</div></td></tr><tr><td><div>/admin/default/edit/site_two_alterado/static/css/web2py-bootstrap3.css</div></td></tr></table></div></td></tr><tr><td><div><table><tr><td><div>banco de dados</div></td></tr><tr><td><div>False</div></td></tr><tr><td><div>/site_two_alterado/appadmin/index</div></td></tr></table></div></td></tr><tr><td><div><table><tr><td><div>Erros</div></td></tr><tr><td><div>False</div></td></tr><tr><td><div>/admin/default/errors/site_two_alterado</div></td></tr></table></div></td></tr><tr><td><div><table><tr><td><div>Sobre</div></td></tr><tr><td><div>False</div></td></tr><tr><td><div>/admin/default/about/site_two_alterado</div></td></tr></table></div></td></tr></table></div></td></tr></table></div></td></tr><tr><td><div><table><tr><td><div>web2py.com</div></td></tr><tr><td><div>False</div></td></tr><tr><td><div>#</div></td></tr><tr><td><div><table><tr><td><div><table><tr><td><div>Download</div></td></tr><tr><td><div>False</div></td></tr><tr><td><div>http://www.web2py.com/examples/default/download</div></td></tr></table></div></td></tr><tr><td><div><table><tr><td><div>Suporte</div></td></tr><tr><td><div>False</div></td></tr><tr><td><div>http://www.web2py.com/examples/default/support</div></td></tr></table></div></td></tr><tr><td><div><table><tr><td><div>Demo</div></td></tr><tr><td><div>False</div></td></tr><tr><td><div>http://web2py.com/demo_admin</div></td></tr></table></div></td></tr><tr><td><div><table><tr><td><div>Exemplos r\xc3\xa1pidos</div></td></tr><tr><td><div>False</div></td></tr><tr><td><div>http://web2py.com/examples/default/examples</div></td></tr></table></div></td></tr><tr><td><div><table><tr><td><div>Perguntas frequentes</div></td></tr><tr><td><div>False</div></td></tr><tr><td><div>http://web2py.com/AlterEgo</div></td></tr></table></div></td></tr><tr><td><div><table><tr><td><div>V\xc3\xaddeos</div></td></tr><tr><td><div>False</div></td></tr><tr><td><div>http://www.web2py.com/examples/default/videos/</div></td></tr></table></div></td></tr><tr><td><div><table><tr><td><div>Aplica\xc3\xa7\xc3\xb5es gratuitas</div></td></tr><tr><td><div>False</div></td></tr><tr><td><div>http://web2py.com/appliances</div></td></tr></table></div></td></tr><tr><td><div><table><tr><td><div>Plugins</div></td></tr><tr><td><div>False</div></td></tr><tr><td><div>http://web2py.com/plugins</div></td></tr></table></div></td></tr><tr><td><div><table><tr><td><div>Receitas</div></td></tr><tr><td><div>False</div></td></tr><tr><td><div>http://web2pyslices.com/</div></td></tr></table></div></td></tr></table></div></td></tr></table></div></td></tr><tr><td><div><table><tr><td><div>Documenta\xc3\xa7\xc3\xa3o</div></td></tr><tr><td><div>False</div></td></tr><tr><td><div>#</div></td></tr><tr><td><div><table><tr><td><div><table><tr><td><div>Online book</div></td></tr><tr><td><div>False</div></td></tr><tr><td><div>http://www.web2py.com/book</div></td></tr></table></div></td></tr><tr><td><div><li class="divider"></li></div></td></tr><tr><td><div><table><tr><td><div>Pref\xc3\xa1cio</div></td></tr><tr><td><div>False</div></td></tr><tr><td><div>http://www.web2py.com/book/default/chapter/00</div></td></tr></table></div></td></tr><tr><td><div><table><tr><td><div>Introdu\xc3\xa7\xc3\xa3o</div></td></tr><tr><td><div>False</div></td></tr><tr><td><div>http://www.web2py.com/book/default/chapter/01</div></td></tr></table></div></td></tr><tr><td><div><table><tr><td><div>Python</div></td></tr><tr><td><div>False</div></td></tr><tr><td><div>http://www.web2py.com/book/default/chapter/02</div></td></tr></table></div></td></tr><tr><td><div><table><tr><td><div>Vis\xc3\xa3o Geral</div></td></tr><tr><td><div>False</div></td></tr><tr><td><div>http://www.web2py.com/book/default/chapter/03</div></td></tr></table></div></td></tr><tr><td><div><table><tr><td><div>The Core</div></td></tr><tr><td><div>False</div></td></tr><tr><td><div>http://www.web2py.com/book/default/chapter/04</div></td></tr></table></div></td></tr><tr><td><div><table><tr><td><div>As views</div></td></tr><tr><td><div>False</div></td></tr><tr><td><div>http://www.web2py.com/book/default/chapter/05</div></td></tr></table></div></td></tr><tr><td><div><table><tr><td><div>banco de dados</div></td></tr><tr><td><div>False</div></td></tr><tr><td><div>http://www.web2py.com/book/default/chapter/06</div></td></tr></table></div></td></tr><tr><td><div><table><tr><td><div>Formul\xc3\xa1rios e Validadores</div></td></tr><tr><td><div>False</div></td></tr><tr><td><div>http://www.web2py.com/book/default/chapter/07</div></td></tr></table></div></td></tr><tr><td><div><table><tr><td><div>Email e SMS</div></td></tr><tr><td><div>False</div></td></tr><tr><td><div>http://www.web2py.com/book/default/chapter/08</div></td></tr></table></div></td></tr><tr><td><div><table><tr><td><div>Controle de Acesso</div></td></tr><tr><td><div>False</div></td></tr><tr><td><div>http://www.web2py.com/book/default/chapter/09</div></td></tr></table></div></td></tr><tr><td><div><table><tr><td><div>Servi\xc3\xa7o</div></td></tr><tr><td><div>False</div></td></tr><tr><td><div>http://www.web2py.com/book/default/chapter/10</div></td></tr></table></div></td></tr><tr><td><div><table><tr><td><div>Receitas de Ajax</div></td></tr><tr><td><div>False</div></td></tr><tr><td><div>http://www.web2py.com/book/default/chapter/11</div></td></tr></table></div></td></tr><tr><td><div><table><tr><td><div>Componentes e Plugins</div></td></tr><tr><td><div>False</div></td></tr><tr><td><div>http://www.web2py.com/book/default/chapter/12</div></td></tr></table></div></td></tr><tr><td><div><table><tr><td><div>Receitas de deploy</div></td></tr><tr><td><div>False</div></td></tr><tr><td><div>http://www.web2py.com/book/default/chapter/13</div></td></tr></table></div></td></tr><tr><td><div><table><tr><td><div>Outras Receitas</div></td></tr><tr><td><div>False</div></td></tr><tr><td><div>http://www.web2py.com/book/default/chapter/14</div></td></tr></table></div></td></tr><tr><td><div><table><tr><td><div>Helping web2py</div></td></tr><tr><td><div>False</div></td></tr><tr><td><div>http://www.web2py.com/book/default/chapter/15</div></td></tr></table></div></td></tr><tr><td><div><table><tr><td><div>Buy web2py\'s book</div></td></tr><tr><td><div>False</div></td></tr><tr><td><div>http://stores.lulu.com/web2py</div></td></tr></table></div></td></tr></table></div></td></tr></table></div></td></tr><tr><td><div><table><tr><td><div>Comunidade</div></td></tr><tr><td><div>False</div></td></tr><tr><td><div>None</div></td></tr><tr><td><div><table><tr><td><div><table><tr><td><div>Grupos</div></td></tr><tr><td><div>False</div></td></tr><tr><td><div>http://www.web2py.com/examples/default/usergroups</div></td></tr></table></div></td></tr><tr><td><div><table><tr><td><div>Twitter</div></td></tr><tr><td><div>False</div></td></tr><tr><td><div>http://twitter.com/web2py</div></td></tr></table></div></td></tr><tr><td><div><table><tr><td><div>Chat ao vivo</div></td></tr><tr><td><div>False</div></td></tr><tr><td><div>http://webchat.freenode.net/?channels=web2py</div></td></tr></table></div></td></tr></table></div></td></tr></table></div></td></tr><tr><td><div><table><tr><td><div>Minha Pagina Teste</div></td></tr><tr><td><div>False</div></td></tr><tr><td><div>None</div></td></tr><tr><td><div><table><tr><td><div><table><tr><td><div>Forms - accessories grid</div></td></tr><tr><td><div>False</div></td></tr><tr><td><div>http://127.0.0.1:8000/site_two_alterado/forms/accessories_grid_selectable.html</div></td></tr></table></div></td></tr><tr><td><div><table><tr><td><div>Forms - accessories crud</div></td></tr><tr><td><div>False</div></td></tr><tr><td><div>http://127.0.0.1:8000/site_two_alterado/forms/accessory_crud</div></td></tr></table></div></td></tr><tr><td><div><table><tr><td><div>Forms - car model</div></td></tr><tr><td><div>False</div></td></tr><tr><td><div>http://127.0.0.1:8000/site_two_alterado/forms/car_model_form</div></td></tr></table></div></td></tr><tr><td><div><table><tr><td><div>Forms - sale</div></td></tr><tr><td><div>False</div></td></tr><tr><td><div>http://127.0.0.1:8000/site_two_alterado/forms/sale_sqlform_factory</div></td></tr></table></div></td></tr><tr><td><div><table><tr><td><div>Forms - vendor</div></td></tr><tr><td><div>False</div></td></tr><tr><td><div>http://127.0.0.1:8000/site_two_alterado/forms/vendor_sqlform</div></td></tr></table></div></td></tr><tr><td><div><li class="divider"></li></div></td></tr><tr><td><div><table><tr><td><div>Lista grid</div></td></tr><tr><td><div>False</div></td></tr><tr><td><div>http://127.0.0.1:8000/site_two_alterado/grids/database_lists_grid</div></td></tr></table></div></td></tr><tr><td><div><table><tr><td><div>Lista smartgrid</div></td></tr><tr><td><div>False</div></td></tr><tr><td><div>http://127.0.0.1:8000/site_two_alterado/grids/database_lists_smartgrid</div></td></tr></table></div></td></tr><tr><td><div><li class="divider"></li></div></td></tr><tr><td><div><table><tr><td><div>Nova Manual</div></td></tr><tr><td><div>False</div></td></tr><tr><td><div>http://127.0.0.1:8000/site_two_alterado/NovaManual/NovaManual</div></td></tr></table></div></td></tr></table></div></td></tr></table></div></td></tr><tr><td><div><table><tr><td><div>Apostila</div></td></tr><tr><td><div>False</div></td></tr><tr><td><div>None</div></td></tr><tr><td><div><table><tr><td><div><table><tr><td><div>Gerais</div></td></tr><tr><td><div>False</div></td></tr><tr><td><div>http://127.0.0.1:8000/site_two_alterado/Apostila/Apostila</div></td></tr></table></div></td></tr><tr><td><div><li class="divider"></li></div></td></tr><tr><td><div><table><tr><td><div>Banco de Dados</div></td></tr><tr><td><div>False</div></td></tr><tr><td><div>http://127.0.0.1:8000/site_two_alterado/Apostila/BD_Apostila</div></td></tr></table></div></td></tr></table></div></td></tr></table></div></td></tr><tr><td><div><table><tr><td><div>Loja de carros</div></td></tr><tr><td><div>False</div></td></tr><tr><td><div>None</div></td></tr><tr><td><div><table><tr><td><div><table><tr><td><div>Inicial</div></td></tr><tr><td><div>False</div></td></tr><tr><td><div>http://127.0.0.1:8000/site_two_alterado/Veiculo/Inicio</div></td></tr></table></div></td></tr></table></div></td></tr></table></div></td></tr></table></div></td></tr><tr><td style="font-weight:bold;vertical-align:top;">meta</td><td style="vertical-align:top;">:</td><td><div><table><tr><td style="font-weight:bold;vertical-align:top;">author</td><td style="vertical-align:top;">:</td><td><div>Your Name &lt;you@example.com&gt;</div></td></tr><tr><td style="font-weight:bold;vertical-align:top;">description</td><td style="vertical-align:top;">:</td><td><div>a cool new app</div></td></tr><tr><td style="font-weight:bold;vertical-align:top;">generator</td><td style="vertical-align:top;">:</td><td><div>Web2py Web Framework</div></td></tr><tr><td style="font-weight:bold;vertical-align:top;">keywords</td><td style="vertical-align:top;">:</td><td><div>web2py, python, framework</div></td></tr></table></div></td></tr><tr><td style="font-weight:bold;vertical-align:top;">models_to_run</td><td style="vertical-align:top;">:</td><td><div><table><tr><td><div>^\\w+\\.py$</div></td></tr><tr><td><div>^Veiculo/\\w+\\.py$</div></td></tr><tr><td><div>^Veiculo/Inicio/\\w+\\.py$</div></td></tr></table></div></td></tr><tr><td style="font-weight:bold;vertical-align:top;">postprocessing</td><td style="vertical-align:top;">:</td><td><div><table></table></div></td></tr><tr><td style="font-weight:bold;vertical-align:top;">session_client</td><td style="vertical-align:top;">:</td><td><div>127.0.0.1</div></td></tr><tr><td style="font-weight:bold;vertical-align:top;">session_cookie_compression_level</td><td style="vertical-align:top;">:</td><td><div>None</div></td></tr><tr><td style="font-weight:bold;vertical-align:top;">session_cookie_expires</td><td style="vertical-align:top;">:</td><td><div>None</div></td></tr><tr><td style="font-weight:bold;vertical-align:top;">session_cookie_key</td><td style="vertical-align:top;">:</td><td><div>None</div></td></tr><tr><td style="font-weight:bold;vertical-align:top;">session_data_name</td><td style="vertical-align:top;">:</td><td><div>session_data_site_two_alterado</div></td></tr><tr><td style="font-weight:bold;vertical-align:top;">session_file</td><td style="vertical-align:top;">:</td><td><div>&lt;open file &#x27;C:\\\\Users\\\\TecSUS-3\\\\Desktop\\\\template_site\\\\web2py\\\\applications\\\\site_two_alterado\\\\sessions\\\\164\\\\0f9\\\\127.0.0.1-aef6a1e9-27cc-424c-981d-6d93d6561c2f&#x27;, mode &#x27;rb+&#x27; at 0x05130B78&gt;</div></td></tr><tr><td style="font-weight:bold;vertical-align:top;">session_filename</td><td style="vertical-align:top;">:</td><td><div>C:\\Users\\TecSUS-3\\Desktop\\template_site\\web2py\\applications\\site_two_alterado\\sessions\\127.0.0.1-aef6a1e9-27cc-424c-981d-6d93d6561c2f</div></td></tr><tr><td style="font-weight:bold;vertical-align:top;">session_hash</td><td style="vertical-align:top;">:</td><td><div>2a1eee2821cc4e94c864856ebcf1541a</div></td></tr><tr><td style="font-weight:bold;vertical-align:top;">session_id</td><td style="vertical-align:top;">:</td><td><div>127.0.0.1-aef6a1e9-27cc-424c-981d-6d93d6561c2f</div></td></tr><tr><td style="font-weight:bold;vertical-align:top;">session_id_name</td><td style="vertical-align:top;">:</td><td><div>session_id_site_two_alterado</div></td></tr><tr><td style="font-weight:bold;vertical-align:top;">session_locked</td><td style="vertical-align:top;">:</td><td><div>True</div></td></tr><tr><td style="font-weight:bold;vertical-align:top;">session_masterapp</td><td style="vertical-align:top;">:</td><td><div>site_two_alterado</div></td></tr><tr><td style="font-weight:bold;vertical-align:top;">session_new</td><td style="vertical-align:top;">:</td><td><div>False</div></td></tr><tr><td style="font-weight:bold;vertical-align:top;">session_storage_type</td><td style="vertical-align:top;">:</td><td><div>file</div></td></tr><tr><td style="font-weight:bold;vertical-align:top;">status</td><td style="vertical-align:top;">:</td><td><div>200</div></td></tr><tr><td style="font-weight:bold;vertical-align:top;">subtitle</td><td style="vertical-align:top;">:</td><td><div></div></td></tr><tr><td style="font-weight:bold;vertical-align:top;">title</td><td style="vertical-align:top;">:</td><td><div>Site Two Alterado</div></td></tr><tr><td style="font-weight:bold;vertical-align:top;">view</td><td style="vertical-align:top;">:</td><td><div>Veiculo/Inicio.html</div></td></tr></table></div>'
tRp138
sS'locals'
p139
(dp140
S'self'
p141
S'<DAL uri="sqlite://storage.sqlite">'
p142
sS'key'
p143
S"'foto'"
p144
sssS'traceback'
p145
S'Traceback (most recent call last):\n  File "C:\\Users\\TecSUS-3\\Desktop\\template_site\\web2py\\gluon\\restricted.py", line 227, in restricted\n    exec ccode in environment\n  File "C:\\Users\\TecSUS-3\\Desktop\\template_site\\web2py\\applications\\site_two_alterado\\views\\Veiculo/Inicio.html", line 68, in <module>\n  File "C:\\Users\\TecSUS-3\\Desktop\\template_site\\web2py\\gluon\\packages\\dal\\pydal\\base.py", line 907, in __getattr__\n    return ogetattr(self, key)\nAttributeError: \'DAL\' object has no attribute \'foto\'\n'
p146
s.