(dp1
S'output'
p2
S"<type 'exceptions.AttributeError'> 'function' object has no attribute 'id_venda'"
p3
sS'layer'
p4
S'C:\\Users\\TecSUS-3\\Desktop\\template_site\\web2py\\applications\\site_two_alterado\\controllers/Veiculo.py'
p5
sS'code'
p6
S'__author__ = \'TecSUS-3\'\n\n####################################### IMPORTS #######################################\nfrom gluon import A, INPUT, IS_NOT_EMPTY, SQLFORM, URL, TR, TABLE, FORM, IS_LIST_OF, IS_IN_DB, redirect\nfrom gluon import Field\n\nauth = Auth(globals(),db2)\nauth.define_tables(username=True)\n####################################### GLOBALS #######################################\nglobal request, session, response\n\n\'\'\'\n# ## critical --- make a copy of the environment\n\nglobal_env = copy.copy(globals())\nglobal_env[\'datetime\'] = datetime\n\nhttp_host = request.env.http_host.split(\':\')[0]\nremote_addr = request.env.remote_addr\ntry:\n    hosts = (http_host, socket.gethostname(),\n             socket.gethostbyname(http_host),\n             \'::1\',\'127.0.0.1\',\'::ffff:127.0.0.1\')\nexcept:\n    hosts = (http_host, )\n\nif request.env.http_x_forwarded_for or request.env.wsgi_url_scheme\\\n     in [\'https\', \'HTTPS\']:\n    session.secure()\nelif (remote_addr not in hosts) and (remote_addr != "127.0.0.1"):\n    raise HTTP(200, T(\'appadmin is disabled because insecure channel\'))\nif not gluon.fileutils.check_credentials(request):\n    redirect(URL(a=\'admin\', c=\'default\', f=\'index\'))\n\nignore_rw = True\nresponse.view = \'appadmin.html\'\nresponse.menu = [[T(\'design\'), False, URL(\'admin\', \'default\', \'design\',\n                 args=[request.application])], [T(\'db\'), False,\n                 URL(r=request, f=\'index\')], [T(\'state\'), False,\n                 URL(r=request, f=\'state\')], [T(\'cache\'), False,\n                 URL(r=request, f=\'ccache\')]]\n\n\'\'\'\n\n###teste de classe########################################\nclass MyClass(object):\n        z = 2\n        def __init__(self, a, b):\n            self.x = a\n            self.y = b\n        def add(self):\n            return self.x + self.y + self.z\n\n\nclass MyList(object):\n        def __init__(self, *a): self.a = list(a)\n        def __len__(self): return len(self.a)\n        def __getitem__(self, i): return self.a[i]\n        def __setitem__(self, i, j): self.a[i] = j\n\nTiposCarros = [\'Novo\',\'Usado\']\n\ndef user():\n    return dict(form=auth())\n\ndef fecha_venda(form_venda,vendabanco):\n\n    file = open(\'venda\'+str(vendabanco)+\'.txt\', \'w\')\n    file.write(\'venda realizada!\')\n    file.write(form_venda.id_venda)\n    file.write(\'form_venda.nome_vendedor!\')\n    file.write(\'form_venda.desconto!\')\n    file.write(\'form_venda.forma_pagamento!\')\n    file.write(\'form_venda.data!\')\n    file.close()\n    #file = open(\'a\', \'r\')\n    #print file.read()\n    #file.close()\n\n    return locals();\n\n\ndef Inicio():\n\n    session.flashed = False\n\n    #####classes#################\n    myinstance = MyClass(3, 4)\n    print myinstance.add()\n\n    b = MyList(3, 4, 5)\n    print b[1]\n    b.a[1] = 7\n    print b.a\n    ##############################\n\n    if not session.flashed:\n        response.flash = T(\'Bem vindo a loja de carros!\')\n\n    #response.write(\'Venha conhecer nossos carros!!!\')\n    ###############################\n    agora = request.now\n\n    #lista todos os carros na tela\n    #car_smartgrid  = SQLFORM.smartgrid(db2.carro)\n\n    #lista todos os carros na tela\n    #car_grid  = SQLFORM.grid(db2.carro)\n\n    #fecha_venda()\n\n    #contador de sess\xc3\xa3o\n    session.counter = (session.counter or 0) + 1\n    counter = session.counter\n\n    #mostrar o nome do usu\xc3\xa1rio na tela\n    if auth.user:\n       visitor_name = auth.user.first_name\n    else:\n       visitor_name = \'nenhum\'\n\n    table_hora = []\n    table_hora.append(TR(\'Hora Atual:\',agora))\n    table_hora.append(TR(\'Visitante:\',visitor_name))\n    table_hora.append(TR(\'N\xc3\xbamero de visitas:\',counter))\n    table = TABLE(table_hora)\n    form_hora = FORM(table)\n\n    order = db2.carro.marca\n    #selecionar apenas os que possuem fotos\n    registros = db2(db2.carro.foto!=None).select(orderby=order)\n\n    ###########################################\n    #Isso aqui precisa ser arrumado para que eu\n    #consiga colocar as informa\xc3\xa7\xc3\xb5es como eu\n    #quero na tela\n    ###########################################\n    #table_carro = []\n    #for registro in registros:\n    #    table_carro.append(TR(\'MARCA:\',registro.marca))\n    #    table_carro.append(TR(\'MODELO:\',visitor_name))\n    #    table_carro.append(TR(\'ANO:\',counter))\n    #    table = TABLE(table_carro)\n    #form_carro = FORM(table)\n\n    form_teste = FORM(registros)\n\n    title = "Loja de Carros"\n\n#    showcase = SHOWCASE(registros)\n\n    return locals()\n\ndef venda():\n\n     if not session.flashed:\n        response.flash = T(\'Bem vindo a tela de vendas!\')\n\n     title = "Venda"\n\n     ####SQL####################################################\n     #######################################################\n     #aqui ele formata tudo sozinho e ainda envia para o banco sozinho tamb\xc3\xa9m\n     #mas n\xc3\xa3o mostra a mensagem de falha ou aceita\xc3\xa7\xc3\xa3o sozinho\n     venda_sqlform = SQLFORM(db2.venda)\n\n     if venda_sqlform.accepts(request,session):\n        response.flash = \'Form accepted\'\n        fecha_venda(venda,db2.venda.id)\n     elif venda_sqlform.errors:\n        response.flash = \'Form has errors\'\n     else:\n        response.flash = \'Please fill the form\'\n\n     return locals()\n\ndef download():\n    import os\n    #db2 = get_database(request)\n    return response.download(request, db2)\n\n#@auth.requires_login()\ndef comprador():\n\n    title = \'Cliente\'\n\n    #lista todos os carros na tela\n    comprador_grid = SQLFORM.smartgrid(db2.comprador)\n\n    #CRUD\n    #aqui ele formata tudo sozinho e ainda envia para o banco sozinho tamb\xc3\xa9m\n    #mostra a mensagem de falha sozinho\n    from gluon.tools import Crud\n    crud = Crud(db2)\n    comprador_crud = crud.create(db2.comprador)\n\n    ####SQL####################################################\n    #######################################################\n    #aqui ele formata tudo sozinho e ainda envia para o banco sozinho tamb\xc3\xa9m\n    #mas n\xc3\xa3o mostra a mensagem de falha ou aceita\xc3\xa7\xc3\xa3o sozinho\n    comprador_sqlform = SQLFORM(db2.comprador)\n\n    if comprador_sqlform.accepts(request,session):\n        response.flash = \'Form accepted\'\n    elif comprador_sqlform.errors:\n        response.flash = \'Form has errors\'\n    else:\n        response.flash = \'Please fill the form\'\n\n    return locals()\n\n#@auth.requires_membership(\'Master\')\ndef marca():\n\n    title = "Cadastro de Marcas"\n\n    #lista todos os carros na tela\n    marca_grid  = SQLFORM.smartgrid(db2.marca)\n\n    #CRUD\n    #aqui ele formata tudo sozinho e ainda envia para o banco sozinho tamb\xc3\xa9m\n    #mostra a mensagem de falha sozinho\n    from gluon.tools import Crud\n    crud = Crud(db2)\n    marca_crud = crud.create(db2.marca)\n\n    ####SQL####################################################\n    #######################################################\n    #aqui ele formata tudo sozinho e ainda envia para o banco sozinho tamb\xc3\xa9m\n    #mas n\xc3\xa3o mostra a mensagem de falha ou aceita\xc3\xa7\xc3\xa3o sozinho\n    marca_sqlform = SQLFORM(db2.marca)\n\n    if marca_sqlform.accepts(request,session):\n        response.flash = \'Form accepted\'\n    elif marca_sqlform.errors:\n        response.flash = \'Form has errors\'\n    else:\n        response.flash = \'Please fill the form\'\n\n    return locals()\n\n#@auth.requires_membership(\'Master\')\ndef carro():\n\n    title = "Cadastro de Carros"\n\n    if not session.flashed:\n        response.flash = T(\'Bem vindo a loja de carros!\')\n\n    #lista todos os carros na tela\n    car_grid = SQLFORM.smartgrid(db2.carro)\n\n    #CRUD\n    #aqui ele formata tudo sozinho e ainda envia para o banco sozinho tamb\xc3\xa9m\n    #mostra a mensagem de falha sozinho\n    from gluon.tools import Crud\n    crud = Crud(db2)\n    carro_crud = crud.create(db2.carro)\n\n    #######################################################\n    #aqui ele formata tudo sozinho e ainda envia para o banco sozinho tamb\xc3\xa9m\n    #mas n\xc3\xa3o mostra a mensagem de falha ou aceita\xc3\xa7\xc3\xa3o sozinho\n    carro_sqlform = SQLFORM(db2.carro)\n\n    if carro_sqlform.accepts(request,session):\n        response.flash = \'Form accepted\'\n    elif carro_sqlform.errors:\n        response.flash = \'Form has errors\'\n    else:\n        response.flash = \'Please fill the form\'\n\n    #######################################################\n     # Must repeat the field validators declared in the db.py\n    marca_input=INPUT(_name=\'marca_input\', requires=IS_IN_DB(db2, \'marca.id\',\'marca.nome\',error_message=e_m[\'not_in_db\']))\n    modelo_input=INPUT(_name=\'modelo_input\')\n    y1 = request.now.year-20\n    y2 = request.now.year+2\n    ano_input=INPUT(_name=\'ano_input\', requires=IS_INT_IN_RANGE(y1,y2,error_message=e_m[\'not_in_range\']))\n    cor_input=INPUT(_name=\'cor_input\', requires=IS_IN_SET(cores))\n    valor_input=INPUT(_name=\'valor_input\')\n    itens_input=INPUT(_name=\'itens_input\',requires=IS_IN_SET((\'Alarme\',\'Trava\',\'Som\', \'Ar\'),multiple=True,error_message=e_m[\'not_in_set\']))\n    estado_input=INPUT(_name=\'estado_input\',requires=IS_IN_SET(estados,error_message=e_m[\'not_in_set\']))\n    desc_input=INPUT(_name=\'desc_input\')\n    foto_input=INPUT(_name=\'foto_input\',requires=IS_IMAGE(IS_IMAGE(extensions=(\'jpeg\', \'png\', \'.gif\'),error_message=e_m[\'image\'])))\n\n    #neste ponto define a posi\xc3\xa7\xc3\xa3o dos dados dentro de uma tabela\n    # Manual creation of the html table\n    table_rows = []\n    table_rows.append(TR(\'Marca:\', marca_input))\n    table_rows.append(TR(\'Modelo:\', modelo_input))\n    table_rows.append(TR(\'Ano:\', ano_input))\n    table_rows.append(TR(\'Cor:\', cor_input))\n    table_rows.append(TR(\'Valor:\', valor_input))\n    table_rows.append(TR(\'Itens:\', itens_input))\n    table_rows.append(TR(\'Estado:\', estado_input))\n    table_rows.append(TR(\'Descri\xc3\xa7\xc3\xa3o:\', desc_input))\n    table_rows.append(TR(\'Foto:\', foto_input))\n    # Fields starting with _ are passed to the html as attribute elements\n    table_rows.append(TR(TD(INPUT(_type=\'submit\'), _colspan=\'2\', _align=\'center\')))\n    table = TABLE(table_rows)\n\n    form = FORM(table)\n\n    #momento em que realmente o dado \xc3\xa9 colocado dentro do banco de dados\n    # Processing the form submition\n    if form.accepts(request,session):\n        # Retriving the form fields\n        form_marca_input = form.vars.marca\n        form_modelo_input = form.vars.modelo\n        form_ano_input = form.vars.ano\n        form_cor_input = form.vars.cor\n        form_valor_input = form.vars.valor\n        form_itens_input = form.vars.itens\n        form_estado_input = form.vars.estado\n        form_desc_input = form.vars.desc\n        form_foto_input = form.vars.foto\n        # Inserting in the database\n        db.car_model.insert(marca=form_marca_input, modelo = form_modelo_input,ano = form_ano_input, cor = form_cor_input, valor = form_valor_input, itens = form_itens_input, estado = form_estado_input, desc = form_desc_input, foto = form_foto_input)\n        # Tell the user about the insertion\n        response.flash = \'New car: \' + form_modelo_input\n    elif form.errors:\n        response.flash = \'Form has errors\'\n    else:\n        response.flash = \'Please fill the form\'\n\n    #######################################################\n\n    return locals()\n\n#@auth.requires_membership(\'Master\')\ndef vendedor():\n\n    title = "Cadastro de Vendedores"\n\n    #lista todos os carros na tela\n    vendedor_grid  = SQLFORM.smartgrid(db2.vendedor)\n\n    #CRUD\n    #aqui ele formata tudo sozinho e ainda envia para o banco sozinho tamb\xc3\xa9m\n    #mostra a mensagem de falha sozinho\n    from gluon.tools import Crud\n    crud = Crud(db2)\n    vendedor_crud = crud.create(db2.vendedor)\n\n    ####SQL####################################################\n    #######################################################\n    #aqui ele formata tudo sozinho e ainda envia para o banco sozinho tamb\xc3\xa9m\n    #mas n\xc3\xa3o mostra a mensagem de falha ou aceita\xc3\xa7\xc3\xa3o sozinho\n    vendedor_sqlform = SQLFORM(db2.vendedor)\n\n    if vendedor_sqlform.accepts(request,session):\n        response.flash = \'Form accepted\'\n    elif vendedor_sqlform.errors:\n        response.flash = \'Form has errors\'\n    else:\n        response.flash = \'Please fill the form\'\n\n    return locals()\n\n\n#@auth.requires_login()\ndef admin():\n\n    args = request.args\n\n    title = \'administration\'\n\n    if not args:\n        link = UL(*[LI(A(tab,_href=URL(args=tab))) for tab in db.tables])\n        return dict(items=link,title=title)\n\n    if not args(1):\n        i = 0\n    else:\n        i =1\n\n    for tab in db.tables:\n        if tab==args(i):\n            tb = db[tab]\n\n    from gluon.tools import Crud\n    crud = Crud(db)\n\n    if args(0)==\'edit\':\n        form = crud.update(tb, args(2),next=URL(f=\'admin\',args=args(1)))\n        items = None\n        title = \'Edit %s \' % args(i)\n    else:\n        form = crud.create(tb)\n        rows = db().select(tb.ALL)\n        items = SQLTABLE(rows,linkto=\'edit\')\n        title = \'Insert %s \' % args(i)\n\n\n    return dict(form=form,items=items,title=title)\n\nresponse._vars=response._caller(venda)\n'
p7
sS'snapshot'
p8
(dp9
S'exception'
p10
(dp11
S'__hash__'
p12
S"<method-wrapper '__hash__' of exceptions.AttributeError object>"
p13
sS'__setattr__'
p14
S"<method-wrapper '__setattr__' of exceptions.AttributeError object>"
p15
sS'__reduce_ex__'
p16
S'<built-in method __reduce_ex__ of exceptions.AttributeError object>'
p17
sS'__getslice__'
p18
S"<method-wrapper '__getslice__' of exceptions.AttributeError object>"
p19
sS'__getitem__'
p20
S"<method-wrapper '__getitem__' of exceptions.AttributeError object>"
p21
sS'__setstate__'
p22
S'<built-in method __setstate__ of exceptions.AttributeError object>'
p23
sS'__reduce__'
p24
S'<built-in method __reduce__ of exceptions.AttributeError object>'
p25
sS'__str__'
p26
S"<method-wrapper '__str__' of exceptions.AttributeError object>"
p27
sS'__format__'
p28
S'<built-in method __format__ of exceptions.AttributeError object>'
p29
sS'__getattribute__'
p30
S"<method-wrapper '__getattribute__' of exceptions.AttributeError object>"
p31
sS'__class__'
p32
S"<type 'exceptions.AttributeError'>"
p33
sS'__unicode__'
p34
S'<built-in method __unicode__ of exceptions.AttributeError object>'
p35
sS'__delattr__'
p36
S"<method-wrapper '__delattr__' of exceptions.AttributeError object>"
p37
sS'__subclasshook__'
p38
S'<built-in method __subclasshook__ of type object>'
p39
sS'__repr__'
p40
S"<method-wrapper '__repr__' of exceptions.AttributeError object>"
p41
sS'args'
p42
S'("\'function\' object has no attribute \'id_venda\'",)'
p43
sS'__dict__'
p44
S'{}'
p45
sS'__sizeof__'
p46
S'<built-in method __sizeof__ of exceptions.AttributeError object>'
p47
sS'__doc__'
p48
S"'Attribute not found.'"
p49
sS'__init__'
p50
S"<method-wrapper '__init__' of exceptions.AttributeError object>"
p51
sS'__new__'
p52
S'<built-in method __new__ of type object>'
p53
ssS'evalue'
p54
S"'function' object has no attribute 'id_venda'"
p55
sS'request'
p56
cgluon.html
XML_unpickle
p57
(S's#h\x00\x00<div><table><tr><td style="font-weight:bold;vertical-align:top;">ajax</td><td style="vertical-align:top;">:</td><td><div>False</div></td></tr><tr><td style="font-weight:bold;vertical-align:top;">application</td><td style="vertical-align:top;">:</td><td><div>site_two_alterado</div></td></tr><tr><td style="font-weight:bold;vertical-align:top;">args</td><td style="vertical-align:top;">:</td><td><div><table></table></div></td></tr><tr><td style="font-weight:bold;vertical-align:top;">cid</td><td style="vertical-align:top;">:</td><td><div>None</div></td></tr><tr><td style="font-weight:bold;vertical-align:top;">client</td><td style="vertical-align:top;">:</td><td><div>127.0.0.1</div></td></tr><tr><td style="font-weight:bold;vertical-align:top;">controller</td><td style="vertical-align:top;">:</td><td><div>Veiculo</div></td></tr><tr><td style="font-weight:bold;vertical-align:top;">cookies</td><td style="vertical-align:top;">:</td><td><div><table><tr><td style="font-weight:bold;vertical-align:top;">session_id_admin</td><td style="vertical-align:top;">:</td><td><div>127.0.0.1-5c144b57-6f0f-41d9-9a85-cf1bd5391daa<table><tr><td style="font-weight:bold;vertical-align:top;">comment</td><td style="vertical-align:top;">:</td><td><div></div></td></tr><tr><td style="font-weight:bold;vertical-align:top;">domain</td><td style="vertical-align:top;">:</td><td><div></div></td></tr><tr><td style="font-weight:bold;vertical-align:top;">expires</td><td style="vertical-align:top;">:</td><td><div></div></td></tr><tr><td style="font-weight:bold;vertical-align:top;">httponly</td><td style="vertical-align:top;">:</td><td><div></div></td></tr><tr><td style="font-weight:bold;vertical-align:top;">max-age</td><td style="vertical-align:top;">:</td><td><div></div></td></tr><tr><td style="font-weight:bold;vertical-align:top;">path</td><td style="vertical-align:top;">:</td><td><div></div></td></tr><tr><td style="font-weight:bold;vertical-align:top;">secure</td><td style="vertical-align:top;">:</td><td><div></div></td></tr><tr><td style="font-weight:bold;vertical-align:top;">version</td><td style="vertical-align:top;">:</td><td><div></div></td></tr></table></div></td></tr><tr><td style="font-weight:bold;vertical-align:top;">session_id_site_two_alterado</td><td style="vertical-align:top;">:</td><td><div>127.0.0.1-6c064ebe-a90b-4ce7-81d3-7115944b77e4<table><tr><td style="font-weight:bold;vertical-align:top;">comment</td><td style="vertical-align:top;">:</td><td><div></div></td></tr><tr><td style="font-weight:bold;vertical-align:top;">domain</td><td style="vertical-align:top;">:</td><td><div></div></td></tr><tr><td style="font-weight:bold;vertical-align:top;">expires</td><td style="vertical-align:top;">:</td><td><div></div></td></tr><tr><td style="font-weight:bold;vertical-align:top;">httponly</td><td style="vertical-align:top;">:</td><td><div></div></td></tr><tr><td style="font-weight:bold;vertical-align:top;">max-age</td><td style="vertical-align:top;">:</td><td><div></div></td></tr><tr><td style="font-weight:bold;vertical-align:top;">path</td><td style="vertical-align:top;">:</td><td><div></div></td></tr><tr><td style="font-weight:bold;vertical-align:top;">secure</td><td style="vertical-align:top;">:</td><td><div></div></td></tr><tr><td style="font-weight:bold;vertical-align:top;">version</td><td style="vertical-align:top;">:</td><td><div></div></td></tr></table></div></td></tr><tr><td style="font-weight:bold;vertical-align:top;">session_id_welcome</td><td style="vertical-align:top;">:</td><td><div>127.0.0.1-320c6760-2ada-493b-b412-3bb5f6b12d8b<table><tr><td style="font-weight:bold;vertical-align:top;">comment</td><td style="vertical-align:top;">:</td><td><div></div></td></tr><tr><td style="font-weight:bold;vertical-align:top;">domain</td><td style="vertical-align:top;">:</td><td><div></div></td></tr><tr><td style="font-weight:bold;vertical-align:top;">expires</td><td style="vertical-align:top;">:</td><td><div></div></td></tr><tr><td style="font-weight:bold;vertical-align:top;">httponly</td><td style="vertical-align:top;">:</td><td><div></div></td></tr><tr><td style="font-weight:bold;vertical-align:top;">max-age</td><td style="vertical-align:top;">:</td><td><div></div></td></tr><tr><td style="font-weight:bold;vertical-align:top;">path</td><td style="vertical-align:top;">:</td><td><div></div></td></tr><tr><td style="font-weight:bold;vertical-align:top;">secure</td><td style="vertical-align:top;">:</td><td><div></div></td></tr><tr><td style="font-weight:bold;vertical-align:top;">version</td><td style="vertical-align:top;">:</td><td><div></div></td></tr></table></div></td></tr></table></div></td></tr><tr><td style="font-weight:bold;vertical-align:top;">env</td><td style="vertical-align:top;">:</td><td><div><table><tr><td style="font-weight:bold;vertical-align:top;">CONTENT_LENGTH</td><td style="vertical-align:top;">:</td><td><div>687</div></td></tr><tr><td style="font-weight:bold;vertical-align:top;">CONTENT_TYPE</td><td style="vertical-align:top;">:</td><td><div>multipart/form-data; boundary=----WebKitFormBoundaryCc55mob4sWCRCPur</div></td></tr><tr><td style="font-weight:bold;vertical-align:top;">HTTP_ACCEPT</td><td style="vertical-align:top;">:</td><td><div>text/html,application/xhtml+xml,application/xml;q=0.9,image/webp,*/*;q=0.8</div></td></tr><tr><td style="font-weight:bold;vertical-align:top;">HTTP_ACCEPT_ENCODING</td><td style="vertical-align:top;">:</td><td><div>gzip, deflate</div></td></tr><tr><td style="font-weight:bold;vertical-align:top;">HTTP_ACCEPT_LANGUAGE</td><td style="vertical-align:top;">:</td><td><div>pt-BR,pt;q=0.8,en-US;q=0.6,en;q=0.4</div></td></tr><tr><td style="font-weight:bold;vertical-align:top;">HTTP_CACHE_CONTROL</td><td style="vertical-align:top;">:</td><td><div>max-age=0</div></td></tr><tr><td style="font-weight:bold;vertical-align:top;">HTTP_CONNECTION</td><td style="vertical-align:top;">:</td><td><div>keep-alive</div></td></tr><tr><td style="font-weight:bold;vertical-align:top;">HTTP_CONTENT_LENGTH</td><td style="vertical-align:top;">:</td><td><div>687</div></td></tr><tr><td style="font-weight:bold;vertical-align:top;">HTTP_CONTENT_TYPE</td><td style="vertical-align:top;">:</td><td><div>multipart/form-data; boundary=----WebKitFormBoundaryCc55mob4sWCRCPur</div></td></tr><tr><td style="font-weight:bold;vertical-align:top;">HTTP_COOKIE</td><td style="vertical-align:top;">:</td><td><div>session_id_welcome=127.0.0.1-320c6760-2ada-493b-b412-3bb5f6b12d8b; session_id_admin=127.0.0.1-5c144b57-6f0f-41d9-9a85-cf1bd5391daa; session_id_site_two_alterado=127.0.0.1-6c064ebe-a90b-4ce7-81d3-7115944b77e4</div></td></tr><tr><td style="font-weight:bold;vertical-align:top;">HTTP_HOST</td><td style="vertical-align:top;">:</td><td><div>127.0.0.1:8000</div></td></tr><tr><td style="font-weight:bold;vertical-align:top;">HTTP_ORIGIN</td><td style="vertical-align:top;">:</td><td><div>http://127.0.0.1:8000</div></td></tr><tr><td style="font-weight:bold;vertical-align:top;">HTTP_REFERER</td><td style="vertical-align:top;">:</td><td><div>http://127.0.0.1:8000/site_two_alterado/Veiculo/venda</div></td></tr><tr><td style="font-weight:bold;vertical-align:top;">HTTP_UPGRADE_INSECURE_REQUESTS</td><td style="vertical-align:top;">:</td><td><div>1</div></td></tr><tr><td style="font-weight:bold;vertical-align:top;">HTTP_USER_AGENT</td><td style="vertical-align:top;">:</td><td><div>Mozilla/5.0 (Windows NT 6.1; WOW64) AppleWebKit/537.36 (KHTML, like Gecko) Chrome/44.0.2403.155 Safari/537.36</div></td></tr><tr><td style="font-weight:bold;vertical-align:top;">PATH_INFO</td><td style="vertical-align:top;">:</td><td><div>/site_two_alterado/Veiculo/venda</div></td></tr><tr><td style="font-weight:bold;vertical-align:top;">QUERY_STRING</td><td style="vertical-align:top;">:</td><td><div></div></td></tr><tr><td style="font-weight:bold;vertical-align:top;">REMOTE_ADDR</td><td style="vertical-align:top;">:</td><td><div>127.0.0.1</div></td></tr><tr><td style="font-weight:bold;vertical-align:top;">REMOTE_PORT</td><td style="vertical-align:top;">:</td><td><div>50094</div></td></tr><tr><td style="font-weight:bold;vertical-align:top;">REQUEST_METHOD</td><td style="vertical-align:top;">:</td><td><div>POST</div></td></tr><tr><td style="font-weight:bold;vertical-align:top;">SCRIPT_NAME</td><td style="vertical-align:top;">:</td><td><div></div></td></tr><tr><td style="font-weight:bold;vertical-align:top;">SERVER_NAME</td><td style="vertical-align:top;">:</td><td><div>TecSUS-3-PC</div></td></tr><tr><td style="font-weight:bold;vertical-align:top;">SERVER_PORT</td><td style="vertical-align:top;">:</td><td><div>8000</div></td></tr><tr><td style="font-weight:bold;vertical-align:top;">SERVER_PROTOCOL</td><td style="vertical-align:top;">:</td><td><div>HTTP/1.1</div></td></tr><tr><td style="font-weight:bold;vertical-align:top;">SERVER_SOFTWARE</td><td style="vertical-align:top;">:</td><td><div>Rocket 1.2.6</div></td></tr><tr><td style="font-weight:bold;vertical-align:top;">app_folders</td><td style="vertical-align:top;">:</td><td><div>set([&#x27;C:\\\\Users\\\\TecSUS-3\\\\Desktop\\\\template_site\\\\web2py\\\\applications\\\\admin\\\\&#x27;, &#x27;C:\\\\Users\\\\TecSUS-3\\\\Desktop\\\\template_site\\\\web2py\\\\applications\\\\site_two_alterado\\\\&#x27;, &#x27;C:\\\\Users\\\\TecSUS-3\\\\Desktop\\\\template_site\\\\web2py\\\\applications\\\\welcome\\\\&#x27;])</div></td></tr><tr><td style="font-weight:bold;vertical-align:top;">applications_parent</td><td style="vertical-align:top;">:</td><td><div>C:\\Users\\TecSUS-3\\Desktop\\template_site\\web2py</div></td></tr><tr><td style="font-weight:bold;vertical-align:top;">cmd_args</td><td style="vertical-align:top;">:</td><td><div><table></table></div></td></tr><tr><td style="font-weight:bold;vertical-align:top;">cmd_options</td><td style="vertical-align:top;">:</td><td><div>&lt;Values at 0x3667cb0: {&#x27;verbose&#x27;: False, &#x27;ip&#x27;: &#x27;127.0.0.1&#x27;, &#x27;debuglevel&#x27;: 30, &#x27;with_scheduler&#x27;: False, &#x27;ips&#x27;: [&#x27;192.241.173.135&#x27;], &#x27;shutdown_timeout&#x27;: 5, &#x27;taskbar&#x27;: False, &#x27;with_coverage&#x27;: False, &#x27;scheduler_groups&#x27;: None, &#x27;port&#x27;: 8000, &#x27;maxthreads&#x27;: None, &#x27;softcron&#x27;: False, &#x27;server_name&#x27;: &#x27;TecSUS-3-PC&#x27;, &#x27;bpython&#x27;: False, &#x27;nogui&#x27;: False, &#x27;pid_filename&#x27;: &#x27;httpserver.pid&#x27;, &#x27;print_errors&#x27;: False, &#x27;extcron&#x27;: False, &#x27;runcron&#x27;: False, &#x27;run_system_tests&#x27;: False, &#x27;test&#x27;: None, &#x27;folder&#x27;: &#x27;C:\\\\Users\\\\TecSUS-3\\\\Desktop\\\\template_site\\\\web2py&#x27;, &#x27;config&#x27;: &#x27;&#x27;, &#x27;minthreads&#x27;: None, &#x27;shell&#x27;: None, &#x27;run&#x27;: &#x27;&#x27;, &#x27;log_filename&#x27;: &#x27;httpserver.log&#x27;, &#x27;profiler_dir&#x27;: None, &#x27;args&#x27;: [&#x27;&#x27;], &#x27;socket_timeout&#x27;: 5, &#x27;ssl_ca_certificate&#x27;: None, &#x27;scheduler&#x27;: None, &#x27;interfaces&#x27;: None, &#x27;ssl_private_key&#x27;: &#x27;&#x27;, &#x27;gae&#x27;: None, &#x27;password&#x27;: &#x27;&lt;ask&gt;&#x27;, &#x27;request_queue_size&#x27;: 5, &#x27;ssl_certificate&#x27;: &#x27;&#x27;, &#x27;cronjob&#x27;: False, &#x27;numthreads&#x27;: None, &#x27;quiet&#x27;: False, &#x27;import_models&#x27;: False, &#x27;timeout&#x27;: 10, &#x27;plain&#x27;: False, &#x27;nobanner&#x27;: False}&gt;</div></td></tr><tr><td style="font-weight:bold;vertical-align:top;">content_length</td><td style="vertical-align:top;">:</td><td><div>687</div></td></tr><tr><td style="font-weight:bold;vertical-align:top;">content_type</td><td style="vertical-align:top;">:</td><td><div>multipart/form-data; boundary=----WebKitFormBoundaryCc55mob4sWCRCPur</div></td></tr><tr><td style="font-weight:bold;vertical-align:top;">db_sessions</td><td style="vertical-align:top;">:</td><td><div>set([])</div></td></tr><tr><td style="font-weight:bold;vertical-align:top;">debugging</td><td style="vertical-align:top;">:</td><td><div>False</div></td></tr><tr><td style="font-weight:bold;vertical-align:top;">gluon_parent</td><td style="vertical-align:top;">:</td><td><div>C:\\Users\\TecSUS-3\\Desktop\\template_site\\web2py</div></td></tr><tr><td style="font-weight:bold;vertical-align:top;">http_accept</td><td style="vertical-align:top;">:</td><td><div>text/html,application/xhtml+xml,application/xml;q=0.9,image/webp,*/*;q=0.8</div></td></tr><tr><td style="font-weight:bold;vertical-align:top;">http_accept_encoding</td><td style="vertical-align:top;">:</td><td><div>gzip, deflate</div></td></tr><tr><td style="font-weight:bold;vertical-align:top;">http_accept_language</td><td style="vertical-align:top;">:</td><td><div>pt-BR,pt;q=0.8,en-US;q=0.6,en;q=0.4</div></td></tr><tr><td style="font-weight:bold;vertical-align:top;">http_cache_control</td><td style="vertical-align:top;">:</td><td><div>max-age=0</div></td></tr><tr><td style="font-weight:bold;vertical-align:top;">http_connection</td><td style="vertical-align:top;">:</td><td><div>keep-alive</div></td></tr><tr><td style="font-weight:bold;vertical-align:top;">http_content_length</td><td style="vertical-align:top;">:</td><td><div>687</div></td></tr><tr><td style="font-weight:bold;vertical-align:top;">http_content_type</td><td style="vertical-align:top;">:</td><td><div>multipart/form-data; boundary=----WebKitFormBoundaryCc55mob4sWCRCPur</div></td></tr><tr><td style="font-weight:bold;vertical-align:top;">http_cookie</td><td style="vertical-align:top;">:</td><td><div>session_id_welcome=127.0.0.1-320c6760-2ada-493b-b412-3bb5f6b12d8b; session_id_admin=127.0.0.1-5c144b57-6f0f-41d9-9a85-cf1bd5391daa; session_id_site_two_alterado=127.0.0.1-6c064ebe-a90b-4ce7-81d3-7115944b77e4</div></td></tr><tr><td style="font-weight:bold;vertical-align:top;">http_host</td><td style="vertical-align:top;">:</td><td><div>127.0.0.1:8000</div></td></tr><tr><td style="font-weight:bold;vertical-align:top;">http_origin</td><td style="vertical-align:top;">:</td><td><div>http://127.0.0.1:8000</div></td></tr><tr><td style="font-weight:bold;vertical-align:top;">http_referer</td><td style="vertical-align:top;">:</td><td><div>http://127.0.0.1:8000/site_two_alterado/Veiculo/venda</div></td></tr><tr><td style="font-weight:bold;vertical-align:top;">http_upgrade_insecure_requests</td><td style="vertical-align:top;">:</td><td><div>1</div></td></tr><tr><td style="font-weight:bold;vertical-align:top;">http_user_agent</td><td style="vertical-align:top;">:</td><td><div>Mozilla/5.0 (Windows NT 6.1; WOW64) AppleWebKit/537.36 (KHTML, like Gecko) Chrome/44.0.2403.155 Safari/537.36</div></td></tr><tr><td style="font-weight:bold;vertical-align:top;">is_jython</td><td style="vertical-align:top;">:</td><td><div>False</div></td></tr><tr><td style="font-weight:bold;vertical-align:top;">is_pypy</td><td style="vertical-align:top;">:</td><td><div>False</div></td></tr><tr><td style="font-weight:bold;vertical-align:top;">is_source</td><td style="vertical-align:top;">:</td><td><div>True</div></td></tr><tr><td style="font-weight:bold;vertical-align:top;">local_hosts</td><td style="vertical-align:top;">:</td><td><div><table><tr><td><div>192.241.173.135</div></td></tr><tr><td><div>fe80::487:2eff:2cf4:8cd6%11</div></td></tr><tr><td><div>TecSUS-3-PC</div></td></tr><tr><td><div>TecSUS-3-PC.tecsus.com.br</div></td></tr><tr><td><div>::ffff:127.0.0.1</div></td></tr><tr><td><div>::1</div></td></tr><tr><td><div>192.168.0.13</div></td></tr><tr><td><div>127.0.0.1</div></td></tr><tr><td><div>fe80::5efe:192.168.0.13%12</div></td></tr></table></div></td></tr><tr><td style="font-weight:bold;vertical-align:top;">path_info</td><td style="vertical-align:top;">:</td><td><div>/site_two_alterado/Veiculo/venda</div></td></tr><tr><td style="font-weight:bold;vertical-align:top;">query_string</td><td style="vertical-align:top;">:</td><td><div></div></td></tr><tr><td style="font-weight:bold;vertical-align:top;">remote_addr</td><td style="vertical-align:top;">:</td><td><div>127.0.0.1</div></td></tr><tr><td style="font-weight:bold;vertical-align:top;">remote_port</td><td style="vertical-align:top;">:</td><td><div>50094</div></td></tr><tr><td style="font-weight:bold;vertical-align:top;">request_method</td><td style="vertical-align:top;">:</td><td><div>POST</div></td></tr><tr><td style="font-weight:bold;vertical-align:top;">request_uri</td><td style="vertical-align:top;">:</td><td><div>/site_two_alterado/Veiculo/venda</div></td></tr><tr><td style="font-weight:bold;vertical-align:top;">script_name</td><td style="vertical-align:top;">:</td><td><div></div></td></tr><tr><td style="font-weight:bold;vertical-align:top;">server_name</td><td style="vertical-align:top;">:</td><td><div>TecSUS-3-PC</div></td></tr><tr><td style="font-weight:bold;vertical-align:top;">server_port</td><td style="vertical-align:top;">:</td><td><div>8000</div></td></tr><tr><td style="font-weight:bold;vertical-align:top;">server_protocol</td><td style="vertical-align:top;">:</td><td><div>HTTP/1.1</div></td></tr><tr><td style="font-weight:bold;vertical-align:top;">server_software</td><td style="vertical-align:top;">:</td><td><div>Rocket 1.2.6</div></td></tr><tr><td style="font-weight:bold;vertical-align:top;">web2py_path</td><td style="vertical-align:top;">:</td><td><div>C:\\Users\\TecSUS-3\\Desktop\\template_site\\web2py</div></td></tr><tr><td style="font-weight:bold;vertical-align:top;">web2py_version</td><td style="vertical-align:top;">:</td><td><div>2.10.4-stable+timestamp.2015.04.26.15.11.54</div></td></tr><tr><td style="font-weight:bold;vertical-align:top;">wsgi.errors</td><td style="vertical-align:top;">:</td><td><div>&lt;open file &#x27;&lt;stderr&gt;&#x27;, mode &#x27;w&#x27; at 0x01D0D0D0&gt;</div></td></tr><tr><td style="font-weight:bold;vertical-align:top;">wsgi.file_wrapper</td><td style="vertical-align:top;">:</td><td><div>&lt;class wsgiref.util.FileWrapper at 0x03602F10&gt;</div></td></tr><tr><td style="font-weight:bold;vertical-align:top;">wsgi.input</td><td style="vertical-align:top;">:</td><td><div>&lt;socket._fileobject object at 0x045B6BB0&gt;</div></td></tr><tr><td style="font-weight:bold;vertical-align:top;">wsgi.multiprocess</td><td style="vertical-align:top;">:</td><td><div>False</div></td></tr><tr><td style="font-weight:bold;vertical-align:top;">wsgi.multithread</td><td style="vertical-align:top;">:</td><td><div>True</div></td></tr><tr><td style="font-weight:bold;vertical-align:top;">wsgi.run_once</td><td style="vertical-align:top;">:</td><td><div>False</div></td></tr><tr><td style="font-weight:bold;vertical-align:top;">wsgi.url_scheme</td><td style="vertical-align:top;">:</td><td><div>http</div></td></tr><tr><td style="font-weight:bold;vertical-align:top;">wsgi.version</td><td style="vertical-align:top;">:</td><td><div><table><tr><td><div>1</div></td></tr><tr><td><div>0</div></td></tr></table></div></td></tr><tr><td style="font-weight:bold;vertical-align:top;">wsgi_errors</td><td style="vertical-align:top;">:</td><td><div>&lt;open file &#x27;&lt;stderr&gt;&#x27;, mode &#x27;w&#x27; at 0x01D0D0D0&gt;</div></td></tr><tr><td style="font-weight:bold;vertical-align:top;">wsgi_file_wrapper</td><td style="vertical-align:top;">:</td><td><div>&lt;class wsgiref.util.FileWrapper at 0x03602F10&gt;</div></td></tr><tr><td style="font-weight:bold;vertical-align:top;">wsgi_input</td><td style="vertical-align:top;">:</td><td><div>&lt;socket._fileobject object at 0x045B6BB0&gt;</div></td></tr><tr><td style="font-weight:bold;vertical-align:top;">wsgi_multiprocess</td><td style="vertical-align:top;">:</td><td><div>False</div></td></tr><tr><td style="font-weight:bold;vertical-align:top;">wsgi_multithread</td><td style="vertical-align:top;">:</td><td><div>True</div></td></tr><tr><td style="font-weight:bold;vertical-align:top;">wsgi_run_once</td><td style="vertical-align:top;">:</td><td><div>False</div></td></tr><tr><td style="font-weight:bold;vertical-align:top;">wsgi_url_scheme</td><td style="vertical-align:top;">:</td><td><div>http</div></td></tr><tr><td style="font-weight:bold;vertical-align:top;">wsgi_version</td><td style="vertical-align:top;">:</td><td><div><table><tr><td><div>1</div></td></tr><tr><td><div>0</div></td></tr></table></div></td></tr></table></div></td></tr><tr><td style="font-weight:bold;vertical-align:top;">extension</td><td style="vertical-align:top;">:</td><td><div>html</div></td></tr><tr><td style="font-weight:bold;vertical-align:top;">folder</td><td style="vertical-align:top;">:</td><td><div>C:\\Users\\TecSUS-3\\Desktop\\template_site\\web2py\\applications\\site_two_alterado\\</div></td></tr><tr><td style="font-weight:bold;vertical-align:top;">function</td><td style="vertical-align:top;">:</td><td><div>venda</div></td></tr><tr><td style="font-weight:bold;vertical-align:top;">global_settings</td><td style="vertical-align:top;">:</td><td><div><table><tr><td style="font-weight:bold;vertical-align:top;">app_folders</td><td style="vertical-align:top;">:</td><td><div>set([&#x27;C:\\\\Users\\\\TecSUS-3\\\\Desktop\\\\template_site\\\\web2py\\\\applications\\\\admin\\\\&#x27;, &#x27;C:\\\\Users\\\\TecSUS-3\\\\Desktop\\\\template_site\\\\web2py\\\\applications\\\\site_two_alterado\\\\&#x27;, &#x27;C:\\\\Users\\\\TecSUS-3\\\\Desktop\\\\template_site\\\\web2py\\\\applications\\\\welcome\\\\&#x27;])</div></td></tr><tr><td style="font-weight:bold;vertical-align:top;">applications_parent</td><td style="vertical-align:top;">:</td><td><div>C:\\Users\\TecSUS-3\\Desktop\\template_site\\web2py</div></td></tr><tr><td style="font-weight:bold;vertical-align:top;">cmd_args</td><td style="vertical-align:top;">:</td><td><div><table></table></div></td></tr><tr><td style="font-weight:bold;vertical-align:top;">cmd_options</td><td style="vertical-align:top;">:</td><td><div>&lt;Values at 0x3667cb0: {&#x27;verbose&#x27;: False, &#x27;ip&#x27;: &#x27;127.0.0.1&#x27;, &#x27;debuglevel&#x27;: 30, &#x27;with_scheduler&#x27;: False, &#x27;ips&#x27;: [&#x27;192.241.173.135&#x27;], &#x27;shutdown_timeout&#x27;: 5, &#x27;taskbar&#x27;: False, &#x27;with_coverage&#x27;: False, &#x27;scheduler_groups&#x27;: None, &#x27;port&#x27;: 8000, &#x27;maxthreads&#x27;: None, &#x27;softcron&#x27;: False, &#x27;server_name&#x27;: &#x27;TecSUS-3-PC&#x27;, &#x27;bpython&#x27;: False, &#x27;nogui&#x27;: False, &#x27;pid_filename&#x27;: &#x27;httpserver.pid&#x27;, &#x27;print_errors&#x27;: False, &#x27;extcron&#x27;: False, &#x27;runcron&#x27;: False, &#x27;run_system_tests&#x27;: False, &#x27;test&#x27;: None, &#x27;folder&#x27;: &#x27;C:\\\\Users\\\\TecSUS-3\\\\Desktop\\\\template_site\\\\web2py&#x27;, &#x27;config&#x27;: &#x27;&#x27;, &#x27;minthreads&#x27;: None, &#x27;shell&#x27;: None, &#x27;run&#x27;: &#x27;&#x27;, &#x27;log_filename&#x27;: &#x27;httpserver.log&#x27;, &#x27;profiler_dir&#x27;: None, &#x27;args&#x27;: [&#x27;&#x27;], &#x27;socket_timeout&#x27;: 5, &#x27;ssl_ca_certificate&#x27;: None, &#x27;scheduler&#x27;: None, &#x27;interfaces&#x27;: None, &#x27;ssl_private_key&#x27;: &#x27;&#x27;, &#x27;gae&#x27;: None, &#x27;password&#x27;: &#x27;&lt;ask&gt;&#x27;, &#x27;request_queue_size&#x27;: 5, &#x27;ssl_certificate&#x27;: &#x27;&#x27;, &#x27;cronjob&#x27;: False, &#x27;numthreads&#x27;: None, &#x27;quiet&#x27;: False, &#x27;import_models&#x27;: False, &#x27;timeout&#x27;: 10, &#x27;plain&#x27;: False, &#x27;nobanner&#x27;: False}&gt;</div></td></tr><tr><td style="font-weight:bold;vertical-align:top;">db_sessions</td><td style="vertical-align:top;">:</td><td><div>set([])</div></td></tr><tr><td style="font-weight:bold;vertical-align:top;">debugging</td><td style="vertical-align:top;">:</td><td><div>False</div></td></tr><tr><td style="font-weight:bold;vertical-align:top;">gluon_parent</td><td style="vertical-align:top;">:</td><td><div>C:\\Users\\TecSUS-3\\Desktop\\template_site\\web2py</div></td></tr><tr><td style="font-weight:bold;vertical-align:top;">is_jython</td><td style="vertical-align:top;">:</td><td><div>False</div></td></tr><tr><td style="font-weight:bold;vertical-align:top;">is_pypy</td><td style="vertical-align:top;">:</td><td><div>False</div></td></tr><tr><td style="font-weight:bold;vertical-align:top;">is_source</td><td style="vertical-align:top;">:</td><td><div>True</div></td></tr><tr><td style="font-weight:bold;vertical-align:top;">local_hosts</td><td style="vertical-align:top;">:</td><td><div><table><tr><td><div>192.241.173.135</div></td></tr><tr><td><div>fe80::487:2eff:2cf4:8cd6%11</div></td></tr><tr><td><div>TecSUS-3-PC</div></td></tr><tr><td><div>TecSUS-3-PC.tecsus.com.br</div></td></tr><tr><td><div>::ffff:127.0.0.1</div></td></tr><tr><td><div>::1</div></td></tr><tr><td><div>192.168.0.13</div></td></tr><tr><td><div>127.0.0.1</div></td></tr><tr><td><div>fe80::5efe:192.168.0.13%12</div></td></tr></table></div></td></tr><tr><td style="font-weight:bold;vertical-align:top;">web2py_version</td><td style="vertical-align:top;">:</td><td><div>2.10.4-stable+timestamp.2015.04.26.15.11.54</div></td></tr></table></div></td></tr><tr><td style="font-weight:bold;vertical-align:top;">is_https</td><td style="vertical-align:top;">:</td><td><div>False</div></td></tr><tr><td style="font-weight:bold;vertical-align:top;">is_local</td><td style="vertical-align:top;">:</td><td><div>True</div></td></tr><tr><td style="font-weight:bold;vertical-align:top;">is_restful</td><td style="vertical-align:top;">:</td><td><div>False</div></td></tr><tr><td style="font-weight:bold;vertical-align:top;">is_sheduler</td><td style="vertical-align:top;">:</td><td><div>None</div></td></tr><tr><td style="font-weight:bold;vertical-align:top;">is_shell</td><td style="vertical-align:top;">:</td><td><div>None</div></td></tr><tr><td style="font-weight:bold;vertical-align:top;">now</td><td style="vertical-align:top;">:</td><td><div>datetime.datetime(2015, 8, 19, 12, 33, 38, 144000)</div></td></tr><tr><td style="font-weight:bold;vertical-align:top;">raw_args</td><td style="vertical-align:top;">:</td><td><div></div></td></tr><tr><td style="font-weight:bold;vertical-align:top;">raw_extension</td><td style="vertical-align:top;">:</td><td><div>None</div></td></tr><tr><td style="font-weight:bold;vertical-align:top;">url</td><td style="vertical-align:top;">:</td><td><div>/site_two_alterado/Veiculo/venda</div></td></tr><tr><td style="font-weight:bold;vertical-align:top;">utcnow</td><td style="vertical-align:top;">:</td><td><div>datetime.datetime(2015, 8, 19, 15, 33, 38, 144000)</div></td></tr><tr><td style="font-weight:bold;vertical-align:top;">uuid</td><td style="vertical-align:top;">:</td><td><div>site_two_alterado/127.0.0.1.2015-08-19.12-33-38.f17de037-0164-4cd2-8103-62cc7de6fcae</div></td></tr><tr><td style="font-weight:bold;vertical-align:top;">wsgi</td><td style="vertical-align:top;">:</td><td><div>&lt;gluon.main.LazyWSGI object at 0x0AC31D30&gt;</div></td></tr></table></div>'
tRp58
sS'frames'
p59
(lp60
(dp61
S'file'
p62
S'C:\\Users\\TecSUS-3\\Desktop\\template_site\\web2py\\gluon\\restricted.py'
p63
sS'dump'
p64
(dp65
S'environment'
p66
S"{'A': <class 'gluon.html.A'>, 'ANY_OF': <class 'gluon.validators.ANY_OF'>, 'ASSIGNJS': <function ASSIGNJS>, 'AppConfig': <function AppConfig>, 'Auth': <class 'gluon.tools.Auth'>, 'B': <class 'gluon.html.B'>, 'BEAUTIFY': <class 'gluon.html.BEAUTIFY'>, 'BODY': <class 'gluon.html.BODY'>, 'BR': <class 'gluon.html.BR'>, 'BUTTON': <class 'gluon.html.BUTTON'>, ...}"
p67
sS'ccode'
p68
S'<code object <module> at 0A98AC80, file "C:\\User...ite_two_alterado\\controllers/Veiculo.py", line 1>'
p69
ssS'lnum'
p70
I227
sS'lines'
p71
(dp72
I224
S'            ccode = code'
p73
sI225
S'        else:'
p74
sI226
S'            ccode = compile2(code, layer)'
p75
sI227
S'        exec ccode in environment'
p76
sI228
S'    except HTTP:'
p77
sI229
S'        raise'
p78
sI230
S'    except RestrictedError:'
p79
sI231
S'        # do not encapsulate (obfuscate) the original RestrictedError'
p80
sI222
S'    try:'
p81
sI223
S'        if isinstance(code, types.CodeType):'
p82
ssS'call'
p83
S'(code="__author__ = \'TecSUS-3\'\\n\\n#######################...e=title)\\n\\nresponse._vars=response._caller(venda)\\n", environment={\'A\': <class \'gluon.html.A\'>, \'ANY_OF\': <class \'gluon.validators.ANY_OF\'>, \'ASSIGNJS\': <function ASSIGNJS>, \'AppConfig\': <function AppConfig>, \'Auth\': <class \'gluon.tools.Auth\'>, \'B\': <class \'gluon.html.B\'>, \'BEAUTIFY\': <class \'gluon.html.BEAUTIFY\'>, \'BODY\': <class \'gluon.html.BODY\'>, \'BR\': <class \'gluon.html.BR\'>, \'BUTTON\': <class \'gluon.html.BUTTON\'>, ...}, layer=r\'C:\\Users\\TecSUS-3\\Desktop\\template_site\\web2py\\applications\\site_two_alterado\\controllers/Veiculo.py\')'
p84
sS'func'
p85
S'restricted'
p86
sa(dp87
g62
S'C:\\Users\\TecSUS-3\\Desktop\\template_site\\web2py\\applications\\site_two_alterado\\controllers\\Veiculo.py'
p88
sg64
(dp89
sg70
I397
sg71
(dp90
I386
S'        items = None'
p91
sI387
S"        title = 'Edit %s ' % args(i)"
p92
sI388
S'    else:'
p93
sI389
S'        form = crud.create(tb)'
p94
sI390
S'        rows = db().select(tb.ALL)'
p95
sI391
S"        items = SQLTABLE(rows,linkto='edit')"
p96
sI392
S"        title = 'Insert %s ' % args(i)"
p97
sI393
S''
sI394
S''
sI395
S'    return dict(form=form,items=items,title=title)'
p98
ssg83
S'()'
p99
sg85
S'<module>'
p100
sa(dp101
g62
S'C:\\Users\\TecSUS-3\\Desktop\\template_site\\web2py\\gluon\\globals.py'
p102
sg64
(dp103
S'self'
p104
S'undefined'
p105
sS'f'
S'<function venda>'
p106
ssg70
I393
sg71
(dp107
I388
S"        self.flash = ''            # used by the default view layout"
p108
sI389
S'        self.meta = Storage()      # used by web2py_ajax.html'
p109
sI390
S'        self.menu = []             # used by the default view layout'
p110
sI391
S'        self.files = []            # used by web2py_ajax.html'
p111
sI392
S'        self._vars = None'
p112
sI393
S'        self._caller = lambda f: f()'
p113
sI394
S'        self._view_environment = None'
p114
sI395
S'        self._custom_commit = None'
p115
sI396
S'        self._custom_rollback = None'
p116
sI397
S"        self.generic_patterns = ['*']"
p117
ssg83
S'(f=<function venda>)'
p118
sg85
S'<lambda>'
p119
sa(dp120
g62
S'C:\\Users\\TecSUS-3\\Desktop\\template_site\\web2py\\applications\\site_two_alterado\\controllers\\Veiculo.py'
p121
sg64
(dp122
S'db2.venda'
p123
S'<Table venda (id,modelo,nome_vendedor,desconto,forma_pagamento,data)>'
p124
sS'global fecha_venda'
p125
S'<function fecha_venda>'
p126
sS'venda_sqlform'
p127
S'<gluon.sqlhtml.SQLFORM object>'
p128
sS'global db2'
p129
S'<DAL uri="sqlite://storage.sqlite">'
p130
sS'db2.venda.id'
p131
S'<pydal.objects.Field object>'
p132
ssg70
I169
sg71
(dp133
I164
S'     #mas n\xc3\xa3o mostra a mensagem de falha ou aceita\xc3\xa7\xc3\xa3o sozinho'
p134
sI165
S'     venda_sqlform = SQLFORM(db2.venda)'
p135
sI166
S''
sI167
S'     if venda_sqlform.accepts(request,session):'
p136
sI168
S"        response.flash = 'Form accepted'"
p137
sI169
S'        fecha_venda(venda,db2.venda.id)'
p138
sI170
S'     elif venda_sqlform.errors:'
p139
sI171
S"        response.flash = 'Form has errors'"
p140
sI172
S'     else:'
p141
sI173
S"        response.flash = 'Please fill the form'"
p142
ssg83
S'()'
p143
sg85
S'venda'
p144
sa(dp145
g62
S'C:\\Users\\TecSUS-3\\Desktop\\template_site\\web2py\\applications\\site_two_alterado\\controllers\\Veiculo.py'
p146
sg64
(dp147
S'file'
p148
S"<open file 'vendavenda.id.txt', mode 'w'>"
p149
sS'file.write'
p150
S'<built-in method write of file object>'
p151
ssg70
I70
sg71
(dp152
I65
S''
sI66
S'def fecha_venda(form_venda,vendabanco):'
p153
sI67
S''
sI68
S"    file = open('venda'+str(vendabanco)+'.txt', 'w')"
p154
sI69
S"    file.write('venda realizada!')"
p155
sI70
S'    file.write(form_venda.id_venda)'
p156
sI71
S"    file.write('form_venda.nome_vendedor!')"
p157
sI72
S"    file.write('form_venda.desconto!')"
p158
sI73
S"    file.write('form_venda.forma_pagamento!')"
p159
sI74
S"    file.write('form_venda.data!')"
p160
ssg83
S'(form_venda=<function venda>, vendabanco=<pydal.objects.Field object>)'
p161
sg85
S'fecha_venda'
p162
sasS'pyver'
p163
S'Python 2.7.8: C:\\Python27\\python.exe (prefix: C:\\Python27)'
p164
sS'session'
p165
g57
(S's=\x02\x00\x00<div><table><tr><td style="font-weight:bold;vertical-align:top;">counter</td><td style="vertical-align:top;">:</td><td><div>6</div></td></tr><tr><td style="font-weight:bold;vertical-align:top;">flashed</td><td style="vertical-align:top;">:</td><td><div>False</div></td></tr><tr><td style="font-weight:bold;vertical-align:top;">last_orderby</td><td style="vertical-align:top;">:</td><td><div>None</div></td></tr><tr><td style="font-weight:bold;vertical-align:top;">last_query</td><td style="vertical-align:top;">:</td><td><div>db2.venda.id&gt;0</div></td></tr></table></div>'
tRp166
sS'etype'
p167
S"<type 'exceptions.AttributeError'>"
p168
sS'date'
p169
S'Wed Aug 19 12:33:38 2015'
p170
sS'response'
p171
g57
(S's\x1dS\x00\x00<div><table><tr><td style="font-weight:bold;vertical-align:top;">MeuMenu</td><td style="vertical-align:top;">:</td><td><div><table><tr><td><div><table><tr><td><div>Principal</div></td></tr><tr><td><div>False</div></td></tr><tr><td><div>http://127.0.0.1:8000/site_two_alterado/Veiculo/Inicio</div></td></tr></table></div></td></tr><tr><td><div><table><tr><td><div>Cadastro de Comprador</div></td></tr><tr><td><div>False</div></td></tr><tr><td><div>http://127.0.0.1:8000/site_two_alterado/Veiculo/comprador</div></td></tr></table></div></td></tr><tr><td><div><table><tr><td><div>Cadastro de Carro</div></td></tr><tr><td><div>False</div></td></tr><tr><td><div>http://127.0.0.1:8000/site_two_alterado/Veiculo/carro</div></td></tr></table></div></td></tr><tr><td><div><table><tr><td><div>Cadastro de Vendedor</div></td></tr><tr><td><div>False</div></td></tr><tr><td><div>http://127.0.0.1:8000/site_two_alterado/Veiculo/vendedor</div></td></tr></table></div></td></tr><tr><td><div><table><tr><td><div>Cadastro de Marca</div></td></tr><tr><td><div>False</div></td></tr><tr><td><div>http://127.0.0.1:8000/site_two_alterado/Veiculo/marca</div></td></tr></table></div></td></tr><tr><td><div><table><tr><td><div>Admin</div></td></tr><tr><td><div>False</div></td></tr><tr><td><div>http://127.0.0.1:8000/site_two_alterado/Veiculo/admin</div></td></tr></table></div></td></tr><tr><td><div><table><tr><td><div>Venda</div></td></tr><tr><td><div>False</div></td></tr><tr><td><div>http://127.0.0.1:8000/site_two_alterado/Veiculo/venda</div></td></tr></table></div></td></tr></table></div></td></tr><tr><td style="font-weight:bold;vertical-align:top;">body</td><td style="vertical-align:top;">:</td><td><div>&lt;cStringIO.StringO object at 0x09F83B80&gt;</div></td></tr><tr><td style="font-weight:bold;vertical-align:top;">cookies</td><td style="vertical-align:top;">:</td><td><div><table><tr><td style="font-weight:bold;vertical-align:top;">session_id_site_two_alterado</td><td style="vertical-align:top;">:</td><td><div>127.0.0.1-6c064ebe-a90b-4ce7-81d3-7115944b77e4<table><tr><td style="font-weight:bold;vertical-align:top;">comment</td><td style="vertical-align:top;">:</td><td><div></div></td></tr><tr><td style="font-weight:bold;vertical-align:top;">domain</td><td style="vertical-align:top;">:</td><td><div></div></td></tr><tr><td style="font-weight:bold;vertical-align:top;">expires</td><td style="vertical-align:top;">:</td><td><div></div></td></tr><tr><td style="font-weight:bold;vertical-align:top;">httponly</td><td style="vertical-align:top;">:</td><td><div></div></td></tr><tr><td style="font-weight:bold;vertical-align:top;">max-age</td><td style="vertical-align:top;">:</td><td><div></div></td></tr><tr><td style="font-weight:bold;vertical-align:top;">path</td><td style="vertical-align:top;">:</td><td><div>/</div></td></tr><tr><td style="font-weight:bold;vertical-align:top;">secure</td><td style="vertical-align:top;">:</td><td><div></div></td></tr><tr><td style="font-weight:bold;vertical-align:top;">version</td><td style="vertical-align:top;">:</td><td><div></div></td></tr></table></div></td></tr></table></div></td></tr><tr><td style="font-weight:bold;vertical-align:top;">delimiters</td><td style="vertical-align:top;">:</td><td><div><table><tr><td><div>{{</div></td></tr><tr><td><div>}}</div></td></tr></table></div></td></tr><tr><td style="font-weight:bold;vertical-align:top;">files</td><td style="vertical-align:top;">:</td><td><div><table></table></div></td></tr><tr><td style="font-weight:bold;vertical-align:top;">flash</td><td style="vertical-align:top;">:</td><td><div>Form accepted</div></td></tr><tr><td style="font-weight:bold;vertical-align:top;">form_label_separator</td><td style="vertical-align:top;">:</td><td><div></div></td></tr><tr><td style="font-weight:bold;vertical-align:top;">formstyle</td><td style="vertical-align:top;">:</td><td><div>bootstrap3_inline</div></td></tr><tr><td style="font-weight:bold;vertical-align:top;">generic_patterns</td><td style="vertical-align:top;">:</td><td><div><table><tr><td><div>*</div></td></tr></table></div></td></tr><tr><td style="font-weight:bold;vertical-align:top;">google_analytics_id</td><td style="vertical-align:top;">:</td><td><div>None</div></td></tr><tr><td style="font-weight:bold;vertical-align:top;">headers</td><td style="vertical-align:top;">:</td><td><div><table><tr><td style="font-weight:bold;vertical-align:top;">X-Powered-By</td><td style="vertical-align:top;">:</td><td><div>web2py</div></td></tr></table></div></td></tr><tr><td style="font-weight:bold;vertical-align:top;">logo</td><td style="vertical-align:top;">:</td><td><div><a class="navbar-brand" href="http://www.web2py.com/" id="web2py-logo"><b>web<span>2</span>py</b>&trade;&nbsp;</a></div></td></tr><tr><td style="font-weight:bold;vertical-align:top;">menu</td><td style="vertical-align:top;">:</td><td><div><table><tr><td><div><table><tr><td><div>Principal</div></td></tr><tr><td><div>False</div></td></tr><tr><td><div>/site_two_alterado/default/index</div></td></tr><tr><td><div><table></table></div></td></tr></table></div></td></tr><tr><td><div><table><tr><td><div>Meus sites</div></td></tr><tr><td><div>False</div></td></tr><tr><td><div>/admin/default/site</div></td></tr></table></div></td></tr><tr><td><div><table><tr><td><div>Esta aplica\xc3\xa7\xc3\xa3o</div></td></tr><tr><td><div>False</div></td></tr><tr><td><div>#</div></td></tr><tr><td><div><table><tr><td><div><table><tr><td><div>Design</div></td></tr><tr><td><div>False</div></td></tr><tr><td><div>/admin/default/design/site_two_alterado</div></td></tr></table></div></td></tr><tr><td><div><li class="divider"></li></div></td></tr><tr><td><div><table><tr><td><div>Controlador</div></td></tr><tr><td><div>False</div></td></tr><tr><td><div>/admin/default/edit/site_two_alterado/controllers/Veiculo.py</div></td></tr></table></div></td></tr><tr><td><div><table><tr><td><div>Visualiza\xc3\xa7\xc3\xa3o</div></td></tr><tr><td><div>False</div></td></tr><tr><td><div>/admin/default/edit/site_two_alterado/views/Veiculo/venda.html</div></td></tr></table></div></td></tr><tr><td><div><table><tr><td><div>Modelo BD</div></td></tr><tr><td><div>False</div></td></tr><tr><td><div>/admin/default/edit/site_two_alterado/models/db.py</div></td></tr></table></div></td></tr><tr><td><div><table><tr><td><div>Modelo de Menu</div></td></tr><tr><td><div>False</div></td></tr><tr><td><div>/admin/default/edit/site_two_alterado/models/menu.py</div></td></tr></table></div></td></tr><tr><td><div><table><tr><td><div>Config.ini</div></td></tr><tr><td><div>False</div></td></tr><tr><td><div>/admin/default/edit/site_two_alterado/private/appconfig.ini</div></td></tr></table></div></td></tr><tr><td><div><table><tr><td><div>Layout</div></td></tr><tr><td><div>False</div></td></tr><tr><td><div>/admin/default/edit/site_two_alterado/views/layout.html</div></td></tr></table></div></td></tr><tr><td><div><table><tr><td><div>Folha de estilo</div></td></tr><tr><td><div>False</div></td></tr><tr><td><div>/admin/default/edit/site_two_alterado/static/css/web2py-bootstrap3.css</div></td></tr></table></div></td></tr><tr><td><div><table><tr><td><div>banco de dados</div></td></tr><tr><td><div>False</div></td></tr><tr><td><div>/site_two_alterado/appadmin/index</div></td></tr></table></div></td></tr><tr><td><div><table><tr><td><div>Erros</div></td></tr><tr><td><div>False</div></td></tr><tr><td><div>/admin/default/errors/site_two_alterado</div></td></tr></table></div></td></tr><tr><td><div><table><tr><td><div>Sobre</div></td></tr><tr><td><div>False</div></td></tr><tr><td><div>/admin/default/about/site_two_alterado</div></td></tr></table></div></td></tr></table></div></td></tr></table></div></td></tr><tr><td><div><table><tr><td><div>web2py.com</div></td></tr><tr><td><div>False</div></td></tr><tr><td><div>#</div></td></tr><tr><td><div><table><tr><td><div><table><tr><td><div>Download</div></td></tr><tr><td><div>False</div></td></tr><tr><td><div>http://www.web2py.com/examples/default/download</div></td></tr></table></div></td></tr><tr><td><div><table><tr><td><div>Suporte</div></td></tr><tr><td><div>False</div></td></tr><tr><td><div>http://www.web2py.com/examples/default/support</div></td></tr></table></div></td></tr><tr><td><div><table><tr><td><div>Demo</div></td></tr><tr><td><div>False</div></td></tr><tr><td><div>http://web2py.com/demo_admin</div></td></tr></table></div></td></tr><tr><td><div><table><tr><td><div>Exemplos r\xc3\xa1pidos</div></td></tr><tr><td><div>False</div></td></tr><tr><td><div>http://web2py.com/examples/default/examples</div></td></tr></table></div></td></tr><tr><td><div><table><tr><td><div>Perguntas frequentes</div></td></tr><tr><td><div>False</div></td></tr><tr><td><div>http://web2py.com/AlterEgo</div></td></tr></table></div></td></tr><tr><td><div><table><tr><td><div>V\xc3\xaddeos</div></td></tr><tr><td><div>False</div></td></tr><tr><td><div>http://www.web2py.com/examples/default/videos/</div></td></tr></table></div></td></tr><tr><td><div><table><tr><td><div>Aplica\xc3\xa7\xc3\xb5es gratuitas</div></td></tr><tr><td><div>False</div></td></tr><tr><td><div>http://web2py.com/appliances</div></td></tr></table></div></td></tr><tr><td><div><table><tr><td><div>Plugins</div></td></tr><tr><td><div>False</div></td></tr><tr><td><div>http://web2py.com/plugins</div></td></tr></table></div></td></tr><tr><td><div><table><tr><td><div>Receitas</div></td></tr><tr><td><div>False</div></td></tr><tr><td><div>http://web2pyslices.com/</div></td></tr></table></div></td></tr></table></div></td></tr></table></div></td></tr><tr><td><div><table><tr><td><div>Documenta\xc3\xa7\xc3\xa3o</div></td></tr><tr><td><div>False</div></td></tr><tr><td><div>#</div></td></tr><tr><td><div><table><tr><td><div><table><tr><td><div>Online book</div></td></tr><tr><td><div>False</div></td></tr><tr><td><div>http://www.web2py.com/book</div></td></tr></table></div></td></tr><tr><td><div><li class="divider"></li></div></td></tr><tr><td><div><table><tr><td><div>Pref\xc3\xa1cio</div></td></tr><tr><td><div>False</div></td></tr><tr><td><div>http://www.web2py.com/book/default/chapter/00</div></td></tr></table></div></td></tr><tr><td><div><table><tr><td><div>Introdu\xc3\xa7\xc3\xa3o</div></td></tr><tr><td><div>False</div></td></tr><tr><td><div>http://www.web2py.com/book/default/chapter/01</div></td></tr></table></div></td></tr><tr><td><div><table><tr><td><div>Python</div></td></tr><tr><td><div>False</div></td></tr><tr><td><div>http://www.web2py.com/book/default/chapter/02</div></td></tr></table></div></td></tr><tr><td><div><table><tr><td><div>Vis\xc3\xa3o Geral</div></td></tr><tr><td><div>False</div></td></tr><tr><td><div>http://www.web2py.com/book/default/chapter/03</div></td></tr></table></div></td></tr><tr><td><div><table><tr><td><div>The Core</div></td></tr><tr><td><div>False</div></td></tr><tr><td><div>http://www.web2py.com/book/default/chapter/04</div></td></tr></table></div></td></tr><tr><td><div><table><tr><td><div>As views</div></td></tr><tr><td><div>False</div></td></tr><tr><td><div>http://www.web2py.com/book/default/chapter/05</div></td></tr></table></div></td></tr><tr><td><div><table><tr><td><div>banco de dados</div></td></tr><tr><td><div>False</div></td></tr><tr><td><div>http://www.web2py.com/book/default/chapter/06</div></td></tr></table></div></td></tr><tr><td><div><table><tr><td><div>Formul\xc3\xa1rios e Validadores</div></td></tr><tr><td><div>False</div></td></tr><tr><td><div>http://www.web2py.com/book/default/chapter/07</div></td></tr></table></div></td></tr><tr><td><div><table><tr><td><div>Email e SMS</div></td></tr><tr><td><div>False</div></td></tr><tr><td><div>http://www.web2py.com/book/default/chapter/08</div></td></tr></table></div></td></tr><tr><td><div><table><tr><td><div>Controle de Acesso</div></td></tr><tr><td><div>False</div></td></tr><tr><td><div>http://www.web2py.com/book/default/chapter/09</div></td></tr></table></div></td></tr><tr><td><div><table><tr><td><div>Servi\xc3\xa7o</div></td></tr><tr><td><div>False</div></td></tr><tr><td><div>http://www.web2py.com/book/default/chapter/10</div></td></tr></table></div></td></tr><tr><td><div><table><tr><td><div>Receitas de Ajax</div></td></tr><tr><td><div>False</div></td></tr><tr><td><div>http://www.web2py.com/book/default/chapter/11</div></td></tr></table></div></td></tr><tr><td><div><table><tr><td><div>Componentes e Plugins</div></td></tr><tr><td><div>False</div></td></tr><tr><td><div>http://www.web2py.com/book/default/chapter/12</div></td></tr></table></div></td></tr><tr><td><div><table><tr><td><div>Receitas de deploy</div></td></tr><tr><td><div>False</div></td></tr><tr><td><div>http://www.web2py.com/book/default/chapter/13</div></td></tr></table></div></td></tr><tr><td><div><table><tr><td><div>Outras Receitas</div></td></tr><tr><td><div>False</div></td></tr><tr><td><div>http://www.web2py.com/book/default/chapter/14</div></td></tr></table></div></td></tr><tr><td><div><table><tr><td><div>Helping web2py</div></td></tr><tr><td><div>False</div></td></tr><tr><td><div>http://www.web2py.com/book/default/chapter/15</div></td></tr></table></div></td></tr><tr><td><div><table><tr><td><div>Buy web2py\'s book</div></td></tr><tr><td><div>False</div></td></tr><tr><td><div>http://stores.lulu.com/web2py</div></td></tr></table></div></td></tr></table></div></td></tr></table></div></td></tr><tr><td><div><table><tr><td><div>Comunidade</div></td></tr><tr><td><div>False</div></td></tr><tr><td><div>None</div></td></tr><tr><td><div><table><tr><td><div><table><tr><td><div>Grupos</div></td></tr><tr><td><div>False</div></td></tr><tr><td><div>http://www.web2py.com/examples/default/usergroups</div></td></tr></table></div></td></tr><tr><td><div><table><tr><td><div>Twitter</div></td></tr><tr><td><div>False</div></td></tr><tr><td><div>http://twitter.com/web2py</div></td></tr></table></div></td></tr><tr><td><div><table><tr><td><div>Chat ao vivo</div></td></tr><tr><td><div>False</div></td></tr><tr><td><div>http://webchat.freenode.net/?channels=web2py</div></td></tr></table></div></td></tr></table></div></td></tr></table></div></td></tr><tr><td><div><table><tr><td><div>Minha Pagina Teste</div></td></tr><tr><td><div>False</div></td></tr><tr><td><div>None</div></td></tr><tr><td><div><table><tr><td><div><table><tr><td><div>Forms - accessories grid</div></td></tr><tr><td><div>False</div></td></tr><tr><td><div>http://127.0.0.1:8000/site_two_alterado/forms/accessories_grid_selectable.html</div></td></tr></table></div></td></tr><tr><td><div><table><tr><td><div>Forms - accessories crud</div></td></tr><tr><td><div>False</div></td></tr><tr><td><div>http://127.0.0.1:8000/site_two_alterado/forms/accessory_crud</div></td></tr></table></div></td></tr><tr><td><div><table><tr><td><div>Forms - car model</div></td></tr><tr><td><div>False</div></td></tr><tr><td><div>http://127.0.0.1:8000/site_two_alterado/forms/car_model_form</div></td></tr></table></div></td></tr><tr><td><div><table><tr><td><div>Forms - sale</div></td></tr><tr><td><div>False</div></td></tr><tr><td><div>http://127.0.0.1:8000/site_two_alterado/forms/sale_sqlform_factory</div></td></tr></table></div></td></tr><tr><td><div><table><tr><td><div>Forms - vendor</div></td></tr><tr><td><div>False</div></td></tr><tr><td><div>http://127.0.0.1:8000/site_two_alterado/forms/vendor_sqlform</div></td></tr></table></div></td></tr><tr><td><div><li class="divider"></li></div></td></tr><tr><td><div><table><tr><td><div>Lista grid</div></td></tr><tr><td><div>False</div></td></tr><tr><td><div>http://127.0.0.1:8000/site_two_alterado/grids/database_lists_grid</div></td></tr></table></div></td></tr><tr><td><div><table><tr><td><div>Lista smartgrid</div></td></tr><tr><td><div>False</div></td></tr><tr><td><div>http://127.0.0.1:8000/site_two_alterado/grids/database_lists_smartgrid</div></td></tr></table></div></td></tr><tr><td><div><li class="divider"></li></div></td></tr><tr><td><div><table><tr><td><div>Nova Manual</div></td></tr><tr><td><div>False</div></td></tr><tr><td><div>http://127.0.0.1:8000/site_two_alterado/NovaManual/NovaManual</div></td></tr></table></div></td></tr></table></div></td></tr></table></div></td></tr><tr><td><div><table><tr><td><div>Apostila</div></td></tr><tr><td><div>False</div></td></tr><tr><td><div>None</div></td></tr><tr><td><div><table><tr><td><div><table><tr><td><div>Gerais</div></td></tr><tr><td><div>False</div></td></tr><tr><td><div>http://127.0.0.1:8000/site_two_alterado/Apostila/Apostila</div></td></tr></table></div></td></tr><tr><td><div><li class="divider"></li></div></td></tr><tr><td><div><table><tr><td><div>Banco de Dados</div></td></tr><tr><td><div>False</div></td></tr><tr><td><div>http://127.0.0.1:8000/site_two_alterado/Apostila/BD_Apostila</div></td></tr></table></div></td></tr></table></div></td></tr></table></div></td></tr><tr><td><div><table><tr><td><div>Loja de carros</div></td></tr><tr><td><div>False</div></td></tr><tr><td><div>None</div></td></tr><tr><td><div><table><tr><td><div><table><tr><td><div>Inicial</div></td></tr><tr><td><div>False</div></td></tr><tr><td><div>http://127.0.0.1:8000/site_two_alterado/Veiculo/Inicio</div></td></tr></table></div></td></tr></table></div></td></tr></table></div></td></tr></table></div></td></tr><tr><td style="font-weight:bold;vertical-align:top;">meta</td><td style="vertical-align:top;">:</td><td><div><table><tr><td style="font-weight:bold;vertical-align:top;">author</td><td style="vertical-align:top;">:</td><td><div>Your Name &lt;you@example.com&gt;</div></td></tr><tr><td style="font-weight:bold;vertical-align:top;">description</td><td style="vertical-align:top;">:</td><td><div>a cool new app</div></td></tr><tr><td style="font-weight:bold;vertical-align:top;">generator</td><td style="vertical-align:top;">:</td><td><div>Web2py Web Framework</div></td></tr><tr><td style="font-weight:bold;vertical-align:top;">keywords</td><td style="vertical-align:top;">:</td><td><div>web2py, python, framework</div></td></tr></table></div></td></tr><tr><td style="font-weight:bold;vertical-align:top;">models_to_run</td><td style="vertical-align:top;">:</td><td><div><table><tr><td><div>^\\w+\\.py$</div></td></tr><tr><td><div>^Veiculo/\\w+\\.py$</div></td></tr><tr><td><div>^Veiculo/venda/\\w+\\.py$</div></td></tr></table></div></td></tr><tr><td style="font-weight:bold;vertical-align:top;">postprocessing</td><td style="vertical-align:top;">:</td><td><div><table></table></div></td></tr><tr><td style="font-weight:bold;vertical-align:top;">session_client</td><td style="vertical-align:top;">:</td><td><div>127.0.0.1</div></td></tr><tr><td style="font-weight:bold;vertical-align:top;">session_cookie_compression_level</td><td style="vertical-align:top;">:</td><td><div>None</div></td></tr><tr><td style="font-weight:bold;vertical-align:top;">session_cookie_expires</td><td style="vertical-align:top;">:</td><td><div>None</div></td></tr><tr><td style="font-weight:bold;vertical-align:top;">session_cookie_key</td><td style="vertical-align:top;">:</td><td><div>None</div></td></tr><tr><td style="font-weight:bold;vertical-align:top;">session_data_name</td><td style="vertical-align:top;">:</td><td><div>session_data_site_two_alterado</div></td></tr><tr><td style="font-weight:bold;vertical-align:top;">session_file</td><td style="vertical-align:top;">:</td><td><div>&lt;open file &#x27;C:\\\\Users\\\\TecSUS-3\\\\Desktop\\\\template_site\\\\web2py\\\\applications\\\\site_two_alterado\\\\sessions\\\\1f6\\\\1bb\\\\127.0.0.1-6c064ebe-a90b-4ce7-81d3-7115944b77e4&#x27;, mode &#x27;rb+&#x27; at 0x04700808&gt;</div></td></tr><tr><td style="font-weight:bold;vertical-align:top;">session_filename</td><td style="vertical-align:top;">:</td><td><div>C:\\Users\\TecSUS-3\\Desktop\\template_site\\web2py\\applications\\site_two_alterado\\sessions\\127.0.0.1-6c064ebe-a90b-4ce7-81d3-7115944b77e4</div></td></tr><tr><td style="font-weight:bold;vertical-align:top;">session_hash</td><td style="vertical-align:top;">:</td><td><div>ce3b9fdbeec3f24fc23a807636e85c9e</div></td></tr><tr><td style="font-weight:bold;vertical-align:top;">session_id</td><td style="vertical-align:top;">:</td><td><div>127.0.0.1-6c064ebe-a90b-4ce7-81d3-7115944b77e4</div></td></tr><tr><td style="font-weight:bold;vertical-align:top;">session_id_name</td><td style="vertical-align:top;">:</td><td><div>session_id_site_two_alterado</div></td></tr><tr><td style="font-weight:bold;vertical-align:top;">session_locked</td><td style="vertical-align:top;">:</td><td><div>True</div></td></tr><tr><td style="font-weight:bold;vertical-align:top;">session_masterapp</td><td style="vertical-align:top;">:</td><td><div>site_two_alterado</div></td></tr><tr><td style="font-weight:bold;vertical-align:top;">session_new</td><td style="vertical-align:top;">:</td><td><div>False</div></td></tr><tr><td style="font-weight:bold;vertical-align:top;">session_storage_type</td><td style="vertical-align:top;">:</td><td><div>file</div></td></tr><tr><td style="font-weight:bold;vertical-align:top;">status</td><td style="vertical-align:top;">:</td><td><div>200</div></td></tr><tr><td style="font-weight:bold;vertical-align:top;">subtitle</td><td style="vertical-align:top;">:</td><td><div></div></td></tr><tr><td style="font-weight:bold;vertical-align:top;">title</td><td style="vertical-align:top;">:</td><td><div>Site Two Alterado</div></td></tr><tr><td style="font-weight:bold;vertical-align:top;">view</td><td style="vertical-align:top;">:</td><td><div>Veiculo/venda.html</div></td></tr></table></div>'
tRp172
sS'locals'
p173
(dp174
S'vendabanco'
p175
S'<pydal.objects.Field object>'
p176
sg62
S"<open file 'vendavenda.id.txt', mode 'w'>"
p177
sS'form_venda'
p178
S'<function venda>'
p179
sssS'traceback'
p180
S'Traceback (most recent call last):\n  File "C:\\Users\\TecSUS-3\\Desktop\\template_site\\web2py\\gluon\\restricted.py", line 227, in restricted\n    exec ccode in environment\n  File "C:\\Users\\TecSUS-3\\Desktop\\template_site\\web2py\\applications\\site_two_alterado\\controllers/Veiculo.py", line 397, in <module>\n  File "C:\\Users\\TecSUS-3\\Desktop\\template_site\\web2py\\gluon\\globals.py", line 393, in <lambda>\n    self._caller = lambda f: f()\n  File "C:\\Users\\TecSUS-3\\Desktop\\template_site\\web2py\\applications\\site_two_alterado\\controllers/Veiculo.py", line 169, in venda\n    fecha_venda(venda,db2.venda.id)\n  File "C:\\Users\\TecSUS-3\\Desktop\\template_site\\web2py\\applications\\site_two_alterado\\controllers/Veiculo.py", line 70, in fecha_venda\n    file.write(form_venda.id_venda)\nAttributeError: \'function\' object has no attribute \'id_venda\'\n'
p181
s.