(dp1
S'output'
p2
S"<type 'exceptions.ImportError'> cannot import name Auth"
p3
sS'layer'
p4
S'C:\\Users\\TecSUS-3\\Desktop\\template_site\\web2py\\applications\\site_two_alterado\\controllers/Veiculo.py'
p5
sS'code'
p6
S"__author__ = 'TecSUS-3'\n\n####################################### IMPORTS #######################################\nfrom gluon import A, INPUT, IS_NOT_EMPTY, SQLFORM, URL, TR, TABLE, FORM, IS_LIST_OF, IS_IN_DB, redirect, Auth\nfrom gluon import Field\n\n####################################### GLOBALS #######################################\nglobal request, session, db, response\n\ndef Inicio():\n\n    if not session.flashed:\n        response.flash = T('Bem vindo a loja de carros!')\n        session.flashed=True\n\n\n    response.write('Venha conhecer nossos carros!!!')\n    agora = request.now\n\n    #lista todos os carros na tela\n    car_smartgrid  = SQLFORM.smartgrid(db2.carro)\n\n    #lista todos os carros na tela\n    #car_grid  = SQLFORM.grid(db2.carro)\n\n    auth = Auth(globals(),db2)\n    auth.define_tables(username=True)\n\n    return locals()\n\n\ndef comprador():\n\n    #lista todos os carros na tela\n    comprador_grid  = SQLFORM.smartgrid(db2.comprador)\n\n    #CRUD\n    #aqui ele formata tudo sozinho e ainda envia para o banco sozinho tamb\xc3\xa9m\n    #mostra a mensagem de falha sozinho\n    from gluon.tools import Crud\n    crud = Crud(db2)\n    comprador_crud = crud.create(db2.comprador)\n\n    ####SQL####################################################\n    #######################################################\n    #aqui ele formata tudo sozinho e ainda envia para o banco sozinho tamb\xc3\xa9m\n    #mas n\xc3\xa3o mostra a mensagem de falha ou aceita\xc3\xa7\xc3\xa3o sozinho\n    comprador_sqlform = SQLFORM(db2.comprador)\n\n    if comprador_sqlform.accepts(request,session):\n        response.flash = 'Form accepted'\n    elif comprador_sqlform.errors:\n        response.flash = 'Form has errors'\n    else:\n        response.flash = 'Please fill the form'\n\n    return locals()\n\ndef marca():\n\n    #lista todos os carros na tela\n    marca_grid  = SQLFORM.smartgrid(db2.marca)\n\n    #CRUD\n    #aqui ele formata tudo sozinho e ainda envia para o banco sozinho tamb\xc3\xa9m\n    #mostra a mensagem de falha sozinho\n    from gluon.tools import Crud\n    crud = Crud(db2)\n    marca_crud = crud.create(db2.marca)\n\n    ####SQL####################################################\n    #######################################################\n    #aqui ele formata tudo sozinho e ainda envia para o banco sozinho tamb\xc3\xa9m\n    #mas n\xc3\xa3o mostra a mensagem de falha ou aceita\xc3\xa7\xc3\xa3o sozinho\n    marca_sqlform = SQLFORM(db2.marca)\n\n    if marca_sqlform.accepts(request,session):\n        response.flash = 'Form accepted'\n    elif marca_sqlform.errors:\n        response.flash = 'Form has errors'\n    else:\n        response.flash = 'Please fill the form'\n\n    return locals()\n\ndef carro():\n\n    #lista todos os carros na tela\n    car_grid  = SQLFORM.smartgrid(db2.carro)\n\n    #CRUD\n    #aqui ele formata tudo sozinho e ainda envia para o banco sozinho tamb\xc3\xa9m\n    #mostra a mensagem de falha sozinho\n    from gluon.tools import Crud\n    crud = Crud(db2)\n    carro_crud = crud.create(db2.carro)\n\n    #######################################################\n    #aqui ele formata tudo sozinho e ainda envia para o banco sozinho tamb\xc3\xa9m\n    #mas n\xc3\xa3o mostra a mensagem de falha ou aceita\xc3\xa7\xc3\xa3o sozinho\n    carro_sqlform = SQLFORM(db2.carro)\n\n    if carro_sqlform.accepts(request,session):\n        response.flash = 'Form accepted'\n    elif carro_sqlform.errors:\n        response.flash = 'Form has errors'\n    else:\n        response.flash = 'Please fill the form'\n\n    #######################################################\n     # Must repeat the field validators declared in the db.py\n    marca_input=INPUT(_name='marca_input', requires=IS_IN_DB(db2, 'marca.id','marca.nome',error_message=e_m['not_in_db']))\n    modelo_input=INPUT(_name='modelo_input')\n    y1 = request.now.year-20\n    y2 = request.now.year+2\n    ano_input=INPUT(_name='ano_input', requires=IS_INT_IN_RANGE(y1,y2,error_message=e_m['not_in_range']))\n    cor_input=INPUT(_name='cor_input', requires=IS_IN_SET(cores))\n    valor_input=INPUT(_name='valor_input')\n    itens_input=INPUT(_name='itens_input',requires=IS_IN_SET(('Alarme','Trava','Som', 'Ar'),multiple=True,error_message=e_m['not_in_set']))\n    estado_input=INPUT(_name='estado_input',requires=IS_IN_SET(estados,error_message=e_m['not_in_set']))\n    desc_input=INPUT(_name='desc_input')\n    foto_input=INPUT(_name='foto_input',requires=IS_IMAGE(IS_IMAGE(extensions=('jpeg', 'png', '.gif'),error_message=e_m['image'])))\n\n    #neste ponto define a posi\xc3\xa7\xc3\xa3o dos dados dentro de uma tabela\n    # Manual creation of the html table\n    table_rows = []\n    table_rows.append(TR('Marca:', marca_input))\n    table_rows.append(TR('Modelo:', modelo_input))\n    table_rows.append(TR('Ano:', ano_input))\n    table_rows.append(TR('Cor:', cor_input))\n    table_rows.append(TR('Valor:', valor_input))\n    table_rows.append(TR('Itens:', itens_input))\n    table_rows.append(TR('Estado:', estado_input))\n    table_rows.append(TR('Descri\xc3\xa7\xc3\xa3o:', desc_input))\n    table_rows.append(TR('Foto:', foto_input))\n    # Fields starting with _ are passed to the html as attribute elements\n    table_rows.append(TR(TD(INPUT(_type='submit'), _colspan='2', _align='center')))\n    table = TABLE(table_rows)\n\n    form = FORM(table)\n\n    #momento em que realmente o dado \xc3\xa9 colocado dentro do banco de dados\n    # Processing the form submition\n    if form.accepts(request,session):\n        # Retriving the form fields\n        form_marca_input = form.vars.marca\n        form_modelo_input = form.vars.modelo\n        form_ano_input = form.vars.ano\n        form_cor_input = form.vars.cor\n        form_valor_input = form.vars.valor\n        form_itens_input = form.vars.itens\n        form_estado_input = form.vars.estado\n        form_desc_input = form.vars.desc\n        form_foto_input = form.vars.foto\n        # Inserting in the database\n        db.car_model.insert(marca=form_marca_input, modelo = form_modelo_input,ano = form_ano_input, cor = form_cor_input, valor = form_valor_input, itens = form_itens_input, estado = form_estado_input, desc = form_desc_input, foto = form_foto_input)\n        # Tell the user about the insertion\n        response.flash = 'New car: ' + form_modelo_input\n    elif form.errors:\n        response.flash = 'Form has errors'\n    else:\n        response.flash = 'Please fill the form'\n\n    #######################################################\n\n    return locals()\n\ndef vendedor():\n     #lista todos os carros na tela\n    vendedor_grid  = SQLFORM.smartgrid(db2.vendedor)\n\n    #CRUD\n    #aqui ele formata tudo sozinho e ainda envia para o banco sozinho tamb\xc3\xa9m\n    #mostra a mensagem de falha sozinho\n    from gluon.tools import Crud\n    crud = Crud(db2)\n    vendedor_crud = crud.create(db2.vendedor)\n\n    ####SQL####################################################\n    #######################################################\n    #aqui ele formata tudo sozinho e ainda envia para o banco sozinho tamb\xc3\xa9m\n    #mas n\xc3\xa3o mostra a mensagem de falha ou aceita\xc3\xa7\xc3\xa3o sozinho\n    vendedor_sqlform = SQLFORM(db2.vendedor)\n\n    if vendedor_sqlform.accepts(request,session):\n        response.flash = 'Form accepted'\n    elif vendedor_sqlform.errors:\n        response.flash = 'Form has errors'\n    else:\n        response.flash = 'Please fill the form'\n\n    return locals()\n\n\n\n\nresponse._vars=response._caller(Inicio)\n"
p7
sS'snapshot'
p8
(dp9
S'exception'
p10
(dp11
S'__hash__'
p12
S"<method-wrapper '__hash__' of exceptions.ImportError object>"
p13
sS'__setattr__'
p14
S"<method-wrapper '__setattr__' of exceptions.ImportError object>"
p15
sS'__reduce_ex__'
p16
S'<built-in method __reduce_ex__ of exceptions.ImportError object>'
p17
sS'__getslice__'
p18
S"<method-wrapper '__getslice__' of exceptions.ImportError object>"
p19
sS'__getitem__'
p20
S"<method-wrapper '__getitem__' of exceptions.ImportError object>"
p21
sS'__setstate__'
p22
S'<built-in method __setstate__ of exceptions.ImportError object>'
p23
sS'__reduce__'
p24
S'<built-in method __reduce__ of exceptions.ImportError object>'
p25
sS'__str__'
p26
S"<method-wrapper '__str__' of exceptions.ImportError object>"
p27
sS'__format__'
p28
S'<built-in method __format__ of exceptions.ImportError object>'
p29
sS'__getattribute__'
p30
S"<method-wrapper '__getattribute__' of exceptions.ImportError object>"
p31
sS'__class__'
p32
S"<type 'exceptions.ImportError'>"
p33
sS'__unicode__'
p34
S'<built-in method __unicode__ of exceptions.ImportError object>'
p35
sS'__delattr__'
p36
S"<method-wrapper '__delattr__' of exceptions.ImportError object>"
p37
sS'__subclasshook__'
p38
S'<built-in method __subclasshook__ of type object>'
p39
sS'__repr__'
p40
S"<method-wrapper '__repr__' of exceptions.ImportError object>"
p41
sS'args'
p42
S"('cannot import name Auth',)"
p43
sS'__dict__'
p44
S'{}'
p45
sS'__sizeof__'
p46
S'<built-in method __sizeof__ of exceptions.ImportError object>'
p47
sS'__doc__'
p48
S'"Import can\'t find module, or can\'t find name in module."'
p49
sS'__init__'
p50
S"<method-wrapper '__init__' of exceptions.ImportError object>"
p51
sS'__new__'
p52
S'<built-in method __new__ of type object>'
p53
ssS'evalue'
p54
S'cannot import name Auth'
p55
sS'request'
p56
cgluon.html
XML_unpickle
p57
(S's@f\x00\x00<div><table><tr><td style="font-weight:bold;vertical-align:top;">ajax</td><td style="vertical-align:top;">:</td><td><div>False</div></td></tr><tr><td style="font-weight:bold;vertical-align:top;">application</td><td style="vertical-align:top;">:</td><td><div>site_two_alterado</div></td></tr><tr><td style="font-weight:bold;vertical-align:top;">args</td><td style="vertical-align:top;">:</td><td><div><table></table></div></td></tr><tr><td style="font-weight:bold;vertical-align:top;">cid</td><td style="vertical-align:top;">:</td><td><div>None</div></td></tr><tr><td style="font-weight:bold;vertical-align:top;">client</td><td style="vertical-align:top;">:</td><td><div>127.0.0.1</div></td></tr><tr><td style="font-weight:bold;vertical-align:top;">controller</td><td style="vertical-align:top;">:</td><td><div>Veiculo</div></td></tr><tr><td style="font-weight:bold;vertical-align:top;">cookies</td><td style="vertical-align:top;">:</td><td><div><table><tr><td style="font-weight:bold;vertical-align:top;">session_id_admin</td><td style="vertical-align:top;">:</td><td><div>127.0.0.1-5c2f2565-9468-4e2d-9c19-71bd416a5dca<table><tr><td style="font-weight:bold;vertical-align:top;">comment</td><td style="vertical-align:top;">:</td><td><div></div></td></tr><tr><td style="font-weight:bold;vertical-align:top;">domain</td><td style="vertical-align:top;">:</td><td><div></div></td></tr><tr><td style="font-weight:bold;vertical-align:top;">expires</td><td style="vertical-align:top;">:</td><td><div></div></td></tr><tr><td style="font-weight:bold;vertical-align:top;">httponly</td><td style="vertical-align:top;">:</td><td><div></div></td></tr><tr><td style="font-weight:bold;vertical-align:top;">max-age</td><td style="vertical-align:top;">:</td><td><div></div></td></tr><tr><td style="font-weight:bold;vertical-align:top;">path</td><td style="vertical-align:top;">:</td><td><div></div></td></tr><tr><td style="font-weight:bold;vertical-align:top;">secure</td><td style="vertical-align:top;">:</td><td><div></div></td></tr><tr><td style="font-weight:bold;vertical-align:top;">version</td><td style="vertical-align:top;">:</td><td><div></div></td></tr></table></div></td></tr><tr><td style="font-weight:bold;vertical-align:top;">session_id_site_completo</td><td style="vertical-align:top;">:</td><td><div>127.0.0.1-e5c3a53f-6352-4e3c-af83-41fe890de782<table><tr><td style="font-weight:bold;vertical-align:top;">comment</td><td style="vertical-align:top;">:</td><td><div></div></td></tr><tr><td style="font-weight:bold;vertical-align:top;">domain</td><td style="vertical-align:top;">:</td><td><div></div></td></tr><tr><td style="font-weight:bold;vertical-align:top;">expires</td><td style="vertical-align:top;">:</td><td><div></div></td></tr><tr><td style="font-weight:bold;vertical-align:top;">httponly</td><td style="vertical-align:top;">:</td><td><div></div></td></tr><tr><td style="font-weight:bold;vertical-align:top;">max-age</td><td style="vertical-align:top;">:</td><td><div></div></td></tr><tr><td style="font-weight:bold;vertical-align:top;">path</td><td style="vertical-align:top;">:</td><td><div></div></td></tr><tr><td style="font-weight:bold;vertical-align:top;">secure</td><td style="vertical-align:top;">:</td><td><div></div></td></tr><tr><td style="font-weight:bold;vertical-align:top;">version</td><td style="vertical-align:top;">:</td><td><div></div></td></tr></table></div></td></tr><tr><td style="font-weight:bold;vertical-align:top;">session_id_site_two_alterado</td><td style="vertical-align:top;">:</td><td><div>127.0.0.1-7d9b9b24-179b-49c9-b597-622f8f1bcaae<table><tr><td style="font-weight:bold;vertical-align:top;">comment</td><td style="vertical-align:top;">:</td><td><div></div></td></tr><tr><td style="font-weight:bold;vertical-align:top;">domain</td><td style="vertical-align:top;">:</td><td><div></div></td></tr><tr><td style="font-weight:bold;vertical-align:top;">expires</td><td style="vertical-align:top;">:</td><td><div></div></td></tr><tr><td style="font-weight:bold;vertical-align:top;">httponly</td><td style="vertical-align:top;">:</td><td><div></div></td></tr><tr><td style="font-weight:bold;vertical-align:top;">max-age</td><td style="vertical-align:top;">:</td><td><div></div></td></tr><tr><td style="font-weight:bold;vertical-align:top;">path</td><td style="vertical-align:top;">:</td><td><div></div></td></tr><tr><td style="font-weight:bold;vertical-align:top;">secure</td><td style="vertical-align:top;">:</td><td><div></div></td></tr><tr><td style="font-weight:bold;vertical-align:top;">version</td><td style="vertical-align:top;">:</td><td><div></div></td></tr></table></div></td></tr><tr><td style="font-weight:bold;vertical-align:top;">session_id_welcome</td><td style="vertical-align:top;">:</td><td><div>127.0.0.1-e8b19530-ca53-4709-a8f7-cf1e2801b86c<table><tr><td style="font-weight:bold;vertical-align:top;">comment</td><td style="vertical-align:top;">:</td><td><div></div></td></tr><tr><td style="font-weight:bold;vertical-align:top;">domain</td><td style="vertical-align:top;">:</td><td><div></div></td></tr><tr><td style="font-weight:bold;vertical-align:top;">expires</td><td style="vertical-align:top;">:</td><td><div></div></td></tr><tr><td style="font-weight:bold;vertical-align:top;">httponly</td><td style="vertical-align:top;">:</td><td><div></div></td></tr><tr><td style="font-weight:bold;vertical-align:top;">max-age</td><td style="vertical-align:top;">:</td><td><div></div></td></tr><tr><td style="font-weight:bold;vertical-align:top;">path</td><td style="vertical-align:top;">:</td><td><div></div></td></tr><tr><td style="font-weight:bold;vertical-align:top;">secure</td><td style="vertical-align:top;">:</td><td><div></div></td></tr><tr><td style="font-weight:bold;vertical-align:top;">version</td><td style="vertical-align:top;">:</td><td><div></div></td></tr></table></div></td></tr></table></div></td></tr><tr><td style="font-weight:bold;vertical-align:top;">env</td><td style="vertical-align:top;">:</td><td><div><table><tr><td style="font-weight:bold;vertical-align:top;">HTTP_ACCEPT</td><td style="vertical-align:top;">:</td><td><div>text/html,application/xhtml+xml,application/xml;q=0.9,image/webp,*/*;q=0.8</div></td></tr><tr><td style="font-weight:bold;vertical-align:top;">HTTP_ACCEPT_ENCODING</td><td style="vertical-align:top;">:</td><td><div>gzip, deflate, sdch</div></td></tr><tr><td style="font-weight:bold;vertical-align:top;">HTTP_ACCEPT_LANGUAGE</td><td style="vertical-align:top;">:</td><td><div>pt-BR,pt;q=0.8,en-US;q=0.6,en;q=0.4</div></td></tr><tr><td style="font-weight:bold;vertical-align:top;">HTTP_CACHE_CONTROL</td><td style="vertical-align:top;">:</td><td><div>max-age=0</div></td></tr><tr><td style="font-weight:bold;vertical-align:top;">HTTP_CONNECTION</td><td style="vertical-align:top;">:</td><td><div>keep-alive</div></td></tr><tr><td style="font-weight:bold;vertical-align:top;">HTTP_COOKIE</td><td style="vertical-align:top;">:</td><td><div>session_id_welcome=127.0.0.1-e8b19530-ca53-4709-a8f7-cf1e2801b86c; session_id_site_completo=127.0.0.1-e5c3a53f-6352-4e3c-af83-41fe890de782; session_id_site_two_alterado=127.0.0.1-7d9b9b24-179b-49c9-b597-622f8f1bcaae; session_id_admin=127.0.0.1-5c2f2565-9468-4e2d-9c19-71bd416a5dca</div></td></tr><tr><td style="font-weight:bold;vertical-align:top;">HTTP_HOST</td><td style="vertical-align:top;">:</td><td><div>127.0.0.1:8000</div></td></tr><tr><td style="font-weight:bold;vertical-align:top;">HTTP_UPGRADE_INSECURE_REQUESTS</td><td style="vertical-align:top;">:</td><td><div>1</div></td></tr><tr><td style="font-weight:bold;vertical-align:top;">HTTP_USER_AGENT</td><td style="vertical-align:top;">:</td><td><div>Mozilla/5.0 (Windows NT 6.1; WOW64) AppleWebKit/537.36 (KHTML, like Gecko) Chrome/44.0.2403.125 Safari/537.36</div></td></tr><tr><td style="font-weight:bold;vertical-align:top;">PATH_INFO</td><td style="vertical-align:top;">:</td><td><div>/site_two_alterado/Veiculo/Inicio</div></td></tr><tr><td style="font-weight:bold;vertical-align:top;">QUERY_STRING</td><td style="vertical-align:top;">:</td><td><div></div></td></tr><tr><td style="font-weight:bold;vertical-align:top;">REMOTE_ADDR</td><td style="vertical-align:top;">:</td><td><div>127.0.0.1</div></td></tr><tr><td style="font-weight:bold;vertical-align:top;">REMOTE_PORT</td><td style="vertical-align:top;">:</td><td><div>49480</div></td></tr><tr><td style="font-weight:bold;vertical-align:top;">REQUEST_METHOD</td><td style="vertical-align:top;">:</td><td><div>GET</div></td></tr><tr><td style="font-weight:bold;vertical-align:top;">SCRIPT_NAME</td><td style="vertical-align:top;">:</td><td><div></div></td></tr><tr><td style="font-weight:bold;vertical-align:top;">SERVER_NAME</td><td style="vertical-align:top;">:</td><td><div>TecSUS-3-PC</div></td></tr><tr><td style="font-weight:bold;vertical-align:top;">SERVER_PORT</td><td style="vertical-align:top;">:</td><td><div>8000</div></td></tr><tr><td style="font-weight:bold;vertical-align:top;">SERVER_PROTOCOL</td><td style="vertical-align:top;">:</td><td><div>HTTP/1.1</div></td></tr><tr><td style="font-weight:bold;vertical-align:top;">SERVER_SOFTWARE</td><td style="vertical-align:top;">:</td><td><div>Rocket 1.2.6</div></td></tr><tr><td style="font-weight:bold;vertical-align:top;">app_folders</td><td style="vertical-align:top;">:</td><td><div>set([&#x27;C:\\\\Users\\\\TecSUS-3\\\\Desktop\\\\template_site\\\\web2py\\\\applications\\\\admin\\\\&#x27;, &#x27;C:\\\\Users\\\\TecSUS-3\\\\Desktop\\\\template_site\\\\web2py\\\\applications\\\\site_two_alterado\\\\&#x27;, &#x27;C:\\\\Users\\\\TecSUS-3\\\\Desktop\\\\template_site\\\\web2py\\\\applications\\\\welcome\\\\&#x27;, &#x27;C:\\\\Users\\\\TecSUS-3\\\\Desktop\\\\template_site\\\\web2py\\\\applications\\\\site_completo\\\\&#x27;])</div></td></tr><tr><td style="font-weight:bold;vertical-align:top;">applications_parent</td><td style="vertical-align:top;">:</td><td><div>C:\\Users\\TecSUS-3\\Desktop\\template_site\\web2py</div></td></tr><tr><td style="font-weight:bold;vertical-align:top;">cmd_args</td><td style="vertical-align:top;">:</td><td><div><table></table></div></td></tr><tr><td style="font-weight:bold;vertical-align:top;">cmd_options</td><td style="vertical-align:top;">:</td><td><div>&lt;Values at 0x3a97cb0: {&#x27;verbose&#x27;: False, &#x27;ip&#x27;: &#x27;127.0.0.1&#x27;, &#x27;debuglevel&#x27;: 30, &#x27;with_scheduler&#x27;: False, &#x27;ips&#x27;: [&#x27;192.241.173.135&#x27;], &#x27;shutdown_timeout&#x27;: 5, &#x27;taskbar&#x27;: False, &#x27;with_coverage&#x27;: False, &#x27;scheduler_groups&#x27;: None, &#x27;port&#x27;: 8000, &#x27;maxthreads&#x27;: None, &#x27;softcron&#x27;: False, &#x27;server_name&#x27;: &#x27;TecSUS-3-PC&#x27;, &#x27;bpython&#x27;: False, &#x27;nogui&#x27;: False, &#x27;pid_filename&#x27;: &#x27;httpserver.pid&#x27;, &#x27;print_errors&#x27;: False, &#x27;extcron&#x27;: False, &#x27;runcron&#x27;: False, &#x27;run_system_tests&#x27;: False, &#x27;test&#x27;: None, &#x27;folder&#x27;: &#x27;C:\\\\Users\\\\TecSUS-3\\\\Desktop\\\\template_site\\\\web2py&#x27;, &#x27;config&#x27;: &#x27;&#x27;, &#x27;minthreads&#x27;: None, &#x27;shell&#x27;: None, &#x27;run&#x27;: &#x27;&#x27;, &#x27;log_filename&#x27;: &#x27;httpserver.log&#x27;, &#x27;profiler_dir&#x27;: None, &#x27;args&#x27;: [&#x27;&#x27;], &#x27;socket_timeout&#x27;: 5, &#x27;ssl_ca_certificate&#x27;: None, &#x27;scheduler&#x27;: None, &#x27;interfaces&#x27;: None, &#x27;ssl_private_key&#x27;: &#x27;&#x27;, &#x27;gae&#x27;: None, &#x27;password&#x27;: &#x27;&lt;ask&gt;&#x27;, &#x27;request_queue_size&#x27;: 5, &#x27;ssl_certificate&#x27;: &#x27;&#x27;, &#x27;cronjob&#x27;: False, &#x27;numthreads&#x27;: None, &#x27;quiet&#x27;: False, &#x27;import_models&#x27;: False, &#x27;timeout&#x27;: 10, &#x27;plain&#x27;: False, &#x27;nobanner&#x27;: False}&gt;</div></td></tr><tr><td style="font-weight:bold;vertical-align:top;">db_sessions</td><td style="vertical-align:top;">:</td><td><div>set([])</div></td></tr><tr><td style="font-weight:bold;vertical-align:top;">debugging</td><td style="vertical-align:top;">:</td><td><div>True</div></td></tr><tr><td style="font-weight:bold;vertical-align:top;">gluon_parent</td><td style="vertical-align:top;">:</td><td><div>C:\\Users\\TecSUS-3\\Desktop\\template_site\\web2py</div></td></tr><tr><td style="font-weight:bold;vertical-align:top;">http_accept</td><td style="vertical-align:top;">:</td><td><div>text/html,application/xhtml+xml,application/xml;q=0.9,image/webp,*/*;q=0.8</div></td></tr><tr><td style="font-weight:bold;vertical-align:top;">http_accept_encoding</td><td style="vertical-align:top;">:</td><td><div>gzip, deflate, sdch</div></td></tr><tr><td style="font-weight:bold;vertical-align:top;">http_accept_language</td><td style="vertical-align:top;">:</td><td><div>pt-BR,pt;q=0.8,en-US;q=0.6,en;q=0.4</div></td></tr><tr><td style="font-weight:bold;vertical-align:top;">http_cache_control</td><td style="vertical-align:top;">:</td><td><div>max-age=0</div></td></tr><tr><td style="font-weight:bold;vertical-align:top;">http_connection</td><td style="vertical-align:top;">:</td><td><div>keep-alive</div></td></tr><tr><td style="font-weight:bold;vertical-align:top;">http_cookie</td><td style="vertical-align:top;">:</td><td><div>session_id_welcome=127.0.0.1-e8b19530-ca53-4709-a8f7-cf1e2801b86c; session_id_site_completo=127.0.0.1-e5c3a53f-6352-4e3c-af83-41fe890de782; session_id_site_two_alterado=127.0.0.1-7d9b9b24-179b-49c9-b597-622f8f1bcaae; session_id_admin=127.0.0.1-5c2f2565-9468-4e2d-9c19-71bd416a5dca</div></td></tr><tr><td style="font-weight:bold;vertical-align:top;">http_host</td><td style="vertical-align:top;">:</td><td><div>127.0.0.1:8000</div></td></tr><tr><td style="font-weight:bold;vertical-align:top;">http_upgrade_insecure_requests</td><td style="vertical-align:top;">:</td><td><div>1</div></td></tr><tr><td style="font-weight:bold;vertical-align:top;">http_user_agent</td><td style="vertical-align:top;">:</td><td><div>Mozilla/5.0 (Windows NT 6.1; WOW64) AppleWebKit/537.36 (KHTML, like Gecko) Chrome/44.0.2403.125 Safari/537.36</div></td></tr><tr><td style="font-weight:bold;vertical-align:top;">is_jython</td><td style="vertical-align:top;">:</td><td><div>False</div></td></tr><tr><td style="font-weight:bold;vertical-align:top;">is_pypy</td><td style="vertical-align:top;">:</td><td><div>False</div></td></tr><tr><td style="font-weight:bold;vertical-align:top;">is_source</td><td style="vertical-align:top;">:</td><td><div>True</div></td></tr><tr><td style="font-weight:bold;vertical-align:top;">local_hosts</td><td style="vertical-align:top;">:</td><td><div><table><tr><td><div>192.241.173.135</div></td></tr><tr><td><div>fe80::487:2eff:2cf4:8cd6%11</div></td></tr><tr><td><div>TecSUS-3-PC</div></td></tr><tr><td><div>TecSUS-3-PC.tecsus.com.br</div></td></tr><tr><td><div>::ffff:127.0.0.1</div></td></tr><tr><td><div>::1</div></td></tr><tr><td><div>192.168.0.2</div></td></tr><tr><td><div>fe80::5efe:192.168.0.2%12</div></td></tr><tr><td><div>127.0.0.1</div></td></tr></table></div></td></tr><tr><td style="font-weight:bold;vertical-align:top;">path_info</td><td style="vertical-align:top;">:</td><td><div>/site_two_alterado/Veiculo/Inicio</div></td></tr><tr><td style="font-weight:bold;vertical-align:top;">query_string</td><td style="vertical-align:top;">:</td><td><div></div></td></tr><tr><td style="font-weight:bold;vertical-align:top;">remote_addr</td><td style="vertical-align:top;">:</td><td><div>127.0.0.1</div></td></tr><tr><td style="font-weight:bold;vertical-align:top;">remote_port</td><td style="vertical-align:top;">:</td><td><div>49480</div></td></tr><tr><td style="font-weight:bold;vertical-align:top;">request_method</td><td style="vertical-align:top;">:</td><td><div>GET</div></td></tr><tr><td style="font-weight:bold;vertical-align:top;">request_uri</td><td style="vertical-align:top;">:</td><td><div>/site_two_alterado/Veiculo/Inicio</div></td></tr><tr><td style="font-weight:bold;vertical-align:top;">script_name</td><td style="vertical-align:top;">:</td><td><div></div></td></tr><tr><td style="font-weight:bold;vertical-align:top;">server_name</td><td style="vertical-align:top;">:</td><td><div>TecSUS-3-PC</div></td></tr><tr><td style="font-weight:bold;vertical-align:top;">server_port</td><td style="vertical-align:top;">:</td><td><div>8000</div></td></tr><tr><td style="font-weight:bold;vertical-align:top;">server_protocol</td><td style="vertical-align:top;">:</td><td><div>HTTP/1.1</div></td></tr><tr><td style="font-weight:bold;vertical-align:top;">server_software</td><td style="vertical-align:top;">:</td><td><div>Rocket 1.2.6</div></td></tr><tr><td style="font-weight:bold;vertical-align:top;">web2py_path</td><td style="vertical-align:top;">:</td><td><div>C:\\Users\\TecSUS-3\\Desktop\\template_site\\web2py</div></td></tr><tr><td style="font-weight:bold;vertical-align:top;">web2py_version</td><td style="vertical-align:top;">:</td><td><div>2.10.4-stable+timestamp.2015.04.26.15.11.54</div></td></tr><tr><td style="font-weight:bold;vertical-align:top;">wsgi.errors</td><td style="vertical-align:top;">:</td><td><div>&lt;open file &#x27;&lt;stderr&gt;&#x27;, mode &#x27;w&#x27; at 0x0038D0D0&gt;</div></td></tr><tr><td style="font-weight:bold;vertical-align:top;">wsgi.file_wrapper</td><td style="vertical-align:top;">:</td><td><div>&lt;class wsgiref.util.FileWrapper at 0x03A32F10&gt;</div></td></tr><tr><td style="font-weight:bold;vertical-align:top;">wsgi.input</td><td style="vertical-align:top;">:</td><td><div>&lt;socket._fileobject object at 0x048F5870&gt;</div></td></tr><tr><td style="font-weight:bold;vertical-align:top;">wsgi.multiprocess</td><td style="vertical-align:top;">:</td><td><div>False</div></td></tr><tr><td style="font-weight:bold;vertical-align:top;">wsgi.multithread</td><td style="vertical-align:top;">:</td><td><div>True</div></td></tr><tr><td style="font-weight:bold;vertical-align:top;">wsgi.run_once</td><td style="vertical-align:top;">:</td><td><div>False</div></td></tr><tr><td style="font-weight:bold;vertical-align:top;">wsgi.url_scheme</td><td style="vertical-align:top;">:</td><td><div>http</div></td></tr><tr><td style="font-weight:bold;vertical-align:top;">wsgi.version</td><td style="vertical-align:top;">:</td><td><div><table><tr><td><div>1</div></td></tr><tr><td><div>0</div></td></tr></table></div></td></tr><tr><td style="font-weight:bold;vertical-align:top;">wsgi_errors</td><td style="vertical-align:top;">:</td><td><div>&lt;open file &#x27;&lt;stderr&gt;&#x27;, mode &#x27;w&#x27; at 0x0038D0D0&gt;</div></td></tr><tr><td style="font-weight:bold;vertical-align:top;">wsgi_file_wrapper</td><td style="vertical-align:top;">:</td><td><div>&lt;class wsgiref.util.FileWrapper at 0x03A32F10&gt;</div></td></tr><tr><td style="font-weight:bold;vertical-align:top;">wsgi_input</td><td style="vertical-align:top;">:</td><td><div>&lt;socket._fileobject object at 0x048F5870&gt;</div></td></tr><tr><td style="font-weight:bold;vertical-align:top;">wsgi_multiprocess</td><td style="vertical-align:top;">:</td><td><div>False</div></td></tr><tr><td style="font-weight:bold;vertical-align:top;">wsgi_multithread</td><td style="vertical-align:top;">:</td><td><div>True</div></td></tr><tr><td style="font-weight:bold;vertical-align:top;">wsgi_run_once</td><td style="vertical-align:top;">:</td><td><div>False</div></td></tr><tr><td style="font-weight:bold;vertical-align:top;">wsgi_url_scheme</td><td style="vertical-align:top;">:</td><td><div>http</div></td></tr><tr><td style="font-weight:bold;vertical-align:top;">wsgi_version</td><td style="vertical-align:top;">:</td><td><div><table><tr><td><div>1</div></td></tr><tr><td><div>0</div></td></tr></table></div></td></tr></table></div></td></tr><tr><td style="font-weight:bold;vertical-align:top;">extension</td><td style="vertical-align:top;">:</td><td><div>html</div></td></tr><tr><td style="font-weight:bold;vertical-align:top;">folder</td><td style="vertical-align:top;">:</td><td><div>C:\\Users\\TecSUS-3\\Desktop\\template_site\\web2py\\applications\\site_two_alterado\\</div></td></tr><tr><td style="font-weight:bold;vertical-align:top;">function</td><td style="vertical-align:top;">:</td><td><div>Inicio</div></td></tr><tr><td style="font-weight:bold;vertical-align:top;">global_settings</td><td style="vertical-align:top;">:</td><td><div><table><tr><td style="font-weight:bold;vertical-align:top;">app_folders</td><td style="vertical-align:top;">:</td><td><div>set([&#x27;C:\\\\Users\\\\TecSUS-3\\\\Desktop\\\\template_site\\\\web2py\\\\applications\\\\admin\\\\&#x27;, &#x27;C:\\\\Users\\\\TecSUS-3\\\\Desktop\\\\template_site\\\\web2py\\\\applications\\\\site_two_alterado\\\\&#x27;, &#x27;C:\\\\Users\\\\TecSUS-3\\\\Desktop\\\\template_site\\\\web2py\\\\applications\\\\welcome\\\\&#x27;, &#x27;C:\\\\Users\\\\TecSUS-3\\\\Desktop\\\\template_site\\\\web2py\\\\applications\\\\site_completo\\\\&#x27;])</div></td></tr><tr><td style="font-weight:bold;vertical-align:top;">applications_parent</td><td style="vertical-align:top;">:</td><td><div>C:\\Users\\TecSUS-3\\Desktop\\template_site\\web2py</div></td></tr><tr><td style="font-weight:bold;vertical-align:top;">cmd_args</td><td style="vertical-align:top;">:</td><td><div><table></table></div></td></tr><tr><td style="font-weight:bold;vertical-align:top;">cmd_options</td><td style="vertical-align:top;">:</td><td><div>&lt;Values at 0x3a97cb0: {&#x27;verbose&#x27;: False, &#x27;ip&#x27;: &#x27;127.0.0.1&#x27;, &#x27;debuglevel&#x27;: 30, &#x27;with_scheduler&#x27;: False, &#x27;ips&#x27;: [&#x27;192.241.173.135&#x27;], &#x27;shutdown_timeout&#x27;: 5, &#x27;taskbar&#x27;: False, &#x27;with_coverage&#x27;: False, &#x27;scheduler_groups&#x27;: None, &#x27;port&#x27;: 8000, &#x27;maxthreads&#x27;: None, &#x27;softcron&#x27;: False, &#x27;server_name&#x27;: &#x27;TecSUS-3-PC&#x27;, &#x27;bpython&#x27;: False, &#x27;nogui&#x27;: False, &#x27;pid_filename&#x27;: &#x27;httpserver.pid&#x27;, &#x27;print_errors&#x27;: False, &#x27;extcron&#x27;: False, &#x27;runcron&#x27;: False, &#x27;run_system_tests&#x27;: False, &#x27;test&#x27;: None, &#x27;folder&#x27;: &#x27;C:\\\\Users\\\\TecSUS-3\\\\Desktop\\\\template_site\\\\web2py&#x27;, &#x27;config&#x27;: &#x27;&#x27;, &#x27;minthreads&#x27;: None, &#x27;shell&#x27;: None, &#x27;run&#x27;: &#x27;&#x27;, &#x27;log_filename&#x27;: &#x27;httpserver.log&#x27;, &#x27;profiler_dir&#x27;: None, &#x27;args&#x27;: [&#x27;&#x27;], &#x27;socket_timeout&#x27;: 5, &#x27;ssl_ca_certificate&#x27;: None, &#x27;scheduler&#x27;: None, &#x27;interfaces&#x27;: None, &#x27;ssl_private_key&#x27;: &#x27;&#x27;, &#x27;gae&#x27;: None, &#x27;password&#x27;: &#x27;&lt;ask&gt;&#x27;, &#x27;request_queue_size&#x27;: 5, &#x27;ssl_certificate&#x27;: &#x27;&#x27;, &#x27;cronjob&#x27;: False, &#x27;numthreads&#x27;: None, &#x27;quiet&#x27;: False, &#x27;import_models&#x27;: False, &#x27;timeout&#x27;: 10, &#x27;plain&#x27;: False, &#x27;nobanner&#x27;: False}&gt;</div></td></tr><tr><td style="font-weight:bold;vertical-align:top;">db_sessions</td><td style="vertical-align:top;">:</td><td><div>set([])</div></td></tr><tr><td style="font-weight:bold;vertical-align:top;">debugging</td><td style="vertical-align:top;">:</td><td><div>True</div></td></tr><tr><td style="font-weight:bold;vertical-align:top;">gluon_parent</td><td style="vertical-align:top;">:</td><td><div>C:\\Users\\TecSUS-3\\Desktop\\template_site\\web2py</div></td></tr><tr><td style="font-weight:bold;vertical-align:top;">is_jython</td><td style="vertical-align:top;">:</td><td><div>False</div></td></tr><tr><td style="font-weight:bold;vertical-align:top;">is_pypy</td><td style="vertical-align:top;">:</td><td><div>False</div></td></tr><tr><td style="font-weight:bold;vertical-align:top;">is_source</td><td style="vertical-align:top;">:</td><td><div>True</div></td></tr><tr><td style="font-weight:bold;vertical-align:top;">local_hosts</td><td style="vertical-align:top;">:</td><td><div><table><tr><td><div>192.241.173.135</div></td></tr><tr><td><div>fe80::487:2eff:2cf4:8cd6%11</div></td></tr><tr><td><div>TecSUS-3-PC</div></td></tr><tr><td><div>TecSUS-3-PC.tecsus.com.br</div></td></tr><tr><td><div>::ffff:127.0.0.1</div></td></tr><tr><td><div>::1</div></td></tr><tr><td><div>192.168.0.2</div></td></tr><tr><td><div>fe80::5efe:192.168.0.2%12</div></td></tr><tr><td><div>127.0.0.1</div></td></tr></table></div></td></tr><tr><td style="font-weight:bold;vertical-align:top;">web2py_version</td><td style="vertical-align:top;">:</td><td><div>2.10.4-stable+timestamp.2015.04.26.15.11.54</div></td></tr></table></div></td></tr><tr><td style="font-weight:bold;vertical-align:top;">is_https</td><td style="vertical-align:top;">:</td><td><div>False</div></td></tr><tr><td style="font-weight:bold;vertical-align:top;">is_local</td><td style="vertical-align:top;">:</td><td><div>True</div></td></tr><tr><td style="font-weight:bold;vertical-align:top;">is_restful</td><td style="vertical-align:top;">:</td><td><div>False</div></td></tr><tr><td style="font-weight:bold;vertical-align:top;">is_sheduler</td><td style="vertical-align:top;">:</td><td><div>None</div></td></tr><tr><td style="font-weight:bold;vertical-align:top;">is_shell</td><td style="vertical-align:top;">:</td><td><div>None</div></td></tr><tr><td style="font-weight:bold;vertical-align:top;">now</td><td style="vertical-align:top;">:</td><td><div>datetime.datetime(2015, 8, 5, 10, 34, 38, 305000)</div></td></tr><tr><td style="font-weight:bold;vertical-align:top;">raw_args</td><td style="vertical-align:top;">:</td><td><div></div></td></tr><tr><td style="font-weight:bold;vertical-align:top;">raw_extension</td><td style="vertical-align:top;">:</td><td><div>None</div></td></tr><tr><td style="font-weight:bold;vertical-align:top;">url</td><td style="vertical-align:top;">:</td><td><div>/site_two_alterado/Veiculo/Inicio</div></td></tr><tr><td style="font-weight:bold;vertical-align:top;">utcnow</td><td style="vertical-align:top;">:</td><td><div>datetime.datetime(2015, 8, 5, 13, 34, 38, 305000)</div></td></tr><tr><td style="font-weight:bold;vertical-align:top;">uuid</td><td style="vertical-align:top;">:</td><td><div>site_two_alterado/127.0.0.1.2015-08-05.10-34-38.aa8a0454-502c-4d8f-95b0-54a2f4256b6e</div></td></tr><tr><td style="font-weight:bold;vertical-align:top;">wsgi</td><td style="vertical-align:top;">:</td><td><div>&lt;gluon.main.LazyWSGI object at 0x04757850&gt;</div></td></tr></table></div>'
tRp58
sS'frames'
p59
(lp60
(dp61
S'file'
p62
S'C:\\Users\\TecSUS-3\\Desktop\\template_site\\web2py\\gluon\\restricted.py'
p63
sS'dump'
p64
(dp65
S'environment'
p66
S"{'A': <class 'gluon.html.A'>, 'ANY_OF': <class 'gluon.validators.ANY_OF'>, 'ASSIGNJS': <function ASSIGNJS>, 'AppConfig': <function AppConfig>, 'Auth': <class 'gluon.tools.Auth'>, 'B': <class 'gluon.html.B'>, 'BEAUTIFY': <class 'gluon.html.BEAUTIFY'>, 'BODY': <class 'gluon.html.BODY'>, 'BR': <class 'gluon.html.BR'>, 'BUTTON': <class 'gluon.html.BUTTON'>, ...}"
p67
sS'ccode'
p68
S'<code object <module> at 0464C020, file "C:\\User...ite_two_alterado\\controllers/Veiculo.py", line 1>'
p69
ssS'lnum'
p70
I227
sS'lines'
p71
(dp72
I224
S'            ccode = code'
p73
sI225
S'        else:'
p74
sI226
S'            ccode = compile2(code, layer)'
p75
sI227
S'        exec ccode in environment'
p76
sI228
S'    except HTTP:'
p77
sI229
S'        raise'
p78
sI230
S'    except RestrictedError:'
p79
sI231
S'        # do not encapsulate (obfuscate) the original RestrictedError'
p80
sI222
S'    try:'
p81
sI223
S'        if isinstance(code, types.CodeType):'
p82
ssS'call'
p83
S'(code="__author__ = \'TecSUS-3\'\\n\\n#######################...ls()\\n\\n\\n\\n\\nresponse._vars=response._caller(Inicio)\\n", environment={\'A\': <class \'gluon.html.A\'>, \'ANY_OF\': <class \'gluon.validators.ANY_OF\'>, \'ASSIGNJS\': <function ASSIGNJS>, \'AppConfig\': <function AppConfig>, \'Auth\': <class \'gluon.tools.Auth\'>, \'B\': <class \'gluon.html.B\'>, \'BEAUTIFY\': <class \'gluon.html.BEAUTIFY\'>, \'BODY\': <class \'gluon.html.BODY\'>, \'BR\': <class \'gluon.html.BR\'>, \'BUTTON\': <class \'gluon.html.BUTTON\'>, ...}, layer=r\'C:\\Users\\TecSUS-3\\Desktop\\template_site\\web2py\\applications\\site_two_alterado\\controllers/Veiculo.py\')'
p84
sS'func'
p85
S'restricted'
p86
sa(dp87
g62
S'C:\\Users\\TecSUS-3\\Desktop\\template_site\\web2py\\applications\\site_two_alterado\\controllers\\Veiculo.py'
p88
sg64
(dp89
S'A'
S"<class 'gluon.html.A'>"
p90
sS'redirect'
p91
S'<function redirect>'
p92
sS'FORM'
p93
S"<class 'gluon.html.FORM'>"
p94
sS'IS_NOT_EMPTY'
p95
S"<class 'gluon.validators.IS_NOT_EMPTY'>"
p96
sS'TR'
p97
S"<class 'gluon.html.TR'>"
p98
sS'Auth'
p99
S"<class 'gluon.tools.Auth'>"
p100
sS'IS_IN_DB'
p101
S"<class 'gluon.validators.IS_IN_DB'>"
p102
sS'URL'
p103
S'<function URL>'
p104
sS'IS_LIST_OF'
p105
S"<class 'gluon.validators.IS_LIST_OF'>"
p106
sS'gluon'
p107
S'undefined'
p108
sS'SQLFORM'
p109
S"<class 'gluon.sqlhtml.SQLFORM'>"
p110
sS'INPUT'
p111
S"<class 'gluon.html.INPUT'>"
p112
sS'TABLE'
p113
S"<class 'gluon.html.TABLE'>"
p114
ssg70
I4
sg71
(dp115
I2
S''
sI3
S'####################################### IMPORTS #######################################'
p116
sI4
S'from gluon import A, INPUT, IS_NOT_EMPTY, SQLFORM, URL, TR, TABLE, FORM, IS_LIST_OF, IS_IN_DB, redirect, Auth'
p117
sI5
S'from gluon import Field'
p118
sI6
S''
sI7
S'####################################### GLOBALS #######################################'
p119
sI8
S'global request, session, db, response'
p120
sI9
S''
sI10
S'def Inicio():'
p121
sI11
S''
ssg83
S'()'
p122
sg85
S'<module>'
p123
sasS'pyver'
p124
S'Python 2.7.8: C:\\Python27\\python.exe (prefix: C:\\Python27)'
p125
sS'session'
p126
g57
(S's\xbe\x01\x00\x00<div><table><tr><td style="font-weight:bold;vertical-align:top;">flashed</td><td style="vertical-align:top;">:</td><td><div>True</div></td></tr><tr><td style="font-weight:bold;vertical-align:top;">last_orderby</td><td style="vertical-align:top;">:</td><td><div>None</div></td></tr><tr><td style="font-weight:bold;vertical-align:top;">last_query</td><td style="vertical-align:top;">:</td><td><div>db2.vendedor.id&gt;0</div></td></tr></table></div>'
tRp127
sS'etype'
p128
S"<type 'exceptions.ImportError'>"
p129
sS'date'
p130
S'Wed Aug 05 10:34:38 2015'
p131
sS'response'
p132
g57
(S's\x8fQ\x00\x00<div><table><tr><td style="font-weight:bold;vertical-align:top;">MeuMenu</td><td style="vertical-align:top;">:</td><td><div><table><tr><td><div><table><tr><td><div>Principal</div></td></tr><tr><td><div>False</div></td></tr><tr><td><div>http://127.0.0.1:8000/site_two_alterado/Veiculo/Inicio</div></td></tr></table></div></td></tr><tr><td><div><table><tr><td><div>Cadastro de Comprador</div></td></tr><tr><td><div>False</div></td></tr><tr><td><div>http://127.0.0.1:8000/site_two_alterado/Veiculo/comprador</div></td></tr></table></div></td></tr><tr><td><div><table><tr><td><div>Cadastro de Carro</div></td></tr><tr><td><div>False</div></td></tr><tr><td><div>http://127.0.0.1:8000/site_two_alterado/Veiculo/carro</div></td></tr></table></div></td></tr><tr><td><div><table><tr><td><div>Cadastro de Vendedor</div></td></tr><tr><td><div>False</div></td></tr><tr><td><div>http://127.0.0.1:8000/site_two_alterado/Veiculo/vendedor</div></td></tr></table></div></td></tr><tr><td><div><table><tr><td><div>Cadastro de Marca</div></td></tr><tr><td><div>False</div></td></tr><tr><td><div>http://127.0.0.1:8000/site_two_alterado/Veiculo/marca</div></td></tr></table></div></td></tr></table></div></td></tr><tr><td style="font-weight:bold;vertical-align:top;">body</td><td style="vertical-align:top;">:</td><td><div>&lt;cStringIO.StringO object at 0x04DCE6A0&gt;</div></td></tr><tr><td style="font-weight:bold;vertical-align:top;">cookies</td><td style="vertical-align:top;">:</td><td><div><table><tr><td style="font-weight:bold;vertical-align:top;">session_id_site_two_alterado</td><td style="vertical-align:top;">:</td><td><div>127.0.0.1-7d9b9b24-179b-49c9-b597-622f8f1bcaae<table><tr><td style="font-weight:bold;vertical-align:top;">comment</td><td style="vertical-align:top;">:</td><td><div></div></td></tr><tr><td style="font-weight:bold;vertical-align:top;">domain</td><td style="vertical-align:top;">:</td><td><div></div></td></tr><tr><td style="font-weight:bold;vertical-align:top;">expires</td><td style="vertical-align:top;">:</td><td><div></div></td></tr><tr><td style="font-weight:bold;vertical-align:top;">httponly</td><td style="vertical-align:top;">:</td><td><div></div></td></tr><tr><td style="font-weight:bold;vertical-align:top;">max-age</td><td style="vertical-align:top;">:</td><td><div></div></td></tr><tr><td style="font-weight:bold;vertical-align:top;">path</td><td style="vertical-align:top;">:</td><td><div>/</div></td></tr><tr><td style="font-weight:bold;vertical-align:top;">secure</td><td style="vertical-align:top;">:</td><td><div></div></td></tr><tr><td style="font-weight:bold;vertical-align:top;">version</td><td style="vertical-align:top;">:</td><td><div></div></td></tr></table></div></td></tr></table></div></td></tr><tr><td style="font-weight:bold;vertical-align:top;">delimiters</td><td style="vertical-align:top;">:</td><td><div><table><tr><td><div>{{</div></td></tr><tr><td><div>}}</div></td></tr></table></div></td></tr><tr><td style="font-weight:bold;vertical-align:top;">files</td><td style="vertical-align:top;">:</td><td><div><table></table></div></td></tr><tr><td style="font-weight:bold;vertical-align:top;">flash</td><td style="vertical-align:top;">:</td><td><div></div></td></tr><tr><td style="font-weight:bold;vertical-align:top;">form_label_separator</td><td style="vertical-align:top;">:</td><td><div></div></td></tr><tr><td style="font-weight:bold;vertical-align:top;">formstyle</td><td style="vertical-align:top;">:</td><td><div>bootstrap3_inline</div></td></tr><tr><td style="font-weight:bold;vertical-align:top;">generic_patterns</td><td style="vertical-align:top;">:</td><td><div><table><tr><td><div>*</div></td></tr></table></div></td></tr><tr><td style="font-weight:bold;vertical-align:top;">google_analytics_id</td><td style="vertical-align:top;">:</td><td><div>None</div></td></tr><tr><td style="font-weight:bold;vertical-align:top;">headers</td><td style="vertical-align:top;">:</td><td><div><table><tr><td style="font-weight:bold;vertical-align:top;">X-Powered-By</td><td style="vertical-align:top;">:</td><td><div>web2py</div></td></tr></table></div></td></tr><tr><td style="font-weight:bold;vertical-align:top;">logo</td><td style="vertical-align:top;">:</td><td><div><a class="navbar-brand" href="http://www.web2py.com/" id="web2py-logo"><b>web<span>2</span>py</b>&trade;&nbsp;</a></div></td></tr><tr><td style="font-weight:bold;vertical-align:top;">menu</td><td style="vertical-align:top;">:</td><td><div><table><tr><td><div><table><tr><td><div>Principal</div></td></tr><tr><td><div>False</div></td></tr><tr><td><div>/site_two_alterado/default/index</div></td></tr><tr><td><div><table></table></div></td></tr></table></div></td></tr><tr><td><div><table><tr><td><div>Meus sites</div></td></tr><tr><td><div>False</div></td></tr><tr><td><div>/admin/default/site</div></td></tr></table></div></td></tr><tr><td><div><table><tr><td><div>Esta aplica\xc3\xa7\xc3\xa3o</div></td></tr><tr><td><div>False</div></td></tr><tr><td><div>#</div></td></tr><tr><td><div><table><tr><td><div><table><tr><td><div>Design</div></td></tr><tr><td><div>False</div></td></tr><tr><td><div>/admin/default/design/site_two_alterado</div></td></tr></table></div></td></tr><tr><td><div><li class="divider"></li></div></td></tr><tr><td><div><table><tr><td><div>Controlador</div></td></tr><tr><td><div>False</div></td></tr><tr><td><div>/admin/default/edit/site_two_alterado/controllers/Veiculo.py</div></td></tr></table></div></td></tr><tr><td><div><table><tr><td><div>Visualiza\xc3\xa7\xc3\xa3o</div></td></tr><tr><td><div>False</div></td></tr><tr><td><div>/admin/default/edit/site_two_alterado/views/Veiculo/Inicio.html</div></td></tr></table></div></td></tr><tr><td><div><table><tr><td><div>Modelo BD</div></td></tr><tr><td><div>False</div></td></tr><tr><td><div>/admin/default/edit/site_two_alterado/models/db.py</div></td></tr></table></div></td></tr><tr><td><div><table><tr><td><div>Modelo de Menu</div></td></tr><tr><td><div>False</div></td></tr><tr><td><div>/admin/default/edit/site_two_alterado/models/menu.py</div></td></tr></table></div></td></tr><tr><td><div><table><tr><td><div>Config.ini</div></td></tr><tr><td><div>False</div></td></tr><tr><td><div>/admin/default/edit/site_two_alterado/private/appconfig.ini</div></td></tr></table></div></td></tr><tr><td><div><table><tr><td><div>Layout</div></td></tr><tr><td><div>False</div></td></tr><tr><td><div>/admin/default/edit/site_two_alterado/views/layout.html</div></td></tr></table></div></td></tr><tr><td><div><table><tr><td><div>Folha de estilo</div></td></tr><tr><td><div>False</div></td></tr><tr><td><div>/admin/default/edit/site_two_alterado/static/css/web2py-bootstrap3.css</div></td></tr></table></div></td></tr><tr><td><div><table><tr><td><div>banco de dados</div></td></tr><tr><td><div>False</div></td></tr><tr><td><div>/site_two_alterado/appadmin/index</div></td></tr></table></div></td></tr><tr><td><div><table><tr><td><div>Erros</div></td></tr><tr><td><div>False</div></td></tr><tr><td><div>/admin/default/errors/site_two_alterado</div></td></tr></table></div></td></tr><tr><td><div><table><tr><td><div>Sobre</div></td></tr><tr><td><div>False</div></td></tr><tr><td><div>/admin/default/about/site_two_alterado</div></td></tr></table></div></td></tr></table></div></td></tr></table></div></td></tr><tr><td><div><table><tr><td><div>web2py.com</div></td></tr><tr><td><div>False</div></td></tr><tr><td><div>#</div></td></tr><tr><td><div><table><tr><td><div><table><tr><td><div>Download</div></td></tr><tr><td><div>False</div></td></tr><tr><td><div>http://www.web2py.com/examples/default/download</div></td></tr></table></div></td></tr><tr><td><div><table><tr><td><div>Suporte</div></td></tr><tr><td><div>False</div></td></tr><tr><td><div>http://www.web2py.com/examples/default/support</div></td></tr></table></div></td></tr><tr><td><div><table><tr><td><div>Demo</div></td></tr><tr><td><div>False</div></td></tr><tr><td><div>http://web2py.com/demo_admin</div></td></tr></table></div></td></tr><tr><td><div><table><tr><td><div>Exemplos r\xc3\xa1pidos</div></td></tr><tr><td><div>False</div></td></tr><tr><td><div>http://web2py.com/examples/default/examples</div></td></tr></table></div></td></tr><tr><td><div><table><tr><td><div>Perguntas frequentes</div></td></tr><tr><td><div>False</div></td></tr><tr><td><div>http://web2py.com/AlterEgo</div></td></tr></table></div></td></tr><tr><td><div><table><tr><td><div>V\xc3\xaddeos</div></td></tr><tr><td><div>False</div></td></tr><tr><td><div>http://www.web2py.com/examples/default/videos/</div></td></tr></table></div></td></tr><tr><td><div><table><tr><td><div>Aplica\xc3\xa7\xc3\xb5es gratuitas</div></td></tr><tr><td><div>False</div></td></tr><tr><td><div>http://web2py.com/appliances</div></td></tr></table></div></td></tr><tr><td><div><table><tr><td><div>Plugins</div></td></tr><tr><td><div>False</div></td></tr><tr><td><div>http://web2py.com/plugins</div></td></tr></table></div></td></tr><tr><td><div><table><tr><td><div>Receitas</div></td></tr><tr><td><div>False</div></td></tr><tr><td><div>http://web2pyslices.com/</div></td></tr></table></div></td></tr></table></div></td></tr></table></div></td></tr><tr><td><div><table><tr><td><div>Documenta\xc3\xa7\xc3\xa3o</div></td></tr><tr><td><div>False</div></td></tr><tr><td><div>#</div></td></tr><tr><td><div><table><tr><td><div><table><tr><td><div>Online book</div></td></tr><tr><td><div>False</div></td></tr><tr><td><div>http://www.web2py.com/book</div></td></tr></table></div></td></tr><tr><td><div><li class="divider"></li></div></td></tr><tr><td><div><table><tr><td><div>Pref\xc3\xa1cio</div></td></tr><tr><td><div>False</div></td></tr><tr><td><div>http://www.web2py.com/book/default/chapter/00</div></td></tr></table></div></td></tr><tr><td><div><table><tr><td><div>Introdu\xc3\xa7\xc3\xa3o</div></td></tr><tr><td><div>False</div></td></tr><tr><td><div>http://www.web2py.com/book/default/chapter/01</div></td></tr></table></div></td></tr><tr><td><div><table><tr><td><div>Python</div></td></tr><tr><td><div>False</div></td></tr><tr><td><div>http://www.web2py.com/book/default/chapter/02</div></td></tr></table></div></td></tr><tr><td><div><table><tr><td><div>Vis\xc3\xa3o Geral</div></td></tr><tr><td><div>False</div></td></tr><tr><td><div>http://www.web2py.com/book/default/chapter/03</div></td></tr></table></div></td></tr><tr><td><div><table><tr><td><div>The Core</div></td></tr><tr><td><div>False</div></td></tr><tr><td><div>http://www.web2py.com/book/default/chapter/04</div></td></tr></table></div></td></tr><tr><td><div><table><tr><td><div>As views</div></td></tr><tr><td><div>False</div></td></tr><tr><td><div>http://www.web2py.com/book/default/chapter/05</div></td></tr></table></div></td></tr><tr><td><div><table><tr><td><div>banco de dados</div></td></tr><tr><td><div>False</div></td></tr><tr><td><div>http://www.web2py.com/book/default/chapter/06</div></td></tr></table></div></td></tr><tr><td><div><table><tr><td><div>Formul\xc3\xa1rios e Validadores</div></td></tr><tr><td><div>False</div></td></tr><tr><td><div>http://www.web2py.com/book/default/chapter/07</div></td></tr></table></div></td></tr><tr><td><div><table><tr><td><div>Email e SMS</div></td></tr><tr><td><div>False</div></td></tr><tr><td><div>http://www.web2py.com/book/default/chapter/08</div></td></tr></table></div></td></tr><tr><td><div><table><tr><td><div>Controle de Acesso</div></td></tr><tr><td><div>False</div></td></tr><tr><td><div>http://www.web2py.com/book/default/chapter/09</div></td></tr></table></div></td></tr><tr><td><div><table><tr><td><div>Servi\xc3\xa7o</div></td></tr><tr><td><div>False</div></td></tr><tr><td><div>http://www.web2py.com/book/default/chapter/10</div></td></tr></table></div></td></tr><tr><td><div><table><tr><td><div>Receitas de Ajax</div></td></tr><tr><td><div>False</div></td></tr><tr><td><div>http://www.web2py.com/book/default/chapter/11</div></td></tr></table></div></td></tr><tr><td><div><table><tr><td><div>Componentes e Plugins</div></td></tr><tr><td><div>False</div></td></tr><tr><td><div>http://www.web2py.com/book/default/chapter/12</div></td></tr></table></div></td></tr><tr><td><div><table><tr><td><div>Receitas de deploy</div></td></tr><tr><td><div>False</div></td></tr><tr><td><div>http://www.web2py.com/book/default/chapter/13</div></td></tr></table></div></td></tr><tr><td><div><table><tr><td><div>Outras Receitas</div></td></tr><tr><td><div>False</div></td></tr><tr><td><div>http://www.web2py.com/book/default/chapter/14</div></td></tr></table></div></td></tr><tr><td><div><table><tr><td><div>Helping web2py</div></td></tr><tr><td><div>False</div></td></tr><tr><td><div>http://www.web2py.com/book/default/chapter/15</div></td></tr></table></div></td></tr><tr><td><div><table><tr><td><div>Buy web2py\'s book</div></td></tr><tr><td><div>False</div></td></tr><tr><td><div>http://stores.lulu.com/web2py</div></td></tr></table></div></td></tr></table></div></td></tr></table></div></td></tr><tr><td><div><table><tr><td><div>Comunidade</div></td></tr><tr><td><div>False</div></td></tr><tr><td><div>None</div></td></tr><tr><td><div><table><tr><td><div><table><tr><td><div>Grupos</div></td></tr><tr><td><div>False</div></td></tr><tr><td><div>http://www.web2py.com/examples/default/usergroups</div></td></tr></table></div></td></tr><tr><td><div><table><tr><td><div>Twitter</div></td></tr><tr><td><div>False</div></td></tr><tr><td><div>http://twitter.com/web2py</div></td></tr></table></div></td></tr><tr><td><div><table><tr><td><div>Chat ao vivo</div></td></tr><tr><td><div>False</div></td></tr><tr><td><div>http://webchat.freenode.net/?channels=web2py</div></td></tr></table></div></td></tr></table></div></td></tr></table></div></td></tr><tr><td><div><table><tr><td><div>Minha Pagina Teste</div></td></tr><tr><td><div>False</div></td></tr><tr><td><div>None</div></td></tr><tr><td><div><table><tr><td><div><table><tr><td><div>Forms - accessories grid</div></td></tr><tr><td><div>False</div></td></tr><tr><td><div>http://127.0.0.1:8000/site_two_alterado/forms/accessories_grid_selectable.html</div></td></tr></table></div></td></tr><tr><td><div><table><tr><td><div>Forms - accessories crud</div></td></tr><tr><td><div>False</div></td></tr><tr><td><div>http://127.0.0.1:8000/site_two_alterado/forms/accessory_crud</div></td></tr></table></div></td></tr><tr><td><div><table><tr><td><div>Forms - car model</div></td></tr><tr><td><div>False</div></td></tr><tr><td><div>http://127.0.0.1:8000/site_two_alterado/forms/car_model_form</div></td></tr></table></div></td></tr><tr><td><div><table><tr><td><div>Forms - sale</div></td></tr><tr><td><div>False</div></td></tr><tr><td><div>http://127.0.0.1:8000/site_two_alterado/forms/sale_sqlform_factory</div></td></tr></table></div></td></tr><tr><td><div><table><tr><td><div>Forms - vendor</div></td></tr><tr><td><div>False</div></td></tr><tr><td><div>http://127.0.0.1:8000/site_two_alterado/forms/vendor_sqlform</div></td></tr></table></div></td></tr><tr><td><div><li class="divider"></li></div></td></tr><tr><td><div><table><tr><td><div>Lista grid</div></td></tr><tr><td><div>False</div></td></tr><tr><td><div>http://127.0.0.1:8000/site_two_alterado/grids/database_lists_grid</div></td></tr></table></div></td></tr><tr><td><div><table><tr><td><div>Lista smartgrid</div></td></tr><tr><td><div>False</div></td></tr><tr><td><div>http://127.0.0.1:8000/site_two_alterado/grids/database_lists_smartgrid</div></td></tr></table></div></td></tr><tr><td><div><li class="divider"></li></div></td></tr><tr><td><div><table><tr><td><div>Nova Manual</div></td></tr><tr><td><div>False</div></td></tr><tr><td><div>http://127.0.0.1:8000/site_two_alterado/NovaManual/NovaManual</div></td></tr></table></div></td></tr></table></div></td></tr></table></div></td></tr><tr><td><div><table><tr><td><div>Apostila</div></td></tr><tr><td><div>False</div></td></tr><tr><td><div>None</div></td></tr><tr><td><div><table><tr><td><div><table><tr><td><div>Gerais</div></td></tr><tr><td><div>False</div></td></tr><tr><td><div>http://127.0.0.1:8000/site_two_alterado/Apostila/Apostila</div></td></tr></table></div></td></tr><tr><td><div><li class="divider"></li></div></td></tr><tr><td><div><table><tr><td><div>Banco de Dados</div></td></tr><tr><td><div>False</div></td></tr><tr><td><div>http://127.0.0.1:8000/site_two_alterado/Apostila/BD_Apostila</div></td></tr></table></div></td></tr></table></div></td></tr></table></div></td></tr><tr><td><div><table><tr><td><div>Loja de carros</div></td></tr><tr><td><div>False</div></td></tr><tr><td><div>None</div></td></tr><tr><td><div><table><tr><td><div><table><tr><td><div>Inicial</div></td></tr><tr><td><div>False</div></td></tr><tr><td><div>http://127.0.0.1:8000/site_two_alterado/Veiculo/Inicio</div></td></tr></table></div></td></tr></table></div></td></tr></table></div></td></tr></table></div></td></tr><tr><td style="font-weight:bold;vertical-align:top;">meta</td><td style="vertical-align:top;">:</td><td><div><table><tr><td style="font-weight:bold;vertical-align:top;">author</td><td style="vertical-align:top;">:</td><td><div>Your Name &lt;you@example.com&gt;</div></td></tr><tr><td style="font-weight:bold;vertical-align:top;">description</td><td style="vertical-align:top;">:</td><td><div>a cool new app</div></td></tr><tr><td style="font-weight:bold;vertical-align:top;">generator</td><td style="vertical-align:top;">:</td><td><div>Web2py Web Framework</div></td></tr><tr><td style="font-weight:bold;vertical-align:top;">keywords</td><td style="vertical-align:top;">:</td><td><div>web2py, python, framework</div></td></tr></table></div></td></tr><tr><td style="font-weight:bold;vertical-align:top;">models_to_run</td><td style="vertical-align:top;">:</td><td><div><table><tr><td><div>^\\w+\\.py$</div></td></tr><tr><td><div>^Veiculo/\\w+\\.py$</div></td></tr><tr><td><div>^Veiculo/Inicio/\\w+\\.py$</div></td></tr></table></div></td></tr><tr><td style="font-weight:bold;vertical-align:top;">postprocessing</td><td style="vertical-align:top;">:</td><td><div><table></table></div></td></tr><tr><td style="font-weight:bold;vertical-align:top;">session_client</td><td style="vertical-align:top;">:</td><td><div>127.0.0.1</div></td></tr><tr><td style="font-weight:bold;vertical-align:top;">session_cookie_compression_level</td><td style="vertical-align:top;">:</td><td><div>None</div></td></tr><tr><td style="font-weight:bold;vertical-align:top;">session_cookie_expires</td><td style="vertical-align:top;">:</td><td><div>None</div></td></tr><tr><td style="font-weight:bold;vertical-align:top;">session_cookie_key</td><td style="vertical-align:top;">:</td><td><div>None</div></td></tr><tr><td style="font-weight:bold;vertical-align:top;">session_data_name</td><td style="vertical-align:top;">:</td><td><div>session_data_site_two_alterado</div></td></tr><tr><td style="font-weight:bold;vertical-align:top;">session_file</td><td style="vertical-align:top;">:</td><td><div>&lt;open file &#x27;C:\\\\Users\\\\TecSUS-3\\\\Desktop\\\\template_site\\\\web2py\\\\applications\\\\site_two_alterado\\\\sessions\\\\129\\\\190\\\\127.0.0.1-7d9b9b24-179b-49c9-b597-622f8f1bcaae&#x27;, mode &#x27;rb+&#x27; at 0x050FAE38&gt;</div></td></tr><tr><td style="font-weight:bold;vertical-align:top;">session_filename</td><td style="vertical-align:top;">:</td><td><div>C:\\Users\\TecSUS-3\\Desktop\\template_site\\web2py\\applications\\site_two_alterado\\sessions\\127.0.0.1-7d9b9b24-179b-49c9-b597-622f8f1bcaae</div></td></tr><tr><td style="font-weight:bold;vertical-align:top;">session_hash</td><td style="vertical-align:top;">:</td><td><div>863787a9ca55bd07fa8f41dd1d6b4286</div></td></tr><tr><td style="font-weight:bold;vertical-align:top;">session_id</td><td style="vertical-align:top;">:</td><td><div>127.0.0.1-7d9b9b24-179b-49c9-b597-622f8f1bcaae</div></td></tr><tr><td style="font-weight:bold;vertical-align:top;">session_id_name</td><td style="vertical-align:top;">:</td><td><div>session_id_site_two_alterado</div></td></tr><tr><td style="font-weight:bold;vertical-align:top;">session_locked</td><td style="vertical-align:top;">:</td><td><div>True</div></td></tr><tr><td style="font-weight:bold;vertical-align:top;">session_masterapp</td><td style="vertical-align:top;">:</td><td><div>site_two_alterado</div></td></tr><tr><td style="font-weight:bold;vertical-align:top;">session_new</td><td style="vertical-align:top;">:</td><td><div>False</div></td></tr><tr><td style="font-weight:bold;vertical-align:top;">session_storage_type</td><td style="vertical-align:top;">:</td><td><div>file</div></td></tr><tr><td style="font-weight:bold;vertical-align:top;">status</td><td style="vertical-align:top;">:</td><td><div>200</div></td></tr><tr><td style="font-weight:bold;vertical-align:top;">subtitle</td><td style="vertical-align:top;">:</td><td><div></div></td></tr><tr><td style="font-weight:bold;vertical-align:top;">title</td><td style="vertical-align:top;">:</td><td><div>Site Two Alterado</div></td></tr><tr><td style="font-weight:bold;vertical-align:top;">view</td><td style="vertical-align:top;">:</td><td><div>Veiculo/Inicio.html</div></td></tr></table></div>'
tRp133
sS'locals'
p134
(dp135
S'Service'
p136
S"<class 'gluon.tools.Service'>"
p137
sS'OBJECT'
p138
S"<class 'gluon.html.OBJECT'>"
p139
sS'SQLDB'
p140
S"<class 'pydal.base.DAL'>"
p141
sg126
S"<Storage {'last_orderby': None, 'last_query': 'd...alterado/Veiculo/Inicio/carro', 'flashed': True}>"
p142
sS'LINK'
p143
S"<class 'gluon.html.LINK'>"
p144
sS'BR'
p145
S"<class 'gluon.html.BR'>"
p146
sS'local_import'
p147
S'<function <lambda>>'
p148
sS'OPTGROUP'
p149
S"<class 'gluon.html.OPTGROUP'>"
p150
sS'LI'
p151
S"<class 'gluon.html.LI'>"
p152
sS'PRE'
p153
S"<class 'gluon.html.PRE'>"
p154
sS'IS_INT_IN_RANGE'
p155
S"<class 'gluon.validators.IS_INT_IN_RANGE'>"
p156
sS'IS_LOWER'
p157
S"<class 'gluon.validators.IS_LOWER'>"
p158
sS'IS_STRONG'
p159
S"<class 'gluon.validators.IS_STRONG'>"
p160
sS'cache'
p161
S'<gluon.cache.Cache object>'
p162
sS'IS_IN_DB'
p163
S"<class 'gluon.validators.IS_IN_DB'>"
p164
sS'TAG'
p165
S'<gluon.html.__TAG__ object>'
p166
sS'SQLField'
p167
S"<class 'pydal.objects.Field'>"
p168
sS'mail'
p169
S'<gluon.tools.Mail object>'
p170
sS'BODY'
p171
S"<class 'gluon.html.BODY'>"
p172
sS'IS_DATE_IN_RANGE'
p173
S"<class 'gluon.validators.IS_DATE_IN_RANGE'>"
p174
sS'TH'
p175
S"<class 'gluon.html.TH'>"
p176
sS'URL'
p177
S'<function URL>'
p178
sS'__file__'
p179
S"r'C:\\Users\\TecSUS-3\\Desktop\\template_site\\web2py\\applications\\site_two_alterado\\controllers/Veiculo.py'"
p180
sS'db'
p181
S'<DAL uri="sqlite://storage.sqlite">'
p182
sS'auth'
p183
S'<gluon.tools.Auth object>'
p184
sS'P'
S"<class 'gluon.html.P'>"
p185
sS'TFOOT'
p186
S"<class 'gluon.html.TFOOT'>"
p187
sS'XHTML'
p188
S"<class 'gluon.html.XHTML'>"
p189
sS'db2'
p190
S'<DAL uri="sqlite://storage.sqlite">'
p191
sS'ON'
p192
S'True'
p193
sS'OL'
p194
S"<class 'gluon.html.OL'>"
p195
sS'TEXTAREA'
p196
S"<class 'gluon.html.TEXTAREA'>"
p197
sS'MENU'
p198
S"<class 'gluon.html.MENU'>"
p199
sS'IS_LIST_OF'
p200
S"<class 'gluon.validators.IS_LIST_OF'>"
p201
sS'estados'
p202
S"('Novo', 'Usado')"
p203
sS'e_m'
p204
S"{'email': 'Voc\\xc3\\xaa precisa inserir um e-mail v\\xc3\\xa1lido', 'empty': 'Este campo \\xc3\\xa9 obrigat\\xc3\\xb3rio', 'image': 'O arquivo precisa ser uma imagem v\\xc3\\xa1lida', 'in_db': 'Este registro j\\xc3\\xa1 existe no banco de dados', 'not_in_db': 'Este registro n\\xc3\\xa3o existe no banco de dados', 'not_in_range': 'Digite um n\\xc3\\xbamero entre %(min)s e %(max)s', 'not_in_set': 'Voc\\xc3\\xaa precisa escolher um valor v\\xc3\\xa1lido'}"
p205
sS'LOAD'
p206
S'<function LOAD>'
p207
sS'CODE'
p208
S"<class 'gluon.html.CODE'>"
p209
sS'HTTP'
p210
S"<class 'gluon.http.HTTP'>"
p211
sS'HR'
p212
S"<class 'gluon.html.HR'>"
p213
sS'IS_DATETIME'
p214
S"<class 'gluon.validators.IS_DATETIME'>"
p215
sS'HEAD'
p216
S"<class 'gluon.html.HEAD'>"
p217
sS'LABEL'
p218
S"<class 'gluon.html.LABEL'>"
p219
sS'CLEANUP'
p220
S"<class 'gluon.validators.CLEANUP'>"
p221
sS'plugins'
p222
S'<gluon.tools.PluginManager object>'
p223
sS'SELECT'
p224
S"<class 'gluon.html.SELECT'>"
p225
sS'CENTER'
p226
S"<class 'gluon.html.CENTER'>"
p227
sS'Auth'
p228
S"<class 'gluon.tools.Auth'>"
p229
sS'DEVELOPMENT_MENU'
p230
g193
sS'__builtins__'
p231
S"{'ArithmeticError': <type 'exceptions.ArithmeticError'>, 'AssertionError': <type 'exceptions.AssertionError'>, 'AttributeError': <type 'exceptions.AttributeError'>, 'BaseException': <type 'exceptions.BaseException'>, 'BufferError': <type 'exceptions.BufferError'>, 'BytesWarning': <type 'exceptions.BytesWarning'>, 'DeprecationWarning': <type 'exceptions.DeprecationWarning'>, 'EOFError': <type 'exceptions.EOFError'>, 'Ellipsis': Ellipsis, 'EnvironmentError': <type 'exceptions.EnvironmentError'>, ...}"
p232
sS'HTML'
p233
S"<class 'gluon.html.HTML'>"
p234
sS'SQLFORM'
p235
S"<class 'gluon.sqlhtml.SQLFORM'>"
p236
sS'EM'
p237
S"<class 'gluon.html.EM'>"
p238
sS'redirect'
p239
S'<function redirect>'
p240
sS'FIELDSET'
p241
S"<class 'gluon.html.FIELDSET'>"
p242
sS'IS_EQUAL_TO'
p243
S"<class 'gluon.validators.IS_EQUAL_TO'>"
p244
sS'embed64'
p245
S'<function embed64>'
p246
sS'config'
p247
S"{'dscsite': 'S\\xc3\\xb3 os melhores carros', 'nmsite': 'Loja de Carro'}"
p248
sS'__name__'
p249
S"'__restricted__'"
p250
sS'EMBED'
p251
S"<class 'gluon.html.EMBED'>"
p252
sS'_'
S'<function _>'
p253
sS'FORM'
p254
S"<class 'gluon.html.FORM'>"
p255
sS'myconf'
p256
S"{'forms': {'formstyle': 'bootstrap3_inline', 'se...'you@gmail.com', 'server': 'smtp.gmail.com:587'}}"
p257
sS'H2'
p258
S"<class 'gluon.html.H2'>"
p259
sS'H3'
p260
S"<class 'gluon.html.H3'>"
p261
sS'AppConfig'
p262
S'<function AppConfig>'
p263
sS'H1'
p264
S"<class 'gluon.html.H1'>"
p265
sS'H6'
p266
S"<class 'gluon.html.H6'>"
p267
sS'H4'
p268
S"<class 'gluon.html.H4'>"
p269
sS'H5'
p270
S"<class 'gluon.html.H5'>"
p271
sS'UL'
p272
S"<class 'gluon.html.UL'>"
p273
sS'IS_UPPER'
p274
S"<class 'gluon.validators.IS_UPPER'>"
p275
sS'IS_LIST_OF_EMAILS'
p276
S"<class 'gluon.validators.IS_LIST_OF_EMAILS'>"
p277
sS'xmlescape'
p278
S'<function xmlescape>'
p279
sS'IS_TIME'
p280
S"<class 'gluon.validators.IS_TIME'>"
p281
sS'OPTION'
p282
S"<class 'gluon.html.OPTION'>"
p283
sS'TITLE'
p284
S"<class 'gluon.html.TITLE'>"
p285
sS'CRYPT'
p286
S"<class 'gluon.validators.CRYPT'>"
p287
sS'IS_EMPTY_OR'
p288
S"<class 'gluon.validators.IS_EMPTY_OR'>"
p289
sS'MARKMIN'
p290
S"<class 'gluon.html.MARKMIN'>"
p291
sS'INPUT'
p292
S"<class 'gluon.html.INPUT'>"
p293
sS'STRONG'
p294
S"<class 'gluon.html.STRONG'>"
p295
sS'COL'
p296
S"<class 'gluon.html.COL'>"
p297
sS'service'
p298
S'<gluon.tools.Service object>'
p299
sS'SCRIPT'
p300
S"<class 'gluon.html.SCRIPT'>"
p301
sS'TABLE'
p302
S"<class 'gluon.html.TABLE'>"
p303
sS'IS_IPV4'
p304
S"<class 'gluon.validators.IS_IPV4'>"
p305
sS'IS_LENGTH'
p306
S"<class 'gluon.validators.IS_LENGTH'>"
p307
sS'IS_IPV6'
p308
S"<class 'gluon.validators.IS_IPV6'>"
p309
sS'XML'
p310
S"<class 'gluon.html.XML'>"
p311
sS'B'
S"<class 'gluon.html.B'>"
p312
sS'IMG'
p313
S"<class 'gluon.html.IMG'>"
p314
sS'SQLTABLE'
p315
S"<class 'gluon.sqlhtml.SQLTABLE'>"
p316
sS'IS_MATCH'
p317
S"<class 'gluon.validators.IS_MATCH'>"
p318
sS'IS_ALPHANUMERIC'
p319
S"<class 'gluon.validators.IS_ALPHANUMERIC'>"
p320
sS'__author__'
p321
S"'TecSUS-3'"
p322
sS'SPAN'
p323
S"<class 'gluon.html.SPAN'>"
p324
sS'IS_JSON'
p325
S"<class 'gluon.validators.IS_JSON'>"
p326
sS'IS_IPADDRESS'
p327
S"<class 'gluon.validators.IS_IPADDRESS'>"
p328
sS'IS_SLUG'
p329
S"<class 'gluon.validators.IS_SLUG'>"
p330
sS'BEAUTIFY'
p331
S"<class 'gluon.html.BEAUTIFY'>"
p332
sS'META'
p333
S"<class 'gluon.html.META'>"
p334
sS'BUTTON'
p335
S"<class 'gluon.html.BUTTON'>"
p336
sS'IS_DATE'
p337
S"<class 'gluon.validators.IS_DATE'>"
p338
sS'IS_EMAIL'
p339
S"<class 'gluon.validators.IS_EMAIL'>"
p340
sS'IS_NOT_EMPTY'
p341
S"<class 'gluon.validators.IS_NOT_EMPTY'>"
p342
sg56
S"<Storage {'_vars': <Storage {}>, 'function': 'In...ite\\\\web2py\\\\applications\\\\site_two_alterado\\\\'}>"
p343
sS'TBODY'
p344
S"<class 'gluon.html.TBODY'>"
p345
sS'CAT'
p346
S"<class 'gluon.html.CAT'>"
p347
sS'Field'
p348
S"<class 'pydal.objects.Field'>"
p349
sS'purchased'
p350
S'<Query ((person.id = purchased.buyer_id) AND (product.id = purchased.product_id))>'
p351
sS'DIV'
p352
S"<class 'gluon.html.DIV'>"
p353
sS'LEGEND'
p354
S"<class 'gluon.html.LEGEND'>"
p355
sS'COLGROUP'
p356
S"<class 'gluon.html.COLGROUP'>"
p357
sS'DAL'
p358
S"<class 'pydal.base.DAL'>"
p359
sS'ASSIGNJS'
p360
S'<function ASSIGNJS>'
p361
sS'TR'
p362
S"<class 'gluon.html.TR'>"
p363
sS'__package__'
p364
S'None'
p365
sS'IFRAME'
p366
S"<class 'gluon.html.IFRAME'>"
p367
sS'TD'
p368
S"<class 'gluon.html.TD'>"
p369
sS'PluginManager'
p370
S"<class 'gluon.tools.PluginManager'>"
p371
sS'IS_URL'
p372
S"<class 'gluon.validators.IS_URL'>"
p373
sS'A'
S"<class 'gluon.html.A'>"
p374
sS'STYLE'
p375
S"<class 'gluon.html.STYLE'>"
p376
sS'IS_DATETIME_IN_RANGE'
p377
S"<class 'gluon.validators.IS_DATETIME_IN_RANGE'>"
p378
sS'IS_IMAGE'
p379
S"<class 'gluon.validators.IS_IMAGE'>"
p380
sS'I'
S"<class 'gluon.html.I'>"
p381
sS'IS_NOT_IN_DB'
p382
S"<class 'gluon.validators.IS_NOT_IN_DB'>"
p383
sg132
S"<Storage {'body': <cStringIO.StringO object at 0...> at 0x0501FB70>, 'view': 'Veiculo/Inicio.html'}>"
p384
sS'THEAD'
p385
S"<class 'gluon.html.THEAD'>"
p386
sS'ANY_OF'
p387
S"<class 'gluon.validators.ANY_OF'>"
p388
sS'IS_NULL_OR'
p389
S"<class 'gluon.validators.IS_EMPTY_OR'>"
p390
sS'notempty'
p391
S'<gluon.validators.IS_NOT_EMPTY object>'
p392
sS'IS_FLOAT_IN_RANGE'
p393
S"<class 'gluon.validators.IS_FLOAT_IN_RANGE'>"
p394
sS'IS_EXPR'
p395
S"<class 'gluon.validators.IS_EXPR'>"
p396
sS'IS_IN_SET'
p397
S"<class 'gluon.validators.IS_IN_SET'>"
p398
sS'IS_UPLOAD_FILENAME'
p399
S"<class 'gluon.validators.IS_UPLOAD_FILENAME'>"
p400
sS'cores'
p401
S"('Azul', 'Amarelo', 'Verde', 'Vermelho', 'Prata', 'Branco', 'Preto', 'Vinho')"
p402
sS'IS_DECIMAL_IN_RANGE'
p403
S"<class 'gluon.validators.IS_DECIMAL_IN_RANGE'>"
p404
sS'TT'
p405
S"<class 'gluon.html.TT'>"
p406
sS'T'
S'<gluon.languages.translator object>'
p407
sssS'traceback'
p408
S'Traceback (most recent call last):\n  File "C:\\Users\\TecSUS-3\\Desktop\\template_site\\web2py\\gluon\\restricted.py", line 227, in restricted\n    exec ccode in environment\n  File "C:\\Users\\TecSUS-3\\Desktop\\template_site\\web2py\\applications\\site_two_alterado\\controllers/Veiculo.py", line 4, in <module>\n    from gluon import A, INPUT, IS_NOT_EMPTY, SQLFORM, URL, TR, TABLE, FORM, IS_LIST_OF, IS_IN_DB, redirect, Auth\nImportError: cannot import name Auth\n'
p409
s.