(dp1
S'output'
p2
S"<type 'exceptions.Exception'> Validation error, field:pessoa <class 'gluon.validators.IS_NOT_EMPTY'>"
p3
sS'layer'
p4
S'C:\\Users\\TecSUS-3\\Desktop\\template_site\\web2py\\applications\\site_completo\\controllers/cadastros.py'
p5
sS'code'
p6
S'__author__ = \'TecSUS-3\'\n\ndef tipo_usuario_crud():\n    """ Create a simple form using the CRUD function of web2py. """\n\n    #aqui ele formata tudo sozinho e ainda envia para o banco sozinho tamb\xc3\xa9m\n    #mostra a mensagem de falha sozinho\n    from gluon.tools import Crud\n    crud = Crud(db)\n    tipo_usuario_crud = crud.create(db.Tipo_Usuario)\n    return locals()\nresponse._vars=response._caller(tipo_usuario_crud)\n'
p7
sS'snapshot'
p8
(dp9
S'exception'
p10
(dp11
S'__hash__'
p12
S"<method-wrapper '__hash__' of exceptions.Exception object>"
p13
sS'__setattr__'
p14
S"<method-wrapper '__setattr__' of exceptions.Exception object>"
p15
sS'__reduce_ex__'
p16
S'<built-in method __reduce_ex__ of exceptions.Exception object>'
p17
sS'__getslice__'
p18
S"<method-wrapper '__getslice__' of exceptions.Exception object>"
p19
sS'__getitem__'
p20
S"<method-wrapper '__getitem__' of exceptions.Exception object>"
p21
sS'__setstate__'
p22
S'<built-in method __setstate__ of exceptions.Exception object>'
p23
sS'__reduce__'
p24
S'<built-in method __reduce__ of exceptions.Exception object>'
p25
sS'__str__'
p26
S"<method-wrapper '__str__' of exceptions.Exception object>"
p27
sS'__format__'
p28
S'<built-in method __format__ of exceptions.Exception object>'
p29
sS'__getattribute__'
p30
S"<method-wrapper '__getattribute__' of exceptions.Exception object>"
p31
sS'__class__'
p32
S"<type 'exceptions.Exception'>"
p33
sS'__unicode__'
p34
S'<built-in method __unicode__ of exceptions.Exception object>'
p35
sS'__delattr__'
p36
S"<method-wrapper '__delattr__' of exceptions.Exception object>"
p37
sS'__subclasshook__'
p38
S'<built-in method __subclasshook__ of type object>'
p39
sS'__repr__'
p40
S"<method-wrapper '__repr__' of exceptions.Exception object>"
p41
sS'args'
p42
S'("Validation error, field:pessoa <class \'gluon.validators.IS_NOT_EMPTY\'>",)'
p43
sS'__dict__'
p44
S'{}'
p45
sS'__sizeof__'
p46
S'<built-in method __sizeof__ of exceptions.Exception object>'
p47
sS'__doc__'
p48
S"'Common base class for all non-exit exceptions.'"
p49
sS'__init__'
p50
S"<method-wrapper '__init__' of exceptions.Exception object>"
p51
sS'__new__'
p52
S'<built-in method __new__ of type object>'
p53
ssS'evalue'
p54
S"Validation error, field:pessoa <class 'gluon.validators.IS_NOT_EMPTY'>"
p55
sS'request'
p56
cgluon.html
XML_unpickle
p57
(S'sKh\x00\x00<div><table><tr><td style="font-weight:bold;vertical-align:top;">ajax</td><td style="vertical-align:top;">:</td><td><div>False</div></td></tr><tr><td style="font-weight:bold;vertical-align:top;">application</td><td style="vertical-align:top;">:</td><td><div>site_completo</div></td></tr><tr><td style="font-weight:bold;vertical-align:top;">args</td><td style="vertical-align:top;">:</td><td><div><table></table></div></td></tr><tr><td style="font-weight:bold;vertical-align:top;">cid</td><td style="vertical-align:top;">:</td><td><div>None</div></td></tr><tr><td style="font-weight:bold;vertical-align:top;">client</td><td style="vertical-align:top;">:</td><td><div>127.0.0.1</div></td></tr><tr><td style="font-weight:bold;vertical-align:top;">controller</td><td style="vertical-align:top;">:</td><td><div>cadastros</div></td></tr><tr><td style="font-weight:bold;vertical-align:top;">cookies</td><td style="vertical-align:top;">:</td><td><div><table><tr><td style="font-weight:bold;vertical-align:top;">session_id_admin</td><td style="vertical-align:top;">:</td><td><div>127.0.0.1-7e92ca97-4dfd-4b76-abda-8d0f27f57922<table><tr><td style="font-weight:bold;vertical-align:top;">comment</td><td style="vertical-align:top;">:</td><td><div></div></td></tr><tr><td style="font-weight:bold;vertical-align:top;">domain</td><td style="vertical-align:top;">:</td><td><div></div></td></tr><tr><td style="font-weight:bold;vertical-align:top;">expires</td><td style="vertical-align:top;">:</td><td><div></div></td></tr><tr><td style="font-weight:bold;vertical-align:top;">httponly</td><td style="vertical-align:top;">:</td><td><div></div></td></tr><tr><td style="font-weight:bold;vertical-align:top;">max-age</td><td style="vertical-align:top;">:</td><td><div></div></td></tr><tr><td style="font-weight:bold;vertical-align:top;">path</td><td style="vertical-align:top;">:</td><td><div></div></td></tr><tr><td style="font-weight:bold;vertical-align:top;">secure</td><td style="vertical-align:top;">:</td><td><div></div></td></tr><tr><td style="font-weight:bold;vertical-align:top;">version</td><td style="vertical-align:top;">:</td><td><div></div></td></tr></table></div></td></tr><tr><td style="font-weight:bold;vertical-align:top;">session_id_site_completo</td><td style="vertical-align:top;">:</td><td><div>127.0.0.1-f7dc9663-10bf-461b-b46c-28e80f5d1627<table><tr><td style="font-weight:bold;vertical-align:top;">comment</td><td style="vertical-align:top;">:</td><td><div></div></td></tr><tr><td style="font-weight:bold;vertical-align:top;">domain</td><td style="vertical-align:top;">:</td><td><div></div></td></tr><tr><td style="font-weight:bold;vertical-align:top;">expires</td><td style="vertical-align:top;">:</td><td><div></div></td></tr><tr><td style="font-weight:bold;vertical-align:top;">httponly</td><td style="vertical-align:top;">:</td><td><div></div></td></tr><tr><td style="font-weight:bold;vertical-align:top;">max-age</td><td style="vertical-align:top;">:</td><td><div></div></td></tr><tr><td style="font-weight:bold;vertical-align:top;">path</td><td style="vertical-align:top;">:</td><td><div></div></td></tr><tr><td style="font-weight:bold;vertical-align:top;">secure</td><td style="vertical-align:top;">:</td><td><div></div></td></tr><tr><td style="font-weight:bold;vertical-align:top;">version</td><td style="vertical-align:top;">:</td><td><div></div></td></tr></table></div></td></tr><tr><td style="font-weight:bold;vertical-align:top;">session_id_welcome</td><td style="vertical-align:top;">:</td><td><div>127.0.0.1-a8b28711-7196-4a64-b3dd-f3f803ee77f1<table><tr><td style="font-weight:bold;vertical-align:top;">comment</td><td style="vertical-align:top;">:</td><td><div></div></td></tr><tr><td style="font-weight:bold;vertical-align:top;">domain</td><td style="vertical-align:top;">:</td><td><div></div></td></tr><tr><td style="font-weight:bold;vertical-align:top;">expires</td><td style="vertical-align:top;">:</td><td><div></div></td></tr><tr><td style="font-weight:bold;vertical-align:top;">httponly</td><td style="vertical-align:top;">:</td><td><div></div></td></tr><tr><td style="font-weight:bold;vertical-align:top;">max-age</td><td style="vertical-align:top;">:</td><td><div></div></td></tr><tr><td style="font-weight:bold;vertical-align:top;">path</td><td style="vertical-align:top;">:</td><td><div></div></td></tr><tr><td style="font-weight:bold;vertical-align:top;">secure</td><td style="vertical-align:top;">:</td><td><div></div></td></tr><tr><td style="font-weight:bold;vertical-align:top;">version</td><td style="vertical-align:top;">:</td><td><div></div></td></tr></table></div></td></tr></table></div></td></tr><tr><td style="font-weight:bold;vertical-align:top;">env</td><td style="vertical-align:top;">:</td><td><div><table><tr><td style="font-weight:bold;vertical-align:top;">CONTENT_LENGTH</td><td style="vertical-align:top;">:</td><td><div>577</div></td></tr><tr><td style="font-weight:bold;vertical-align:top;">CONTENT_TYPE</td><td style="vertical-align:top;">:</td><td><div>multipart/form-data; boundary=----WebKitFormBoundaryQCLaCovw4aBPPSSk</div></td></tr><tr><td style="font-weight:bold;vertical-align:top;">HTTP_ACCEPT</td><td style="vertical-align:top;">:</td><td><div>text/html,application/xhtml+xml,application/xml;q=0.9,image/webp,*/*;q=0.8</div></td></tr><tr><td style="font-weight:bold;vertical-align:top;">HTTP_ACCEPT_ENCODING</td><td style="vertical-align:top;">:</td><td><div>gzip, deflate</div></td></tr><tr><td style="font-weight:bold;vertical-align:top;">HTTP_ACCEPT_LANGUAGE</td><td style="vertical-align:top;">:</td><td><div>pt-BR,pt;q=0.8,en-US;q=0.6,en;q=0.4</div></td></tr><tr><td style="font-weight:bold;vertical-align:top;">HTTP_CACHE_CONTROL</td><td style="vertical-align:top;">:</td><td><div>max-age=0</div></td></tr><tr><td style="font-weight:bold;vertical-align:top;">HTTP_CONNECTION</td><td style="vertical-align:top;">:</td><td><div>keep-alive</div></td></tr><tr><td style="font-weight:bold;vertical-align:top;">HTTP_CONTENT_LENGTH</td><td style="vertical-align:top;">:</td><td><div>577</div></td></tr><tr><td style="font-weight:bold;vertical-align:top;">HTTP_CONTENT_TYPE</td><td style="vertical-align:top;">:</td><td><div>multipart/form-data; boundary=----WebKitFormBoundaryQCLaCovw4aBPPSSk</div></td></tr><tr><td style="font-weight:bold;vertical-align:top;">HTTP_COOKIE</td><td style="vertical-align:top;">:</td><td><div>session_id_welcome=127.0.0.1-a8b28711-7196-4a64-b3dd-f3f803ee77f1; session_id_admin=127.0.0.1-7e92ca97-4dfd-4b76-abda-8d0f27f57922; session_id_site_completo=127.0.0.1-f7dc9663-10bf-461b-b46c-28e80f5d1627</div></td></tr><tr><td style="font-weight:bold;vertical-align:top;">HTTP_HOST</td><td style="vertical-align:top;">:</td><td><div>127.0.0.1:8000</div></td></tr><tr><td style="font-weight:bold;vertical-align:top;">HTTP_ORIGIN</td><td style="vertical-align:top;">:</td><td><div>http://127.0.0.1:8000</div></td></tr><tr><td style="font-weight:bold;vertical-align:top;">HTTP_REFERER</td><td style="vertical-align:top;">:</td><td><div>http://127.0.0.1:8000/site_completo/cadastros/tipo_usuario_crud</div></td></tr><tr><td style="font-weight:bold;vertical-align:top;">HTTP_UPGRADE_INSECURE_REQUESTS</td><td style="vertical-align:top;">:</td><td><div>1</div></td></tr><tr><td style="font-weight:bold;vertical-align:top;">HTTP_USER_AGENT</td><td style="vertical-align:top;">:</td><td><div>Mozilla/5.0 (Windows NT 6.1; WOW64) AppleWebKit/537.36 (KHTML, like Gecko) Chrome/44.0.2403.107 Safari/537.36</div></td></tr><tr><td style="font-weight:bold;vertical-align:top;">PATH_INFO</td><td style="vertical-align:top;">:</td><td><div>/site_completo/cadastros/tipo_usuario_crud</div></td></tr><tr><td style="font-weight:bold;vertical-align:top;">QUERY_STRING</td><td style="vertical-align:top;">:</td><td><div></div></td></tr><tr><td style="font-weight:bold;vertical-align:top;">REMOTE_ADDR</td><td style="vertical-align:top;">:</td><td><div>127.0.0.1</div></td></tr><tr><td style="font-weight:bold;vertical-align:top;">REMOTE_PORT</td><td style="vertical-align:top;">:</td><td><div>50147</div></td></tr><tr><td style="font-weight:bold;vertical-align:top;">REQUEST_METHOD</td><td style="vertical-align:top;">:</td><td><div>POST</div></td></tr><tr><td style="font-weight:bold;vertical-align:top;">SCRIPT_NAME</td><td style="vertical-align:top;">:</td><td><div></div></td></tr><tr><td style="font-weight:bold;vertical-align:top;">SERVER_NAME</td><td style="vertical-align:top;">:</td><td><div>TecSUS-3-PC</div></td></tr><tr><td style="font-weight:bold;vertical-align:top;">SERVER_PORT</td><td style="vertical-align:top;">:</td><td><div>8000</div></td></tr><tr><td style="font-weight:bold;vertical-align:top;">SERVER_PROTOCOL</td><td style="vertical-align:top;">:</td><td><div>HTTP/1.1</div></td></tr><tr><td style="font-weight:bold;vertical-align:top;">SERVER_SOFTWARE</td><td style="vertical-align:top;">:</td><td><div>Rocket 1.2.6</div></td></tr><tr><td style="font-weight:bold;vertical-align:top;">app_folders</td><td style="vertical-align:top;">:</td><td><div>set([&#x27;C:\\\\Users\\\\TecSUS-3\\\\Desktop\\\\template_site\\\\web2py\\\\applications\\\\admin\\\\&#x27;, &#x27;C:\\\\Users\\\\TecSUS-3\\\\Desktop\\\\template_site\\\\web2py\\\\applications\\\\welcome\\\\&#x27;, &#x27;C:\\\\Users\\\\TecSUS-3\\\\Desktop\\\\template_site\\\\web2py\\\\applications\\\\site_completo\\\\&#x27;])</div></td></tr><tr><td style="font-weight:bold;vertical-align:top;">applications_parent</td><td style="vertical-align:top;">:</td><td><div>C:\\Users\\TecSUS-3\\Desktop\\template_site\\web2py</div></td></tr><tr><td style="font-weight:bold;vertical-align:top;">cmd_args</td><td style="vertical-align:top;">:</td><td><div><table></table></div></td></tr><tr><td style="font-weight:bold;vertical-align:top;">cmd_options</td><td style="vertical-align:top;">:</td><td><div>&lt;Values at 0x36c7cb0: {&#x27;verbose&#x27;: False, &#x27;ip&#x27;: &#x27;127.0.0.1&#x27;, &#x27;debuglevel&#x27;: 30, &#x27;with_scheduler&#x27;: False, &#x27;ips&#x27;: [&#x27;192.241.173.135&#x27;], &#x27;shutdown_timeout&#x27;: 5, &#x27;taskbar&#x27;: False, &#x27;with_coverage&#x27;: False, &#x27;scheduler_groups&#x27;: None, &#x27;port&#x27;: 8000, &#x27;maxthreads&#x27;: None, &#x27;softcron&#x27;: False, &#x27;server_name&#x27;: &#x27;TecSUS-3-PC&#x27;, &#x27;bpython&#x27;: False, &#x27;nogui&#x27;: False, &#x27;pid_filename&#x27;: &#x27;httpserver.pid&#x27;, &#x27;print_errors&#x27;: False, &#x27;extcron&#x27;: False, &#x27;runcron&#x27;: False, &#x27;run_system_tests&#x27;: False, &#x27;test&#x27;: None, &#x27;folder&#x27;: &#x27;C:\\\\Users\\\\TecSUS-3\\\\Desktop\\\\template_site\\\\web2py&#x27;, &#x27;config&#x27;: &#x27;&#x27;, &#x27;minthreads&#x27;: None, &#x27;shell&#x27;: None, &#x27;run&#x27;: &#x27;&#x27;, &#x27;log_filename&#x27;: &#x27;httpserver.log&#x27;, &#x27;profiler_dir&#x27;: None, &#x27;args&#x27;: [&#x27;&#x27;], &#x27;socket_timeout&#x27;: 5, &#x27;ssl_ca_certificate&#x27;: None, &#x27;scheduler&#x27;: None, &#x27;interfaces&#x27;: None, &#x27;ssl_private_key&#x27;: &#x27;&#x27;, &#x27;gae&#x27;: None, &#x27;password&#x27;: &#x27;&lt;ask&gt;&#x27;, &#x27;request_queue_size&#x27;: 5, &#x27;ssl_certificate&#x27;: &#x27;&#x27;, &#x27;cronjob&#x27;: False, &#x27;numthreads&#x27;: None, &#x27;quiet&#x27;: False, &#x27;import_models&#x27;: False, &#x27;timeout&#x27;: 10, &#x27;plain&#x27;: False, &#x27;nobanner&#x27;: False}&gt;</div></td></tr><tr><td style="font-weight:bold;vertical-align:top;">content_length</td><td style="vertical-align:top;">:</td><td><div>577</div></td></tr><tr><td style="font-weight:bold;vertical-align:top;">content_type</td><td style="vertical-align:top;">:</td><td><div>multipart/form-data; boundary=----WebKitFormBoundaryQCLaCovw4aBPPSSk</div></td></tr><tr><td style="font-weight:bold;vertical-align:top;">db_sessions</td><td style="vertical-align:top;">:</td><td><div>set([])</div></td></tr><tr><td style="font-weight:bold;vertical-align:top;">debugging</td><td style="vertical-align:top;">:</td><td><div>False</div></td></tr><tr><td style="font-weight:bold;vertical-align:top;">gluon_parent</td><td style="vertical-align:top;">:</td><td><div>C:\\Users\\TecSUS-3\\Desktop\\template_site\\web2py</div></td></tr><tr><td style="font-weight:bold;vertical-align:top;">http_accept</td><td style="vertical-align:top;">:</td><td><div>text/html,application/xhtml+xml,application/xml;q=0.9,image/webp,*/*;q=0.8</div></td></tr><tr><td style="font-weight:bold;vertical-align:top;">http_accept_encoding</td><td style="vertical-align:top;">:</td><td><div>gzip, deflate</div></td></tr><tr><td style="font-weight:bold;vertical-align:top;">http_accept_language</td><td style="vertical-align:top;">:</td><td><div>pt-BR,pt;q=0.8,en-US;q=0.6,en;q=0.4</div></td></tr><tr><td style="font-weight:bold;vertical-align:top;">http_cache_control</td><td style="vertical-align:top;">:</td><td><div>max-age=0</div></td></tr><tr><td style="font-weight:bold;vertical-align:top;">http_connection</td><td style="vertical-align:top;">:</td><td><div>keep-alive</div></td></tr><tr><td style="font-weight:bold;vertical-align:top;">http_content_length</td><td style="vertical-align:top;">:</td><td><div>577</div></td></tr><tr><td style="font-weight:bold;vertical-align:top;">http_content_type</td><td style="vertical-align:top;">:</td><td><div>multipart/form-data; boundary=----WebKitFormBoundaryQCLaCovw4aBPPSSk</div></td></tr><tr><td style="font-weight:bold;vertical-align:top;">http_cookie</td><td style="vertical-align:top;">:</td><td><div>session_id_welcome=127.0.0.1-a8b28711-7196-4a64-b3dd-f3f803ee77f1; session_id_admin=127.0.0.1-7e92ca97-4dfd-4b76-abda-8d0f27f57922; session_id_site_completo=127.0.0.1-f7dc9663-10bf-461b-b46c-28e80f5d1627</div></td></tr><tr><td style="font-weight:bold;vertical-align:top;">http_host</td><td style="vertical-align:top;">:</td><td><div>127.0.0.1:8000</div></td></tr><tr><td style="font-weight:bold;vertical-align:top;">http_origin</td><td style="vertical-align:top;">:</td><td><div>http://127.0.0.1:8000</div></td></tr><tr><td style="font-weight:bold;vertical-align:top;">http_referer</td><td style="vertical-align:top;">:</td><td><div>http://127.0.0.1:8000/site_completo/cadastros/tipo_usuario_crud</div></td></tr><tr><td style="font-weight:bold;vertical-align:top;">http_upgrade_insecure_requests</td><td style="vertical-align:top;">:</td><td><div>1</div></td></tr><tr><td style="font-weight:bold;vertical-align:top;">http_user_agent</td><td style="vertical-align:top;">:</td><td><div>Mozilla/5.0 (Windows NT 6.1; WOW64) AppleWebKit/537.36 (KHTML, like Gecko) Chrome/44.0.2403.107 Safari/537.36</div></td></tr><tr><td style="font-weight:bold;vertical-align:top;">is_jython</td><td style="vertical-align:top;">:</td><td><div>False</div></td></tr><tr><td style="font-weight:bold;vertical-align:top;">is_pypy</td><td style="vertical-align:top;">:</td><td><div>False</div></td></tr><tr><td style="font-weight:bold;vertical-align:top;">is_source</td><td style="vertical-align:top;">:</td><td><div>True</div></td></tr><tr><td style="font-weight:bold;vertical-align:top;">local_hosts</td><td style="vertical-align:top;">:</td><td><div><table><tr><td><div>192.241.173.135</div></td></tr><tr><td><div>fe80::487:2eff:2cf4:8cd6%11</div></td></tr><tr><td><div>TecSUS-3-PC</div></td></tr><tr><td><div>TecSUS-3-PC.tecsus.com.br</div></td></tr><tr><td><div>::ffff:127.0.0.1</div></td></tr><tr><td><div>::1</div></td></tr><tr><td><div>192.168.0.13</div></td></tr><tr><td><div>127.0.0.1</div></td></tr><tr><td><div>fe80::5efe:192.168.0.13%12</div></td></tr></table></div></td></tr><tr><td style="font-weight:bold;vertical-align:top;">path_info</td><td style="vertical-align:top;">:</td><td><div>/site_completo/cadastros/tipo_usuario_crud</div></td></tr><tr><td style="font-weight:bold;vertical-align:top;">query_string</td><td style="vertical-align:top;">:</td><td><div></div></td></tr><tr><td style="font-weight:bold;vertical-align:top;">remote_addr</td><td style="vertical-align:top;">:</td><td><div>127.0.0.1</div></td></tr><tr><td style="font-weight:bold;vertical-align:top;">remote_port</td><td style="vertical-align:top;">:</td><td><div>50147</div></td></tr><tr><td style="font-weight:bold;vertical-align:top;">request_method</td><td style="vertical-align:top;">:</td><td><div>POST</div></td></tr><tr><td style="font-weight:bold;vertical-align:top;">request_uri</td><td style="vertical-align:top;">:</td><td><div>/site_completo/cadastros/tipo_usuario_crud</div></td></tr><tr><td style="font-weight:bold;vertical-align:top;">script_name</td><td style="vertical-align:top;">:</td><td><div></div></td></tr><tr><td style="font-weight:bold;vertical-align:top;">server_name</td><td style="vertical-align:top;">:</td><td><div>TecSUS-3-PC</div></td></tr><tr><td style="font-weight:bold;vertical-align:top;">server_port</td><td style="vertical-align:top;">:</td><td><div>8000</div></td></tr><tr><td style="font-weight:bold;vertical-align:top;">server_protocol</td><td style="vertical-align:top;">:</td><td><div>HTTP/1.1</div></td></tr><tr><td style="font-weight:bold;vertical-align:top;">server_software</td><td style="vertical-align:top;">:</td><td><div>Rocket 1.2.6</div></td></tr><tr><td style="font-weight:bold;vertical-align:top;">web2py_path</td><td style="vertical-align:top;">:</td><td><div>C:\\Users\\TecSUS-3\\Desktop\\template_site\\web2py</div></td></tr><tr><td style="font-weight:bold;vertical-align:top;">web2py_version</td><td style="vertical-align:top;">:</td><td><div>2.10.4-stable+timestamp.2015.04.26.15.11.54</div></td></tr><tr><td style="font-weight:bold;vertical-align:top;">wsgi.errors</td><td style="vertical-align:top;">:</td><td><div>&lt;open file &#x27;&lt;stderr&gt;&#x27;, mode &#x27;w&#x27; at 0x01CCD0D0&gt;</div></td></tr><tr><td style="font-weight:bold;vertical-align:top;">wsgi.file_wrapper</td><td style="vertical-align:top;">:</td><td><div>&lt;class wsgiref.util.FileWrapper at 0x03662F10&gt;</div></td></tr><tr><td style="font-weight:bold;vertical-align:top;">wsgi.input</td><td style="vertical-align:top;">:</td><td><div>&lt;socket._fileobject object at 0x0A143DB0&gt;</div></td></tr><tr><td style="font-weight:bold;vertical-align:top;">wsgi.multiprocess</td><td style="vertical-align:top;">:</td><td><div>False</div></td></tr><tr><td style="font-weight:bold;vertical-align:top;">wsgi.multithread</td><td style="vertical-align:top;">:</td><td><div>True</div></td></tr><tr><td style="font-weight:bold;vertical-align:top;">wsgi.run_once</td><td style="vertical-align:top;">:</td><td><div>False</div></td></tr><tr><td style="font-weight:bold;vertical-align:top;">wsgi.url_scheme</td><td style="vertical-align:top;">:</td><td><div>http</div></td></tr><tr><td style="font-weight:bold;vertical-align:top;">wsgi.version</td><td style="vertical-align:top;">:</td><td><div><table><tr><td><div>1</div></td></tr><tr><td><div>0</div></td></tr></table></div></td></tr><tr><td style="font-weight:bold;vertical-align:top;">wsgi_errors</td><td style="vertical-align:top;">:</td><td><div>&lt;open file &#x27;&lt;stderr&gt;&#x27;, mode &#x27;w&#x27; at 0x01CCD0D0&gt;</div></td></tr><tr><td style="font-weight:bold;vertical-align:top;">wsgi_file_wrapper</td><td style="vertical-align:top;">:</td><td><div>&lt;class wsgiref.util.FileWrapper at 0x03662F10&gt;</div></td></tr><tr><td style="font-weight:bold;vertical-align:top;">wsgi_input</td><td style="vertical-align:top;">:</td><td><div>&lt;socket._fileobject object at 0x0A143DB0&gt;</div></td></tr><tr><td style="font-weight:bold;vertical-align:top;">wsgi_multiprocess</td><td style="vertical-align:top;">:</td><td><div>False</div></td></tr><tr><td style="font-weight:bold;vertical-align:top;">wsgi_multithread</td><td style="vertical-align:top;">:</td><td><div>True</div></td></tr><tr><td style="font-weight:bold;vertical-align:top;">wsgi_run_once</td><td style="vertical-align:top;">:</td><td><div>False</div></td></tr><tr><td style="font-weight:bold;vertical-align:top;">wsgi_url_scheme</td><td style="vertical-align:top;">:</td><td><div>http</div></td></tr><tr><td style="font-weight:bold;vertical-align:top;">wsgi_version</td><td style="vertical-align:top;">:</td><td><div><table><tr><td><div>1</div></td></tr><tr><td><div>0</div></td></tr></table></div></td></tr></table></div></td></tr><tr><td style="font-weight:bold;vertical-align:top;">extension</td><td style="vertical-align:top;">:</td><td><div>html</div></td></tr><tr><td style="font-weight:bold;vertical-align:top;">folder</td><td style="vertical-align:top;">:</td><td><div>C:\\Users\\TecSUS-3\\Desktop\\template_site\\web2py\\applications\\site_completo\\</div></td></tr><tr><td style="font-weight:bold;vertical-align:top;">function</td><td style="vertical-align:top;">:</td><td><div>tipo_usuario_crud</div></td></tr><tr><td style="font-weight:bold;vertical-align:top;">global_settings</td><td style="vertical-align:top;">:</td><td><div><table><tr><td style="font-weight:bold;vertical-align:top;">app_folders</td><td style="vertical-align:top;">:</td><td><div>set([&#x27;C:\\\\Users\\\\TecSUS-3\\\\Desktop\\\\template_site\\\\web2py\\\\applications\\\\admin\\\\&#x27;, &#x27;C:\\\\Users\\\\TecSUS-3\\\\Desktop\\\\template_site\\\\web2py\\\\applications\\\\welcome\\\\&#x27;, &#x27;C:\\\\Users\\\\TecSUS-3\\\\Desktop\\\\template_site\\\\web2py\\\\applications\\\\site_completo\\\\&#x27;])</div></td></tr><tr><td style="font-weight:bold;vertical-align:top;">applications_parent</td><td style="vertical-align:top;">:</td><td><div>C:\\Users\\TecSUS-3\\Desktop\\template_site\\web2py</div></td></tr><tr><td style="font-weight:bold;vertical-align:top;">cmd_args</td><td style="vertical-align:top;">:</td><td><div><table></table></div></td></tr><tr><td style="font-weight:bold;vertical-align:top;">cmd_options</td><td style="vertical-align:top;">:</td><td><div>&lt;Values at 0x36c7cb0: {&#x27;verbose&#x27;: False, &#x27;ip&#x27;: &#x27;127.0.0.1&#x27;, &#x27;debuglevel&#x27;: 30, &#x27;with_scheduler&#x27;: False, &#x27;ips&#x27;: [&#x27;192.241.173.135&#x27;], &#x27;shutdown_timeout&#x27;: 5, &#x27;taskbar&#x27;: False, &#x27;with_coverage&#x27;: False, &#x27;scheduler_groups&#x27;: None, &#x27;port&#x27;: 8000, &#x27;maxthreads&#x27;: None, &#x27;softcron&#x27;: False, &#x27;server_name&#x27;: &#x27;TecSUS-3-PC&#x27;, &#x27;bpython&#x27;: False, &#x27;nogui&#x27;: False, &#x27;pid_filename&#x27;: &#x27;httpserver.pid&#x27;, &#x27;print_errors&#x27;: False, &#x27;extcron&#x27;: False, &#x27;runcron&#x27;: False, &#x27;run_system_tests&#x27;: False, &#x27;test&#x27;: None, &#x27;folder&#x27;: &#x27;C:\\\\Users\\\\TecSUS-3\\\\Desktop\\\\template_site\\\\web2py&#x27;, &#x27;config&#x27;: &#x27;&#x27;, &#x27;minthreads&#x27;: None, &#x27;shell&#x27;: None, &#x27;run&#x27;: &#x27;&#x27;, &#x27;log_filename&#x27;: &#x27;httpserver.log&#x27;, &#x27;profiler_dir&#x27;: None, &#x27;args&#x27;: [&#x27;&#x27;], &#x27;socket_timeout&#x27;: 5, &#x27;ssl_ca_certificate&#x27;: None, &#x27;scheduler&#x27;: None, &#x27;interfaces&#x27;: None, &#x27;ssl_private_key&#x27;: &#x27;&#x27;, &#x27;gae&#x27;: None, &#x27;password&#x27;: &#x27;&lt;ask&gt;&#x27;, &#x27;request_queue_size&#x27;: 5, &#x27;ssl_certificate&#x27;: &#x27;&#x27;, &#x27;cronjob&#x27;: False, &#x27;numthreads&#x27;: None, &#x27;quiet&#x27;: False, &#x27;import_models&#x27;: False, &#x27;timeout&#x27;: 10, &#x27;plain&#x27;: False, &#x27;nobanner&#x27;: False}&gt;</div></td></tr><tr><td style="font-weight:bold;vertical-align:top;">db_sessions</td><td style="vertical-align:top;">:</td><td><div>set([])</div></td></tr><tr><td style="font-weight:bold;vertical-align:top;">debugging</td><td style="vertical-align:top;">:</td><td><div>False</div></td></tr><tr><td style="font-weight:bold;vertical-align:top;">gluon_parent</td><td style="vertical-align:top;">:</td><td><div>C:\\Users\\TecSUS-3\\Desktop\\template_site\\web2py</div></td></tr><tr><td style="font-weight:bold;vertical-align:top;">is_jython</td><td style="vertical-align:top;">:</td><td><div>False</div></td></tr><tr><td style="font-weight:bold;vertical-align:top;">is_pypy</td><td style="vertical-align:top;">:</td><td><div>False</div></td></tr><tr><td style="font-weight:bold;vertical-align:top;">is_source</td><td style="vertical-align:top;">:</td><td><div>True</div></td></tr><tr><td style="font-weight:bold;vertical-align:top;">local_hosts</td><td style="vertical-align:top;">:</td><td><div><table><tr><td><div>192.241.173.135</div></td></tr><tr><td><div>fe80::487:2eff:2cf4:8cd6%11</div></td></tr><tr><td><div>TecSUS-3-PC</div></td></tr><tr><td><div>TecSUS-3-PC.tecsus.com.br</div></td></tr><tr><td><div>::ffff:127.0.0.1</div></td></tr><tr><td><div>::1</div></td></tr><tr><td><div>192.168.0.13</div></td></tr><tr><td><div>127.0.0.1</div></td></tr><tr><td><div>fe80::5efe:192.168.0.13%12</div></td></tr></table></div></td></tr><tr><td style="font-weight:bold;vertical-align:top;">web2py_version</td><td style="vertical-align:top;">:</td><td><div>2.10.4-stable+timestamp.2015.04.26.15.11.54</div></td></tr></table></div></td></tr><tr><td style="font-weight:bold;vertical-align:top;">is_https</td><td style="vertical-align:top;">:</td><td><div>False</div></td></tr><tr><td style="font-weight:bold;vertical-align:top;">is_local</td><td style="vertical-align:top;">:</td><td><div>True</div></td></tr><tr><td style="font-weight:bold;vertical-align:top;">is_restful</td><td style="vertical-align:top;">:</td><td><div>False</div></td></tr><tr><td style="font-weight:bold;vertical-align:top;">is_sheduler</td><td style="vertical-align:top;">:</td><td><div>None</div></td></tr><tr><td style="font-weight:bold;vertical-align:top;">is_shell</td><td style="vertical-align:top;">:</td><td><div>None</div></td></tr><tr><td style="font-weight:bold;vertical-align:top;">now</td><td style="vertical-align:top;">:</td><td><div>datetime.datetime(2015, 7, 29, 11, 4, 17, 846000)</div></td></tr><tr><td style="font-weight:bold;vertical-align:top;">raw_args</td><td style="vertical-align:top;">:</td><td><div></div></td></tr><tr><td style="font-weight:bold;vertical-align:top;">raw_extension</td><td style="vertical-align:top;">:</td><td><div>None</div></td></tr><tr><td style="font-weight:bold;vertical-align:top;">url</td><td style="vertical-align:top;">:</td><td><div>/site_completo/cadastros/tipo_usuario_crud</div></td></tr><tr><td style="font-weight:bold;vertical-align:top;">utcnow</td><td style="vertical-align:top;">:</td><td><div>datetime.datetime(2015, 7, 29, 14, 4, 17, 846000)</div></td></tr><tr><td style="font-weight:bold;vertical-align:top;">uuid</td><td style="vertical-align:top;">:</td><td><div>site_completo/127.0.0.1.2015-07-29.11-04-17.091bd6ce-0991-41bb-8847-60105d737118</div></td></tr><tr><td style="font-weight:bold;vertical-align:top;">wsgi</td><td style="vertical-align:top;">:</td><td><div>&lt;gluon.main.LazyWSGI object at 0x0A1524D0&gt;</div></td></tr></table></div>'
tRp58
sS'frames'
p59
(lp60
(dp61
S'file'
p62
S'C:\\Users\\TecSUS-3\\Desktop\\template_site\\web2py\\gluon\\restricted.py'
p63
sS'dump'
p64
(dp65
S'environment'
p66
S"{'A': <class 'gluon.html.A'>, 'ANY_OF': <class 'gluon.validators.ANY_OF'>, 'ASSIGNJS': <function ASSIGNJS>, 'AppConfig': <function AppConfig>, 'Auth': <class 'gluon.tools.Auth'>, 'B': <class 'gluon.html.B'>, 'BEAUTIFY': <class 'gluon.html.BEAUTIFY'>, 'BODY': <class 'gluon.html.BODY'>, 'BR': <class 'gluon.html.BR'>, 'BUTTON': <class 'gluon.html.BUTTON'>, ...}"
p67
sS'ccode'
p68
S'<code object <module> at 0A197920, file "C:\\User...\\site_completo\\controllers/cadastros.py", line 1>'
p69
ssS'lnum'
p70
I227
sS'lines'
p71
(dp72
I224
S'            ccode = code'
p73
sI225
S'        else:'
p74
sI226
S'            ccode = compile2(code, layer)'
p75
sI227
S'        exec ccode in environment'
p76
sI228
S'    except HTTP:'
p77
sI229
S'        raise'
p78
sI230
S'    except RestrictedError:'
p79
sI231
S'        # do not encapsulate (obfuscate) the original RestrictedError'
p80
sI222
S'    try:'
p81
sI223
S'        if isinstance(code, types.CodeType):'
p82
ssS'call'
p83
S'(code="__author__ = \'TecSUS-3\'\\n\\ndef tipo_usuario_crud()...sponse._vars=response._caller(tipo_usuario_crud)\\n", environment={\'A\': <class \'gluon.html.A\'>, \'ANY_OF\': <class \'gluon.validators.ANY_OF\'>, \'ASSIGNJS\': <function ASSIGNJS>, \'AppConfig\': <function AppConfig>, \'Auth\': <class \'gluon.tools.Auth\'>, \'B\': <class \'gluon.html.B\'>, \'BEAUTIFY\': <class \'gluon.html.BEAUTIFY\'>, \'BODY\': <class \'gluon.html.BODY\'>, \'BR\': <class \'gluon.html.BR\'>, \'BUTTON\': <class \'gluon.html.BUTTON\'>, ...}, layer=r\'C:\\Users\\TecSUS-3\\Desktop\\template_site\\web2py\\applications\\site_completo\\controllers/cadastros.py\')'
p84
sS'func'
p85
S'restricted'
p86
sa(dp87
g62
S'C:\\Users\\TecSUS-3\\Desktop\\template_site\\web2py\\applications\\site_completo\\controllers\\cadastros.py'
p88
sg64
(dp89
sg70
I12
sg71
(dp90
I2
S''
sI3
S'def tipo_usuario_crud():'
p91
sI4
S'    """ Create a simple form using the CRUD function of web2py. """'
p92
sI5
S''
sI6
S'    #aqui ele formata tudo sozinho e ainda envia para o banco sozinho tamb\xc3\xa9m'
p93
sI7
S'    #mostra a mensagem de falha sozinho'
p94
sI8
S'    from gluon.tools import Crud'
p95
sI9
S'    crud = Crud(db)'
p96
sI10
S'    tipo_usuario_crud = crud.create(db.Tipo_Usuario)'
p97
sI11
S'    return locals()'
p98
ssg83
S'()'
p99
sg85
S'<module>'
p100
sa(dp101
g62
S'C:\\Users\\TecSUS-3\\Desktop\\template_site\\web2py\\gluon\\globals.py'
p102
sg64
(dp103
S'self'
p104
S'undefined'
p105
sS'f'
S'<function tipo_usuario_crud>'
p106
ssg70
I393
sg71
(dp107
I388
S"        self.flash = ''            # used by the default view layout"
p108
sI389
S'        self.meta = Storage()      # used by web2py_ajax.html'
p109
sI390
S'        self.menu = []             # used by the default view layout'
p110
sI391
S'        self.files = []            # used by web2py_ajax.html'
p111
sI392
S'        self._vars = None'
p112
sI393
S'        self._caller = lambda f: f()'
p113
sI394
S'        self._view_environment = None'
p114
sI395
S'        self._custom_commit = None'
p115
sI396
S'        self._custom_rollback = None'
p116
sI397
S"        self.generic_patterns = ['*']"
p117
ssg83
S'(f=<function tipo_usuario_crud>)'
p118
sg85
S'<lambda>'
p119
sa(dp120
g62
S'C:\\Users\\TecSUS-3\\Desktop\\template_site\\web2py\\applications\\site_completo\\controllers\\cadastros.py'
p121
sg64
(dp122
S'global db'
p123
S'<DAL uri="sqlite://storage.sqlite">'
p124
sS'crud.create'
p125
S'<bound method Crud.create of <gluon.tools.Crud object>>'
p126
sS'global tipo_usuario_crud'
p127
S'<function tipo_usuario_crud>'
p128
sS'crud'
p129
S'<gluon.tools.Crud object>'
p130
sS'db.tipo_usuario'
p131
g105
ssg70
I10
sg71
(dp132
I2
S''
sI3
S'def tipo_usuario_crud():'
p133
sI4
S'    """ Create a simple form using the CRUD function of web2py. """'
p134
sI5
S''
sI6
S'    #aqui ele formata tudo sozinho e ainda envia para o banco sozinho tamb\xc3\xa9m'
p135
sI7
S'    #mostra a mensagem de falha sozinho'
p136
sI8
S'    from gluon.tools import Crud'
p137
sI9
S'    crud = Crud(db)'
p138
sI10
S'    tipo_usuario_crud = crud.create(db.Tipo_Usuario)'
p139
sI11
S'    return locals()'
p140
ssg83
S'()'
p141
sg85
S'tipo_usuario_crud'
p142
sa(dp143
g62
S'C:\\Users\\TecSUS-3\\Desktop\\template_site\\web2py\\gluon\\tools.py'
p144
sg64
(dp145
S'attributes'
p146
g45
ssg70
I4138
sg71
(dp147
I4133
S'            onaccept=onaccept,'
p148
sI4134
S'            log=log,'
p149
sI4135
S'            message=message,'
p150
sI4136
S'            deletable=False,'
p151
sI4137
S'            formname=formname,'
p152
sI4138
S'            **attributes'
p153
sI4139
S'            )'
p154
sI4140
S''
sI4141
S'    def read(self, table, record):'
p155
sI4142
S'        if not (isinstance(table, Table) or table in self.db.tables) \\'
p156
ssg83
S"(self=<gluon.tools.Crud object>, table=<Table Tipo_Usuario (id,pessoa,tipo)>, next=None, onvalidation=<Storage {}>, onaccept=<Storage {}>, log='Record %(id)s created', message=<lazyT 'Record Created'>, formname=<function <lambda>>, **attributes={})"
p157
sg85
S'create'
p158
sa(dp159
g62
S'C:\\Users\\TecSUS-3\\Desktop\\template_site\\web2py\\gluon\\tools.py'
p160
sg64
(dp161
S'detect_record_change'
p162
g105
sS'self'
p163
S'<gluon.tools.Crud object>'
p164
sS'self.settings'
p165
S"<Storage {'showid': False, 'delete_onaccept': <S...ble': True, 'create_onvalidation': <Storage {}>}>"
p166
sS'self.settings.detect_record_change'
p167
S'True'
p168
ssg70
I4084
sg71
(dp169
I4079
S'        if isinstance(onvalidation, StorageList):'
p170
sI4080
S'            onvalidation = onvalidation.get(table._tablename, [])'
p171
sI4081
S'        if form.accepts(request, _session, formname=_formname,'
p172
sI4082
S'                        onvalidation=onvalidation, keepvalues=keepvalues,'
p173
sI4083
S'                        hideerror=self.settings.hideerror,'
p174
sI4084
S'                        detect_record_change=self.settings.detect_record_change):'
p175
sI4085
S'            self.accepted = True'
p176
sI4086
S'            response.flash = message'
p177
sI4087
S'            if log:'
p178
sI4088
S'                self.log_event(log, form.vars)'
p179
ssg83
S"(self=<gluon.tools.Crud object>, table=<Table Tipo_Usuario (id,pessoa,tipo)>, record=None, next=None, onvalidation=[], onaccept=<Storage {}>, ondelete=<Storage {}>, log='Record %(id)s created', message=<lazyT 'Record Created'>, deletable=False, formname=<function <lambda>>, **attributes={'hidden': {'_next': None}})"
p180
sg85
S'update'
p181
sa(dp182
g62
S'C:\\Users\\TecSUS-3\\Desktop\\template_site\\web2py\\gluon\\sqlhtml.py'
p183
sg64
(dp184
S'kwargs'
p185
g45
ssg70
I1472
sg71
(dp186
I1472
S'            **kwargs'
p187
sI1473
S'        )'
p188
sI1474
S''
sI1475
S'        self.deleted = \\'
p189
sI1476
S'            request_vars.get(self.FIELDNAME_REQUEST_DELETE, False)'
p190
sI1467
S'            session,'
p191
sI1468
S'            formname,'
p192
sI1469
S'            keepvalues,'
p193
sI1470
S'            onvalidation,'
p194
sI1471
S'            hideerror=hideerror,'
p195
ssg83
S"(self=<gluon.sqlhtml.SQLFORM object>, request_vars=<Storage {'pessoa': 'antenor', '_formkey': 'd971...po': 'gestor', '_formname': 'Tipo_Usuario/None'}>, session=<Storage {'_formkey[Tipo_Usuario/None]': []}>, formname='Tipo_Usuario/None', keepvalues=False, onvalidation=[], dbio=True, hideerror=False, detect_record_change=True, **kwargs={})"
p196
sg85
S'accepts'
p197
sa(dp198
g62
S'C:\\Users\\TecSUS-3\\Desktop\\template_site\\web2py\\gluon\\html.py'
p199
sg64
(dp200
S'status'
p201
g168
sS'self'
p202
S'<gluon.sqlhtml.SQLFORM object>'
p203
sS'self._traverse'
p204
S'<bound method SQLFORM._traverse of <gluon.sqlhtml.SQLFORM object>>'
p205
sS'hideerror'
p206
S'False'
p207
ssg70
I2119
sg71
(dp208
I2114
S'        if status and session:'
p209
sI2115
S'            # check if editing a record that has been modified by the server'
p210
sI2116
S"            if hasattr(self, 'record_hash') and self.record_hash != formkey.split(':')[0]:"
p211
sI2117
S'                status = False'
p212
sI2118
S'                self.record_changed = changed = True'
p213
sI2119
S'        status = self._traverse(status, hideerror)'
p214
sI2120
S'        status = self.assert_status(status, request_vars)'
p215
sI2121
S'        if onvalidation:'
p216
sI2122
S'            if isinstance(onvalidation, dict):'
p217
sI2123
S"                onsuccess = onvalidation.get('onsuccess', None)"
p218
ssg83
S"(self=<gluon.sqlhtml.SQLFORM object>, request_vars=<Storage {'pessoa': 'antenor', '_formkey': 'd971...po': 'gestor', '_formname': 'Tipo_Usuario/None'}>, session=<Storage {'_formkey[Tipo_Usuario/None]': []}>, formname='Tipo_Usuario/None', keepvalues=False, onvalidation=[], hideerror=False, **kwargs={})"
p219
sg85
g197
sa(dp220
g62
S'C:\\Users\\TecSUS-3\\Desktop\\template_site\\web2py\\gluon\\html.py'
p221
sg64
(dp222
S'status'
p223
g168
sS'newstatus'
p224
g168
sS'c'
S'<gluon.html.TABLE object>'
p225
sS'hideerror'
p226
g207
sS'c._traverse'
p227
S'<bound method TABLE._traverse of <gluon.html.TABLE object>>'
p228
ssg70
I885
sg71
(dp229
I880
S'                c.latest = self.latest'
p230
sI881
S'                c.session = self.session'
p231
sI882
S'                c.formname = self.formname'
p232
sI883
S"                if not c.attributes.get('hideerror'):"
p233
sI884
S"                    c['hideerror'] = hideerror or self.attributes.get('hideerror')"
p234
sI885
S'                newstatus = c._traverse(status, hideerror) and newstatus'
p235
sI886
S''
sI887
S'        # for input, textarea, select, option'
p236
sI888
S"        # deal with 'value' and 'validation'"
p237
sI889
S''
ssg83
S'(self=<gluon.sqlhtml.SQLFORM object>, status=True, hideerror=False)'
p238
sg85
S'_traverse'
p239
sa(dp240
g62
S'C:\\Users\\TecSUS-3\\Desktop\\template_site\\web2py\\gluon\\html.py'
p241
sg64
(dp242
S'status'
p243
g168
sS'newstatus'
p244
g168
sS'c'
S'<gluon.html.TR object>'
p245
sS'hideerror'
p246
g207
sS'c._traverse'
p247
S'<bound method TR._traverse of <gluon.html.TR object>>'
p248
ssg70
I885
sg71
(dp249
I880
S'                c.latest = self.latest'
p250
sI881
S'                c.session = self.session'
p251
sI882
S'                c.formname = self.formname'
p252
sI883
S"                if not c.attributes.get('hideerror'):"
p253
sI884
S"                    c['hideerror'] = hideerror or self.attributes.get('hideerror')"
p254
sI885
S'                newstatus = c._traverse(status, hideerror) and newstatus'
p255
sI886
S''
sI887
S'        # for input, textarea, select, option'
p256
sI888
S"        # deal with 'value' and 'validation'"
p257
sI889
S''
ssg83
S'(self=<gluon.html.TABLE object>, status=True, hideerror=False)'
p258
sg85
g239
sa(dp259
g62
S'C:\\Users\\TecSUS-3\\Desktop\\template_site\\web2py\\gluon\\html.py'
p260
sg64
(dp261
S'status'
p262
g168
sS'newstatus'
p263
g168
sS'c'
S'<gluon.html.TD object>'
p264
sS'hideerror'
p265
g207
sS'c._traverse'
p266
S'<bound method TD._traverse of <gluon.html.TD object>>'
p267
ssg70
I885
sg71
(dp268
I880
S'                c.latest = self.latest'
p269
sI881
S'                c.session = self.session'
p270
sI882
S'                c.formname = self.formname'
p271
sI883
S"                if not c.attributes.get('hideerror'):"
p272
sI884
S"                    c['hideerror'] = hideerror or self.attributes.get('hideerror')"
p273
sI885
S'                newstatus = c._traverse(status, hideerror) and newstatus'
p274
sI886
S''
sI887
S'        # for input, textarea, select, option'
p275
sI888
S"        # deal with 'value' and 'validation'"
p276
sI889
S''
ssg83
S'(self=<gluon.html.TR object>, status=True, hideerror=False)'
p277
sg85
g239
sa(dp278
g62
S'C:\\Users\\TecSUS-3\\Desktop\\template_site\\web2py\\gluon\\html.py'
p279
sg64
(dp280
S'status'
p281
g168
sS'newstatus'
p282
g168
sS'c'
S'<gluon.html.INPUT object>'
p283
sS'hideerror'
p284
g207
sS'c._traverse'
p285
S'<bound method INPUT._traverse of <gluon.html.INPUT object>>'
p286
ssg70
I885
sg71
(dp287
I880
S'                c.latest = self.latest'
p288
sI881
S'                c.session = self.session'
p289
sI882
S'                c.formname = self.formname'
p290
sI883
S"                if not c.attributes.get('hideerror'):"
p291
sI884
S"                    c['hideerror'] = hideerror or self.attributes.get('hideerror')"
p292
sI885
S'                newstatus = c._traverse(status, hideerror) and newstatus'
p293
sI886
S''
sI887
S'        # for input, textarea, select, option'
p294
sI888
S"        # deal with 'value' and 'validation'"
p295
sI889
S''
ssg83
S'(self=<gluon.html.TD object>, status=True, hideerror=False)'
p296
sg85
g239
sa(dp297
g62
S'C:\\Users\\TecSUS-3\\Desktop\\template_site\\web2py\\gluon\\html.py'
p298
sg64
(dp299
S'newstatus'
p300
g168
sS'self'
p301
S'<gluon.html.INPUT object>'
p302
sS'self._validate'
p303
S'<bound method INPUT._validate of <gluon.html.INPUT object>>'
p304
ssg70
I892
sg71
(dp305
I896
S'            self._postprocessing()'
p306
sI887
S'        # for input, textarea, select, option'
p307
sI888
S"        # deal with 'value' and 'validation'"
p308
sI889
S''
sI890
S"        name = self['_name']"
p309
sI891
S'        if newstatus:'
p310
sI892
S'            newstatus = self._validate()'
p311
sI893
S'            self._postprocessing()'
p312
sI894
S"        elif 'old_value' in self.attributes:"
p313
sI895
S"            self['value'] = self['old_value']"
p314
ssg83
S'(self=<gluon.html.INPUT object>, status=True, hideerror=False)'
p315
sg85
g239
sa(dp316
g62
S'C:\\Users\\TecSUS-3\\Desktop\\template_site\\web2py\\gluon\\html.py'
p317
sg64
(dp318
S'builtinException'
p319
S"<type 'exceptions.Exception'>"
p320
sS'msg'
p321
S'"Validation error, field:pessoa <class \'gluon.validators.IS_NOT_EMPTY\'>"'
p322
ssg70
I1860
sg71
(dp323
I1856
S'                try:'
p324
sI1857
S'                    (value, errors) = validator(value)'
p325
sI1858
S'                except:'
p326
sI1859
S'                    msg = "Validation error, field:%s %s" % (name,validator)'
p327
sI1860
S'                    raise Exception(msg)'
p328
sI1861
S'                if not errors is None:'
p329
sI1862
S'                    self.vars[name] = value'
p330
sI1863
S'                    self.errors[name] = errors'
p331
sI1864
S'                    break'
p332
sI1855
S'            for k, validator in enumerate(requires):'
p333
ssg83
S'(self=<gluon.html.INPUT object>)'
p334
sg85
S'_validate'
p335
sasS'pyver'
p336
S'Python 2.7.8: C:\\Python27\\python.exe (prefix: C:\\Python27)'
p337
sS'session'
p338
g57
(S's\x1a\x00\x00\x00<div><table></table></div>'
tRp339
sS'etype'
p340
S"<type 'exceptions.Exception'>"
p341
sS'date'
p342
S'Wed Jul 29 11:04:18 2015'
p343
sS'response'
p344
g57
(S's\xbb@\x00\x00<div><table><tr><td style="font-weight:bold;vertical-align:top;">body</td><td style="vertical-align:top;">:</td><td><div>&lt;cStringIO.StringO object at 0x09B569E0&gt;</div></td></tr><tr><td style="font-weight:bold;vertical-align:top;">cookies</td><td style="vertical-align:top;">:</td><td><div><table><tr><td style="font-weight:bold;vertical-align:top;">session_id_site_completo</td><td style="vertical-align:top;">:</td><td><div>127.0.0.1-f7dc9663-10bf-461b-b46c-28e80f5d1627<table><tr><td style="font-weight:bold;vertical-align:top;">comment</td><td style="vertical-align:top;">:</td><td><div></div></td></tr><tr><td style="font-weight:bold;vertical-align:top;">domain</td><td style="vertical-align:top;">:</td><td><div></div></td></tr><tr><td style="font-weight:bold;vertical-align:top;">expires</td><td style="vertical-align:top;">:</td><td><div></div></td></tr><tr><td style="font-weight:bold;vertical-align:top;">httponly</td><td style="vertical-align:top;">:</td><td><div></div></td></tr><tr><td style="font-weight:bold;vertical-align:top;">max-age</td><td style="vertical-align:top;">:</td><td><div></div></td></tr><tr><td style="font-weight:bold;vertical-align:top;">path</td><td style="vertical-align:top;">:</td><td><div>/</div></td></tr><tr><td style="font-weight:bold;vertical-align:top;">secure</td><td style="vertical-align:top;">:</td><td><div></div></td></tr><tr><td style="font-weight:bold;vertical-align:top;">version</td><td style="vertical-align:top;">:</td><td><div></div></td></tr></table></div></td></tr></table></div></td></tr><tr><td style="font-weight:bold;vertical-align:top;">delimiters</td><td style="vertical-align:top;">:</td><td><div><table><tr><td><div>{{</div></td></tr><tr><td><div>}}</div></td></tr></table></div></td></tr><tr><td style="font-weight:bold;vertical-align:top;">files</td><td style="vertical-align:top;">:</td><td><div><table></table></div></td></tr><tr><td style="font-weight:bold;vertical-align:top;">flash</td><td style="vertical-align:top;">:</td><td><div></div></td></tr><tr><td style="font-weight:bold;vertical-align:top;">form_label_separator</td><td style="vertical-align:top;">:</td><td><div></div></td></tr><tr><td style="font-weight:bold;vertical-align:top;">formstyle</td><td style="vertical-align:top;">:</td><td><div>bootstrap3_inline</div></td></tr><tr><td style="font-weight:bold;vertical-align:top;">generic_patterns</td><td style="vertical-align:top;">:</td><td><div><table><tr><td><div>*</div></td></tr></table></div></td></tr><tr><td style="font-weight:bold;vertical-align:top;">google_analytics_id</td><td style="vertical-align:top;">:</td><td><div>None</div></td></tr><tr><td style="font-weight:bold;vertical-align:top;">headers</td><td style="vertical-align:top;">:</td><td><div><table><tr><td style="font-weight:bold;vertical-align:top;">X-Powered-By</td><td style="vertical-align:top;">:</td><td><div>web2py</div></td></tr></table></div></td></tr><tr><td style="font-weight:bold;vertical-align:top;">logo</td><td style="vertical-align:top;">:</td><td><div><a class="navbar-brand" href="http://www.web2py.com/" id="web2py-logo"><b>web<span>2</span>py</b>&trade;&nbsp;</a></div></td></tr><tr><td style="font-weight:bold;vertical-align:top;">menu</td><td style="vertical-align:top;">:</td><td><div><table><tr><td><div><table><tr><td><div>Principal</div></td></tr><tr><td><div>False</div></td></tr><tr><td><div>/site_completo/default/index</div></td></tr><tr><td><div><table></table></div></td></tr></table></div></td></tr><tr><td><div><table><tr><td><div>Meus sites</div></td></tr><tr><td><div>False</div></td></tr><tr><td><div>/admin/default/site</div></td></tr></table></div></td></tr><tr><td><div><table><tr><td><div>Esta aplica\xc3\xa7\xc3\xa3o</div></td></tr><tr><td><div>False</div></td></tr><tr><td><div>#</div></td></tr><tr><td><div><table><tr><td><div><table><tr><td><div>Design</div></td></tr><tr><td><div>False</div></td></tr><tr><td><div>/admin/default/design/site_completo</div></td></tr></table></div></td></tr><tr><td><div><li class="divider"></li></div></td></tr><tr><td><div><table><tr><td><div>Controlador</div></td></tr><tr><td><div>False</div></td></tr><tr><td><div>/admin/default/edit/site_completo/controllers/cadastros.py</div></td></tr></table></div></td></tr><tr><td><div><table><tr><td><div>Visualiza\xc3\xa7\xc3\xa3o</div></td></tr><tr><td><div>False</div></td></tr><tr><td><div>/admin/default/edit/site_completo/views/cadastros/tipo_usuario_crud.html</div></td></tr></table></div></td></tr><tr><td><div><table><tr><td><div>Modelo BD</div></td></tr><tr><td><div>False</div></td></tr><tr><td><div>/admin/default/edit/site_completo/models/db.py</div></td></tr></table></div></td></tr><tr><td><div><table><tr><td><div>Modelo de Menu</div></td></tr><tr><td><div>False</div></td></tr><tr><td><div>/admin/default/edit/site_completo/models/menu.py</div></td></tr></table></div></td></tr><tr><td><div><table><tr><td><div>Config.ini</div></td></tr><tr><td><div>False</div></td></tr><tr><td><div>/admin/default/edit/site_completo/private/appconfig.ini</div></td></tr></table></div></td></tr><tr><td><div><table><tr><td><div>Layout</div></td></tr><tr><td><div>False</div></td></tr><tr><td><div>/admin/default/edit/site_completo/views/layout.html</div></td></tr></table></div></td></tr><tr><td><div><table><tr><td><div>Folha de estilo</div></td></tr><tr><td><div>False</div></td></tr><tr><td><div>/admin/default/edit/site_completo/static/css/web2py-bootstrap3.css</div></td></tr></table></div></td></tr><tr><td><div><table><tr><td><div>banco de dados</div></td></tr><tr><td><div>False</div></td></tr><tr><td><div>/site_completo/appadmin/index</div></td></tr></table></div></td></tr><tr><td><div><table><tr><td><div>Erros</div></td></tr><tr><td><div>False</div></td></tr><tr><td><div>/admin/default/errors/site_completo</div></td></tr></table></div></td></tr><tr><td><div><table><tr><td><div>Sobre</div></td></tr><tr><td><div>False</div></td></tr><tr><td><div>/admin/default/about/site_completo</div></td></tr></table></div></td></tr></table></div></td></tr></table></div></td></tr><tr><td><div><table><tr><td><div>web2py.com</div></td></tr><tr><td><div>False</div></td></tr><tr><td><div>#</div></td></tr><tr><td><div><table><tr><td><div><table><tr><td><div>Download</div></td></tr><tr><td><div>False</div></td></tr><tr><td><div>http://www.web2py.com/examples/default/download</div></td></tr></table></div></td></tr><tr><td><div><table><tr><td><div>Suporte</div></td></tr><tr><td><div>False</div></td></tr><tr><td><div>http://www.web2py.com/examples/default/support</div></td></tr></table></div></td></tr><tr><td><div><table><tr><td><div>Demo</div></td></tr><tr><td><div>False</div></td></tr><tr><td><div>http://web2py.com/demo_admin</div></td></tr></table></div></td></tr><tr><td><div><table><tr><td><div>Exemplos r\xc3\xa1pidos</div></td></tr><tr><td><div>False</div></td></tr><tr><td><div>http://web2py.com/examples/default/examples</div></td></tr></table></div></td></tr><tr><td><div><table><tr><td><div>Perguntas frequentes</div></td></tr><tr><td><div>False</div></td></tr><tr><td><div>http://web2py.com/AlterEgo</div></td></tr></table></div></td></tr><tr><td><div><table><tr><td><div>V\xc3\xaddeos</div></td></tr><tr><td><div>False</div></td></tr><tr><td><div>http://www.web2py.com/examples/default/videos/</div></td></tr></table></div></td></tr><tr><td><div><table><tr><td><div>Aplica\xc3\xa7\xc3\xb5es gratuitas</div></td></tr><tr><td><div>False</div></td></tr><tr><td><div>http://web2py.com/appliances</div></td></tr></table></div></td></tr><tr><td><div><table><tr><td><div>Plugins</div></td></tr><tr><td><div>False</div></td></tr><tr><td><div>http://web2py.com/plugins</div></td></tr></table></div></td></tr><tr><td><div><table><tr><td><div>Receitas</div></td></tr><tr><td><div>False</div></td></tr><tr><td><div>http://web2pyslices.com/</div></td></tr></table></div></td></tr></table></div></td></tr></table></div></td></tr><tr><td><div><table><tr><td><div>Documenta\xc3\xa7\xc3\xa3o</div></td></tr><tr><td><div>False</div></td></tr><tr><td><div>#</div></td></tr><tr><td><div><table><tr><td><div><table><tr><td><div>Online book</div></td></tr><tr><td><div>False</div></td></tr><tr><td><div>http://www.web2py.com/book</div></td></tr></table></div></td></tr><tr><td><div><li class="divider"></li></div></td></tr><tr><td><div><table><tr><td><div>Pref\xc3\xa1cio</div></td></tr><tr><td><div>False</div></td></tr><tr><td><div>http://www.web2py.com/book/default/chapter/00</div></td></tr></table></div></td></tr><tr><td><div><table><tr><td><div>Introdu\xc3\xa7\xc3\xa3o</div></td></tr><tr><td><div>False</div></td></tr><tr><td><div>http://www.web2py.com/book/default/chapter/01</div></td></tr></table></div></td></tr><tr><td><div><table><tr><td><div>Python</div></td></tr><tr><td><div>False</div></td></tr><tr><td><div>http://www.web2py.com/book/default/chapter/02</div></td></tr></table></div></td></tr><tr><td><div><table><tr><td><div>Vis\xc3\xa3o Geral</div></td></tr><tr><td><div>False</div></td></tr><tr><td><div>http://www.web2py.com/book/default/chapter/03</div></td></tr></table></div></td></tr><tr><td><div><table><tr><td><div>The Core</div></td></tr><tr><td><div>False</div></td></tr><tr><td><div>http://www.web2py.com/book/default/chapter/04</div></td></tr></table></div></td></tr><tr><td><div><table><tr><td><div>As views</div></td></tr><tr><td><div>False</div></td></tr><tr><td><div>http://www.web2py.com/book/default/chapter/05</div></td></tr></table></div></td></tr><tr><td><div><table><tr><td><div>banco de dados</div></td></tr><tr><td><div>False</div></td></tr><tr><td><div>http://www.web2py.com/book/default/chapter/06</div></td></tr></table></div></td></tr><tr><td><div><table><tr><td><div>Formul\xc3\xa1rios e Validadores</div></td></tr><tr><td><div>False</div></td></tr><tr><td><div>http://www.web2py.com/book/default/chapter/07</div></td></tr></table></div></td></tr><tr><td><div><table><tr><td><div>Email e SMS</div></td></tr><tr><td><div>False</div></td></tr><tr><td><div>http://www.web2py.com/book/default/chapter/08</div></td></tr></table></div></td></tr><tr><td><div><table><tr><td><div>Controle de Acesso</div></td></tr><tr><td><div>False</div></td></tr><tr><td><div>http://www.web2py.com/book/default/chapter/09</div></td></tr></table></div></td></tr><tr><td><div><table><tr><td><div>Servi\xc3\xa7o</div></td></tr><tr><td><div>False</div></td></tr><tr><td><div>http://www.web2py.com/book/default/chapter/10</div></td></tr></table></div></td></tr><tr><td><div><table><tr><td><div>Receitas de Ajax</div></td></tr><tr><td><div>False</div></td></tr><tr><td><div>http://www.web2py.com/book/default/chapter/11</div></td></tr></table></div></td></tr><tr><td><div><table><tr><td><div>Componentes e Plugins</div></td></tr><tr><td><div>False</div></td></tr><tr><td><div>http://www.web2py.com/book/default/chapter/12</div></td></tr></table></div></td></tr><tr><td><div><table><tr><td><div>Receitas de deploy</div></td></tr><tr><td><div>False</div></td></tr><tr><td><div>http://www.web2py.com/book/default/chapter/13</div></td></tr></table></div></td></tr><tr><td><div><table><tr><td><div>Outras Receitas</div></td></tr><tr><td><div>False</div></td></tr><tr><td><div>http://www.web2py.com/book/default/chapter/14</div></td></tr></table></div></td></tr><tr><td><div><table><tr><td><div>Helping web2py</div></td></tr><tr><td><div>False</div></td></tr><tr><td><div>http://www.web2py.com/book/default/chapter/15</div></td></tr></table></div></td></tr><tr><td><div><table><tr><td><div>Buy web2py\'s book</div></td></tr><tr><td><div>False</div></td></tr><tr><td><div>http://stores.lulu.com/web2py</div></td></tr></table></div></td></tr></table></div></td></tr></table></div></td></tr><tr><td><div><table><tr><td><div>Comunidade</div></td></tr><tr><td><div>False</div></td></tr><tr><td><div>None</div></td></tr><tr><td><div><table><tr><td><div><table><tr><td><div>Grupos</div></td></tr><tr><td><div>False</div></td></tr><tr><td><div>http://www.web2py.com/examples/default/usergroups</div></td></tr></table></div></td></tr><tr><td><div><table><tr><td><div>Twitter</div></td></tr><tr><td><div>False</div></td></tr><tr><td><div>http://twitter.com/web2py</div></td></tr></table></div></td></tr><tr><td><div><table><tr><td><div>Chat ao vivo</div></td></tr><tr><td><div>False</div></td></tr><tr><td><div>http://webchat.freenode.net/?channels=web2py</div></td></tr></table></div></td></tr></table></div></td></tr></table></div></td></tr></table></div></td></tr><tr><td style="font-weight:bold;vertical-align:top;">meta</td><td style="vertical-align:top;">:</td><td><div><table><tr><td style="font-weight:bold;vertical-align:top;">author</td><td style="vertical-align:top;">:</td><td><div>Your Name &lt;you@example.com&gt;</div></td></tr><tr><td style="font-weight:bold;vertical-align:top;">description</td><td style="vertical-align:top;">:</td><td><div>a cool new app</div></td></tr><tr><td style="font-weight:bold;vertical-align:top;">generator</td><td style="vertical-align:top;">:</td><td><div>Web2py Web Framework</div></td></tr><tr><td style="font-weight:bold;vertical-align:top;">keywords</td><td style="vertical-align:top;">:</td><td><div>web2py, python, framework</div></td></tr></table></div></td></tr><tr><td style="font-weight:bold;vertical-align:top;">models_to_run</td><td style="vertical-align:top;">:</td><td><div><table><tr><td><div>^\\w+\\.py$</div></td></tr><tr><td><div>^cadastros/\\w+\\.py$</div></td></tr><tr><td><div>^cadastros/tipo_usuario_crud/\\w+\\.py$</div></td></tr></table></div></td></tr><tr><td style="font-weight:bold;vertical-align:top;">postprocessing</td><td style="vertical-align:top;">:</td><td><div><table></table></div></td></tr><tr><td style="font-weight:bold;vertical-align:top;">session_client</td><td style="vertical-align:top;">:</td><td><div>127.0.0.1</div></td></tr><tr><td style="font-weight:bold;vertical-align:top;">session_cookie_compression_level</td><td style="vertical-align:top;">:</td><td><div>None</div></td></tr><tr><td style="font-weight:bold;vertical-align:top;">session_cookie_expires</td><td style="vertical-align:top;">:</td><td><div>None</div></td></tr><tr><td style="font-weight:bold;vertical-align:top;">session_cookie_key</td><td style="vertical-align:top;">:</td><td><div>None</div></td></tr><tr><td style="font-weight:bold;vertical-align:top;">session_data_name</td><td style="vertical-align:top;">:</td><td><div>session_data_site_completo</div></td></tr><tr><td style="font-weight:bold;vertical-align:top;">session_file</td><td style="vertical-align:top;">:</td><td><div>&lt;open file &#x27;C:\\\\Users\\\\TecSUS-3\\\\Desktop\\\\template_site\\\\web2py\\\\applications\\\\site_completo\\\\sessions\\\\00f\\\\1ec\\\\127.0.0.1-f7dc9663-10bf-461b-b46c-28e80f5d1627&#x27;, mode &#x27;rb+&#x27; at 0x0A0F5EE8&gt;</div></td></tr><tr><td style="font-weight:bold;vertical-align:top;">session_filename</td><td style="vertical-align:top;">:</td><td><div>C:\\Users\\TecSUS-3\\Desktop\\template_site\\web2py\\applications\\site_completo\\sessions\\127.0.0.1-f7dc9663-10bf-461b-b46c-28e80f5d1627</div></td></tr><tr><td style="font-weight:bold;vertical-align:top;">session_hash</td><td style="vertical-align:top;">:</td><td><div>ca373c7bcc0bf116124bd4cee451de38</div></td></tr><tr><td style="font-weight:bold;vertical-align:top;">session_id</td><td style="vertical-align:top;">:</td><td><div>127.0.0.1-f7dc9663-10bf-461b-b46c-28e80f5d1627</div></td></tr><tr><td style="font-weight:bold;vertical-align:top;">session_id_name</td><td style="vertical-align:top;">:</td><td><div>session_id_site_completo</div></td></tr><tr><td style="font-weight:bold;vertical-align:top;">session_locked</td><td style="vertical-align:top;">:</td><td><div>True</div></td></tr><tr><td style="font-weight:bold;vertical-align:top;">session_masterapp</td><td style="vertical-align:top;">:</td><td><div>site_completo</div></td></tr><tr><td style="font-weight:bold;vertical-align:top;">session_new</td><td style="vertical-align:top;">:</td><td><div>False</div></td></tr><tr><td style="font-weight:bold;vertical-align:top;">session_storage_type</td><td style="vertical-align:top;">:</td><td><div>file</div></td></tr><tr><td style="font-weight:bold;vertical-align:top;">status</td><td style="vertical-align:top;">:</td><td><div>200</div></td></tr><tr><td style="font-weight:bold;vertical-align:top;">subtitle</td><td style="vertical-align:top;">:</td><td><div></div></td></tr><tr><td style="font-weight:bold;vertical-align:top;">title</td><td style="vertical-align:top;">:</td><td><div>Site Completo</div></td></tr><tr><td style="font-weight:bold;vertical-align:top;">view</td><td style="vertical-align:top;">:</td><td><div>cadastros/tipo_usuario_crud.html</div></td></tr></table></div>'
tRp345
sS'locals'
p346
(dp347
S'name'
p348
S"'pessoa'"
p349
sS'k'
S'0'
sS'value'
p350
S"'antenor'"
p351
sS'validator'
p352
S"<class 'gluon.validators.IS_NOT_EMPTY'>"
p353
sS'msg'
p354
S'"Validation error, field:pessoa <class \'gluon.validators.IS_NOT_EMPTY\'>"'
p355
sS'request_vars_get'
p356
S'<built-in method get of Storage object>'
p357
sS'requires'
p358
S"[<class 'gluon.validators.IS_NOT_EMPTY'>]"
p359
sS'self'
p360
S'<gluon.html.INPUT object>'
p361
sssS'traceback'
p362
S'Traceback (most recent call last):\n  File "C:\\Users\\TecSUS-3\\Desktop\\template_site\\web2py\\gluon\\restricted.py", line 227, in restricted\n    exec ccode in environment\n  File "C:\\Users\\TecSUS-3\\Desktop\\template_site\\web2py\\applications\\site_completo\\controllers/cadastros.py", line 12, in <module>\n  File "C:\\Users\\TecSUS-3\\Desktop\\template_site\\web2py\\gluon\\globals.py", line 393, in <lambda>\n    self._caller = lambda f: f()\n  File "C:\\Users\\TecSUS-3\\Desktop\\template_site\\web2py\\applications\\site_completo\\controllers/cadastros.py", line 10, in tipo_usuario_crud\n    tipo_usuario_crud = crud.create(db.Tipo_Usuario)\n  File "C:\\Users\\TecSUS-3\\Desktop\\template_site\\web2py\\gluon\\tools.py", line 4138, in create\n    **attributes\n  File "C:\\Users\\TecSUS-3\\Desktop\\template_site\\web2py\\gluon\\tools.py", line 4084, in update\n    detect_record_change=self.settings.detect_record_change):\n  File "C:\\Users\\TecSUS-3\\Desktop\\template_site\\web2py\\gluon\\sqlhtml.py", line 1472, in accepts\n    **kwargs\n  File "C:\\Users\\TecSUS-3\\Desktop\\template_site\\web2py\\gluon\\html.py", line 2119, in accepts\n    status = self._traverse(status, hideerror)\n  File "C:\\Users\\TecSUS-3\\Desktop\\template_site\\web2py\\gluon\\html.py", line 885, in _traverse\n    newstatus = c._traverse(status, hideerror) and newstatus\n  File "C:\\Users\\TecSUS-3\\Desktop\\template_site\\web2py\\gluon\\html.py", line 885, in _traverse\n    newstatus = c._traverse(status, hideerror) and newstatus\n  File "C:\\Users\\TecSUS-3\\Desktop\\template_site\\web2py\\gluon\\html.py", line 885, in _traverse\n    newstatus = c._traverse(status, hideerror) and newstatus\n  File "C:\\Users\\TecSUS-3\\Desktop\\template_site\\web2py\\gluon\\html.py", line 885, in _traverse\n    newstatus = c._traverse(status, hideerror) and newstatus\n  File "C:\\Users\\TecSUS-3\\Desktop\\template_site\\web2py\\gluon\\html.py", line 892, in _traverse\n    newstatus = self._validate()\n  File "C:\\Users\\TecSUS-3\\Desktop\\template_site\\web2py\\gluon\\html.py", line 1860, in _validate\n    raise Exception(msg)\nException: Validation error, field:pessoa <class \'gluon.validators.IS_NOT_EMPTY\'>\n'
p363
s.