(dp1
S'output'
p2
S"<type 'exceptions.ValueError'> could not convert string to float: tes"
p3
sS'layer'
p4
S'C:\\Users\\TecSUS-3\\Desktop\\template_site\\web2py\\applications\\tecsus_Showcase\\controllers/forms.py'
p5
sS'code'
p6
S'# -*- coding: utf-8 -*-\n\n####################################### IMPORTS #######################################\nfrom gluon import A, INPUT, IS_NOT_EMPTY, SQLFORM, URL, TR, TABLE, FORM, IS_LIST_OF, IS_IN_DB, redirect\nfrom gluon import Field\n\n\n####################################### GLOBALS #######################################\nglobal request, session, db, response\n\n\n####################################### ACTIONS #######################################\ndef car_model_form():\n    """\n    Creates a form using web2py helpers.\n\n    This is the most manual method of creating a form. It allows\n    the specification of every aspect of the resulting html\n    elements.\n\n    Some notes:\n        Validators must be specified during the INPUT fields creation.\n        form.accepts() must be called to process the form.\n        Database insertion must be handled manually.\n    """\n\n    # Must repeat the field validators declared in the db.py\n    car_model_input=INPUT(_name=\'car_model\', requires=IS_NOT_EMPTY())\n    base_price_input=INPUT(_name=\'base_price\', requires=IS_NOT_EMPTY())\n\n    # Manual creation of the html table\n    table_rows = []\n    table_rows.append(TR(\'Car Model:\', car_model_input))\n    table_rows.append(TR(\'Base Price:\', base_price_input))\n    # Fields starting with _ are passed to the html as attribute elements\n    table_rows.append(TR(TD(INPUT(_type=\'submit\'), _colspan=\'2\', _align=\'center\')))\n    table = TABLE(table_rows)\n\n    form = FORM(table)\n\n    # Processing the form submition\n    if form.accepts(request,session):\n        # Retriving the form fields\n        form_car_model = form.vars.car_model\n        form_base_price = form.vars.base_price\n        # Inserting in the database\n        db.car_model.insert(car_model=form_car_model, car_base_price=form_base_price)\n        # Tell the user about the insertion\n        response.flash = \'New car: \' + form_car_model\n    elif form.errors:\n        response.flash = \'Form has errors\'\n    else:\n        response.flash = \'Please fill the form\'\n\n    return dict(car_model_form=form)\n\n\ndef vendor_sqlform():\n    """\n    Create a simple form using the SQLFORM function of web2py.\n\n    Some notes:\n        The accepts function validates each field and write the results to de database.\n    """\n\n    vendor_sqlform = SQLFORM(db.vendor)\n\n    if vendor_sqlform.accepts(request,session):\n        response.flash = \'Form accepted\'\n    elif vendor_sqlform.errors:\n        response.flash = \'Form has errors\'\n    else:\n        response.flash = \'Please fill the form\'\n\n    return locals()\n\n\ndef accessory_crud():\n    """ Create a simple form using the CRUD function of web2py. """\n\n    from gluon.tools import Crud\n    crud = Crud(db)\n    accessory_crud = crud.create(db.accessory)\n    return locals()\n\n\ndef sale_sqlform_factory():\n    """\n    Create a custom form using SQLFORM.factory and custom widgets.\n\n    This action creates a form based on the sale table but it also includes a\n    wrapper field which can hold one of the following:\n        A link to a grid that allows the user to select accessories to include in the sale.\n        A grid holding the selected accessories.\n\n    The ids of the selected accessories are passed in the request.\n    """\n\n    accessory_wrapper_field = Field(\'IncludedAccessories\',widget=custom_accessory_widget, type=\'boolean\')\n    sale_sqlform_factory    = SQLFORM.factory(db.sale, accessory_wrapper_field)\n\n    if sale_sqlform_factory.process().accepted:\n        sale_id = db.sale.insert(**db.sale._filter_fields(sale_sqlform_factory.vars))\n        insert_accessories(sale_id, request.vars.id)\n\t#TODO request.clear()\n        response.flash = \'Record inserted\'\n\n    return locals()\n\n\n####################################### FUNCTIONS #######################################\n\n### Grid Functions ###\ndef build_accessories_grid(query, extra_parameters):\n    default_parameters = {\n        \'fields\':     [db.accessory.accessory_name, db.accessory.accessory_price],\n        \'csv\':        False,\n        \'details\':    False,\n        \'searchable\': False\n    }\n\n    parameters = merge_dicts(default_parameters, extra_parameters)\n\n    grid = SQLFORM.grid(query, **parameters)\n    remove_grid_counter(grid)\n\n    return grid\n\n\ndef accessories_grid_selectable():\n    query  = db.accessory\n    params = {\n        \'selectable_submit_button\': \'Include\',\n        \'selectable\': lambda ids : redirect(URL(\'forms\', \'sale_sqlform_factory\', vars=dict(id=ids)))\n    }\n\n    accessories_grid_selectable = build_accessories_grid(query, params)\n\n    return locals()\n\n\ndef accessories_grid_from_ids(accessories_ids):\n    query  = db.accessory.id.belongs(accessories_ids)\n    params = {}\n\n    grid   = build_accessories_grid(query, params)\n    link   = change_accessories_link()\n\n    grid.append(link)\n\n    return grid\n\n### Auxiliary Functions ###\ndef fetch_id_list():\n    id_list = request.vars.id\n    if isinstance(id_list,str):\n            id_list = [id_list]\n    return id_list\n\n\ndef remove_grid_counter(grid):\n    del grid[0][0]\n\n\ndef merge_dicts(dict1, dict2):\n    resulting_dict = dict1.copy()\n    resulting_dict.update(dict2)\n\n    return resulting_dict\n\n\n### Html Helper Functions ###\ndef accessory_bt():\n    return A(\'Add Accessories\', _href=\'accessories_grid_selectable\')\n\n\ndef change_accessories_link():\n    return A(\'Change Accessories\', _href=\'accessories_grid_selectable\')\n\n\n### Custom Widgets ###\ndef custom_accessory_widget(field,value):\n    accessories_ids=fetch_id_list()\n\n    if accessories_ids:\n        return accessories_grid_from_ids(accessories_ids)\n    else:\n        return accessory_bt()\n\n\n### Database Functions ###\ndef insert_accessories(sale_id, accessories_ids):\n    if not accessories_ids:\n        return\n\n    if isinstance(accessories_ids,str):\n        accessories_ids = [accessories_ids]\n\n    for accessory_id in accessories_ids:\n        db.accessory_list.insert(sale_id=sale_id, accessory_id=accessory_id)\n\n    return\n\nresponse._vars=response._caller(car_model_form)\n'
p7
sS'snapshot'
p8
(dp9
S'exception'
p10
(dp11
S'__hash__'
p12
S"<method-wrapper '__hash__' of exceptions.ValueError object>"
p13
sS'__setattr__'
p14
S"<method-wrapper '__setattr__' of exceptions.ValueError object>"
p15
sS'__reduce_ex__'
p16
S'<built-in method __reduce_ex__ of exceptions.ValueError object>'
p17
sS'__getslice__'
p18
S"<method-wrapper '__getslice__' of exceptions.ValueError object>"
p19
sS'__getitem__'
p20
S"<method-wrapper '__getitem__' of exceptions.ValueError object>"
p21
sS'__setstate__'
p22
S'<built-in method __setstate__ of exceptions.ValueError object>'
p23
sS'__reduce__'
p24
S'<built-in method __reduce__ of exceptions.ValueError object>'
p25
sS'__str__'
p26
S"<method-wrapper '__str__' of exceptions.ValueError object>"
p27
sS'__format__'
p28
S'<built-in method __format__ of exceptions.ValueError object>'
p29
sS'__getattribute__'
p30
S"<method-wrapper '__getattribute__' of exceptions.ValueError object>"
p31
sS'__class__'
p32
S"<type 'exceptions.ValueError'>"
p33
sS'__unicode__'
p34
S'<built-in method __unicode__ of exceptions.ValueError object>'
p35
sS'__delattr__'
p36
S"<method-wrapper '__delattr__' of exceptions.ValueError object>"
p37
sS'__subclasshook__'
p38
S'<built-in method __subclasshook__ of type object>'
p39
sS'__repr__'
p40
S"<method-wrapper '__repr__' of exceptions.ValueError object>"
p41
sS'args'
p42
S"('could not convert string to float: tes',)"
p43
sS'__dict__'
p44
S'{}'
p45
sS'__sizeof__'
p46
S'<built-in method __sizeof__ of exceptions.ValueError object>'
p47
sS'__doc__'
p48
S"'Inappropriate argument value (of correct type).'"
p49
sS'__init__'
p50
S"<method-wrapper '__init__' of exceptions.ValueError object>"
p51
sS'__new__'
p52
S'<built-in method __new__ of type object>'
p53
ssS'evalue'
p54
S'could not convert string to float: tes'
p55
sS'request'
p56
cgluon.html
XML_unpickle
p57
(S's\x06f\x00\x00<div><table><tr><td style="font-weight:bold;vertical-align:top;">ajax</td><td style="vertical-align:top;">:</td><td><div>False</div></td></tr><tr><td style="font-weight:bold;vertical-align:top;">application</td><td style="vertical-align:top;">:</td><td><div>tecsus_Showcase</div></td></tr><tr><td style="font-weight:bold;vertical-align:top;">args</td><td style="vertical-align:top;">:</td><td><div><table></table></div></td></tr><tr><td style="font-weight:bold;vertical-align:top;">cid</td><td style="vertical-align:top;">:</td><td><div>None</div></td></tr><tr><td style="font-weight:bold;vertical-align:top;">client</td><td style="vertical-align:top;">:</td><td><div>127.0.0.1</div></td></tr><tr><td style="font-weight:bold;vertical-align:top;">controller</td><td style="vertical-align:top;">:</td><td><div>forms</div></td></tr><tr><td style="font-weight:bold;vertical-align:top;">cookies</td><td style="vertical-align:top;">:</td><td><div><table><tr><td style="font-weight:bold;vertical-align:top;">session_id_admin</td><td style="vertical-align:top;">:</td><td><div>127.0.0.1-84dc214a-9726-4543-8f38-8f975cd65acc<table><tr><td style="font-weight:bold;vertical-align:top;">comment</td><td style="vertical-align:top;">:</td><td><div></div></td></tr><tr><td style="font-weight:bold;vertical-align:top;">domain</td><td style="vertical-align:top;">:</td><td><div></div></td></tr><tr><td style="font-weight:bold;vertical-align:top;">expires</td><td style="vertical-align:top;">:</td><td><div></div></td></tr><tr><td style="font-weight:bold;vertical-align:top;">httponly</td><td style="vertical-align:top;">:</td><td><div></div></td></tr><tr><td style="font-weight:bold;vertical-align:top;">max-age</td><td style="vertical-align:top;">:</td><td><div></div></td></tr><tr><td style="font-weight:bold;vertical-align:top;">path</td><td style="vertical-align:top;">:</td><td><div></div></td></tr><tr><td style="font-weight:bold;vertical-align:top;">secure</td><td style="vertical-align:top;">:</td><td><div></div></td></tr><tr><td style="font-weight:bold;vertical-align:top;">version</td><td style="vertical-align:top;">:</td><td><div></div></td></tr></table></div></td></tr><tr><td style="font-weight:bold;vertical-align:top;">session_id_tecsus_showcase</td><td style="vertical-align:top;">:</td><td><div>127.0.0.1-2b48ba68-563c-48f6-8dcb-d82011dd89ab<table><tr><td style="font-weight:bold;vertical-align:top;">comment</td><td style="vertical-align:top;">:</td><td><div></div></td></tr><tr><td style="font-weight:bold;vertical-align:top;">domain</td><td style="vertical-align:top;">:</td><td><div></div></td></tr><tr><td style="font-weight:bold;vertical-align:top;">expires</td><td style="vertical-align:top;">:</td><td><div></div></td></tr><tr><td style="font-weight:bold;vertical-align:top;">httponly</td><td style="vertical-align:top;">:</td><td><div></div></td></tr><tr><td style="font-weight:bold;vertical-align:top;">max-age</td><td style="vertical-align:top;">:</td><td><div></div></td></tr><tr><td style="font-weight:bold;vertical-align:top;">path</td><td style="vertical-align:top;">:</td><td><div></div></td></tr><tr><td style="font-weight:bold;vertical-align:top;">secure</td><td style="vertical-align:top;">:</td><td><div></div></td></tr><tr><td style="font-weight:bold;vertical-align:top;">version</td><td style="vertical-align:top;">:</td><td><div></div></td></tr></table></div></td></tr><tr><td style="font-weight:bold;vertical-align:top;">session_id_welcome</td><td style="vertical-align:top;">:</td><td><div>127.0.0.1-02fc4338-66a0-4ec7-85e0-e3fa1e0efcc8<table><tr><td style="font-weight:bold;vertical-align:top;">comment</td><td style="vertical-align:top;">:</td><td><div></div></td></tr><tr><td style="font-weight:bold;vertical-align:top;">domain</td><td style="vertical-align:top;">:</td><td><div></div></td></tr><tr><td style="font-weight:bold;vertical-align:top;">expires</td><td style="vertical-align:top;">:</td><td><div></div></td></tr><tr><td style="font-weight:bold;vertical-align:top;">httponly</td><td style="vertical-align:top;">:</td><td><div></div></td></tr><tr><td style="font-weight:bold;vertical-align:top;">max-age</td><td style="vertical-align:top;">:</td><td><div></div></td></tr><tr><td style="font-weight:bold;vertical-align:top;">path</td><td style="vertical-align:top;">:</td><td><div></div></td></tr><tr><td style="font-weight:bold;vertical-align:top;">secure</td><td style="vertical-align:top;">:</td><td><div></div></td></tr><tr><td style="font-weight:bold;vertical-align:top;">version</td><td style="vertical-align:top;">:</td><td><div></div></td></tr></table></div></td></tr></table></div></td></tr><tr><td style="font-weight:bold;vertical-align:top;">env</td><td style="vertical-align:top;">:</td><td><div><table><tr><td style="font-weight:bold;vertical-align:top;">CONTENT_LENGTH</td><td style="vertical-align:top;">:</td><td><div>477</div></td></tr><tr><td style="font-weight:bold;vertical-align:top;">CONTENT_TYPE</td><td style="vertical-align:top;">:</td><td><div>multipart/form-data; boundary=----WebKitFormBoundaryxswSc3fU1dn7SbXO</div></td></tr><tr><td style="font-weight:bold;vertical-align:top;">HTTP_ACCEPT</td><td style="vertical-align:top;">:</td><td><div>text/html,application/xhtml+xml,application/xml;q=0.9,image/webp,*/*;q=0.8</div></td></tr><tr><td style="font-weight:bold;vertical-align:top;">HTTP_ACCEPT_ENCODING</td><td style="vertical-align:top;">:</td><td><div>gzip, deflate</div></td></tr><tr><td style="font-weight:bold;vertical-align:top;">HTTP_ACCEPT_LANGUAGE</td><td style="vertical-align:top;">:</td><td><div>pt-BR,pt;q=0.8,en-US;q=0.6,en;q=0.4</div></td></tr><tr><td style="font-weight:bold;vertical-align:top;">HTTP_CACHE_CONTROL</td><td style="vertical-align:top;">:</td><td><div>max-age=0</div></td></tr><tr><td style="font-weight:bold;vertical-align:top;">HTTP_CONNECTION</td><td style="vertical-align:top;">:</td><td><div>keep-alive</div></td></tr><tr><td style="font-weight:bold;vertical-align:top;">HTTP_CONTENT_LENGTH</td><td style="vertical-align:top;">:</td><td><div>477</div></td></tr><tr><td style="font-weight:bold;vertical-align:top;">HTTP_CONTENT_TYPE</td><td style="vertical-align:top;">:</td><td><div>multipart/form-data; boundary=----WebKitFormBoundaryxswSc3fU1dn7SbXO</div></td></tr><tr><td style="font-weight:bold;vertical-align:top;">HTTP_COOKIE</td><td style="vertical-align:top;">:</td><td><div>session_id_welcome=127.0.0.1-02fc4338-66a0-4ec7-85e0-e3fa1e0efcc8; session_id_admin=127.0.0.1-84dc214a-9726-4543-8f38-8f975cd65acc; session_id_tecsus_showcase=127.0.0.1-2b48ba68-563c-48f6-8dcb-d82011dd89ab</div></td></tr><tr><td style="font-weight:bold;vertical-align:top;">HTTP_HOST</td><td style="vertical-align:top;">:</td><td><div>127.0.0.1:8000</div></td></tr><tr><td style="font-weight:bold;vertical-align:top;">HTTP_ORIGIN</td><td style="vertical-align:top;">:</td><td><div>http://127.0.0.1:8000</div></td></tr><tr><td style="font-weight:bold;vertical-align:top;">HTTP_REFERER</td><td style="vertical-align:top;">:</td><td><div>http://127.0.0.1:8000/tecsus_Showcase/forms/car_model_form</div></td></tr><tr><td style="font-weight:bold;vertical-align:top;">HTTP_USER_AGENT</td><td style="vertical-align:top;">:</td><td><div>Mozilla/5.0 (Windows NT 6.1; WOW64) AppleWebKit/537.36 (KHTML, like Gecko) Chrome/43.0.2357.134 Safari/537.36</div></td></tr><tr><td style="font-weight:bold;vertical-align:top;">PATH_INFO</td><td style="vertical-align:top;">:</td><td><div>/tecsus_Showcase/forms/car_model_form</div></td></tr><tr><td style="font-weight:bold;vertical-align:top;">QUERY_STRING</td><td style="vertical-align:top;">:</td><td><div></div></td></tr><tr><td style="font-weight:bold;vertical-align:top;">REMOTE_ADDR</td><td style="vertical-align:top;">:</td><td><div>127.0.0.1</div></td></tr><tr><td style="font-weight:bold;vertical-align:top;">REMOTE_PORT</td><td style="vertical-align:top;">:</td><td><div>49434</div></td></tr><tr><td style="font-weight:bold;vertical-align:top;">REQUEST_METHOD</td><td style="vertical-align:top;">:</td><td><div>POST</div></td></tr><tr><td style="font-weight:bold;vertical-align:top;">SCRIPT_NAME</td><td style="vertical-align:top;">:</td><td><div></div></td></tr><tr><td style="font-weight:bold;vertical-align:top;">SERVER_NAME</td><td style="vertical-align:top;">:</td><td><div>TecSUS-3-PC</div></td></tr><tr><td style="font-weight:bold;vertical-align:top;">SERVER_PORT</td><td style="vertical-align:top;">:</td><td><div>8000</div></td></tr><tr><td style="font-weight:bold;vertical-align:top;">SERVER_PROTOCOL</td><td style="vertical-align:top;">:</td><td><div>HTTP/1.1</div></td></tr><tr><td style="font-weight:bold;vertical-align:top;">SERVER_SOFTWARE</td><td style="vertical-align:top;">:</td><td><div>Rocket 1.2.6</div></td></tr><tr><td style="font-weight:bold;vertical-align:top;">app_folders</td><td style="vertical-align:top;">:</td><td><div>set([&#x27;C:\\\\Users\\\\TecSUS-3\\\\Desktop\\\\template_site\\\\web2py\\\\applications\\\\admin\\\\&#x27;, &#x27;C:\\\\Users\\\\TecSUS-3\\\\Desktop\\\\template_site\\\\web2py\\\\applications\\\\welcome\\\\&#x27;, &#x27;C:\\\\Users\\\\TecSUS-3\\\\Desktop\\\\template_site\\\\web2py\\\\applications\\\\tecsus_Showcase\\\\&#x27;])</div></td></tr><tr><td style="font-weight:bold;vertical-align:top;">applications_parent</td><td style="vertical-align:top;">:</td><td><div>C:\\Users\\TecSUS-3\\Desktop\\template_site\\web2py</div></td></tr><tr><td style="font-weight:bold;vertical-align:top;">cmd_args</td><td style="vertical-align:top;">:</td><td><div><table></table></div></td></tr><tr><td style="font-weight:bold;vertical-align:top;">cmd_options</td><td style="vertical-align:top;">:</td><td><div>&lt;Values at 0x3283cb0: {&#x27;verbose&#x27;: False, &#x27;ip&#x27;: &#x27;127.0.0.1&#x27;, &#x27;debuglevel&#x27;: 30, &#x27;with_scheduler&#x27;: False, &#x27;ips&#x27;: [], &#x27;shutdown_timeout&#x27;: 5, &#x27;taskbar&#x27;: False, &#x27;with_coverage&#x27;: False, &#x27;scheduler_groups&#x27;: None, &#x27;port&#x27;: 8000, &#x27;maxthreads&#x27;: None, &#x27;softcron&#x27;: False, &#x27;server_name&#x27;: &#x27;TecSUS-3-PC&#x27;, &#x27;bpython&#x27;: False, &#x27;nogui&#x27;: False, &#x27;pid_filename&#x27;: &#x27;httpserver.pid&#x27;, &#x27;print_errors&#x27;: False, &#x27;extcron&#x27;: False, &#x27;runcron&#x27;: False, &#x27;run_system_tests&#x27;: False, &#x27;test&#x27;: None, &#x27;folder&#x27;: &#x27;C:\\\\Users\\\\TecSUS-3\\\\Desktop\\\\template_site\\\\web2py&#x27;, &#x27;config&#x27;: &#x27;&#x27;, &#x27;minthreads&#x27;: None, &#x27;shell&#x27;: None, &#x27;run&#x27;: &#x27;&#x27;, &#x27;log_filename&#x27;: &#x27;httpserver.log&#x27;, &#x27;profiler_dir&#x27;: None, &#x27;args&#x27;: [&#x27;&#x27;], &#x27;socket_timeout&#x27;: 5, &#x27;ssl_ca_certificate&#x27;: None, &#x27;scheduler&#x27;: None, &#x27;interfaces&#x27;: None, &#x27;ssl_private_key&#x27;: &#x27;&#x27;, &#x27;gae&#x27;: None, &#x27;password&#x27;: &#x27;&lt;ask&gt;&#x27;, &#x27;request_queue_size&#x27;: 5, &#x27;ssl_certificate&#x27;: &#x27;&#x27;, &#x27;cronjob&#x27;: False, &#x27;numthreads&#x27;: None, &#x27;quiet&#x27;: False, &#x27;import_models&#x27;: False, &#x27;timeout&#x27;: 10, &#x27;plain&#x27;: False, &#x27;nobanner&#x27;: False}&gt;</div></td></tr><tr><td style="font-weight:bold;vertical-align:top;">content_length</td><td style="vertical-align:top;">:</td><td><div>477</div></td></tr><tr><td style="font-weight:bold;vertical-align:top;">content_type</td><td style="vertical-align:top;">:</td><td><div>multipart/form-data; boundary=----WebKitFormBoundaryxswSc3fU1dn7SbXO</div></td></tr><tr><td style="font-weight:bold;vertical-align:top;">db_sessions</td><td style="vertical-align:top;">:</td><td><div>set([])</div></td></tr><tr><td style="font-weight:bold;vertical-align:top;">debugging</td><td style="vertical-align:top;">:</td><td><div>False</div></td></tr><tr><td style="font-weight:bold;vertical-align:top;">gluon_parent</td><td style="vertical-align:top;">:</td><td><div>C:\\Users\\TecSUS-3\\Desktop\\template_site\\web2py</div></td></tr><tr><td style="font-weight:bold;vertical-align:top;">http_accept</td><td style="vertical-align:top;">:</td><td><div>text/html,application/xhtml+xml,application/xml;q=0.9,image/webp,*/*;q=0.8</div></td></tr><tr><td style="font-weight:bold;vertical-align:top;">http_accept_encoding</td><td style="vertical-align:top;">:</td><td><div>gzip, deflate</div></td></tr><tr><td style="font-weight:bold;vertical-align:top;">http_accept_language</td><td style="vertical-align:top;">:</td><td><div>pt-BR,pt;q=0.8,en-US;q=0.6,en;q=0.4</div></td></tr><tr><td style="font-weight:bold;vertical-align:top;">http_cache_control</td><td style="vertical-align:top;">:</td><td><div>max-age=0</div></td></tr><tr><td style="font-weight:bold;vertical-align:top;">http_connection</td><td style="vertical-align:top;">:</td><td><div>keep-alive</div></td></tr><tr><td style="font-weight:bold;vertical-align:top;">http_content_length</td><td style="vertical-align:top;">:</td><td><div>477</div></td></tr><tr><td style="font-weight:bold;vertical-align:top;">http_content_type</td><td style="vertical-align:top;">:</td><td><div>multipart/form-data; boundary=----WebKitFormBoundaryxswSc3fU1dn7SbXO</div></td></tr><tr><td style="font-weight:bold;vertical-align:top;">http_cookie</td><td style="vertical-align:top;">:</td><td><div>session_id_welcome=127.0.0.1-02fc4338-66a0-4ec7-85e0-e3fa1e0efcc8; session_id_admin=127.0.0.1-84dc214a-9726-4543-8f38-8f975cd65acc; session_id_tecsus_showcase=127.0.0.1-2b48ba68-563c-48f6-8dcb-d82011dd89ab</div></td></tr><tr><td style="font-weight:bold;vertical-align:top;">http_host</td><td style="vertical-align:top;">:</td><td><div>127.0.0.1:8000</div></td></tr><tr><td style="font-weight:bold;vertical-align:top;">http_origin</td><td style="vertical-align:top;">:</td><td><div>http://127.0.0.1:8000</div></td></tr><tr><td style="font-weight:bold;vertical-align:top;">http_referer</td><td style="vertical-align:top;">:</td><td><div>http://127.0.0.1:8000/tecsus_Showcase/forms/car_model_form</div></td></tr><tr><td style="font-weight:bold;vertical-align:top;">http_user_agent</td><td style="vertical-align:top;">:</td><td><div>Mozilla/5.0 (Windows NT 6.1; WOW64) AppleWebKit/537.36 (KHTML, like Gecko) Chrome/43.0.2357.134 Safari/537.36</div></td></tr><tr><td style="font-weight:bold;vertical-align:top;">is_jython</td><td style="vertical-align:top;">:</td><td><div>False</div></td></tr><tr><td style="font-weight:bold;vertical-align:top;">is_pypy</td><td style="vertical-align:top;">:</td><td><div>False</div></td></tr><tr><td style="font-weight:bold;vertical-align:top;">is_source</td><td style="vertical-align:top;">:</td><td><div>True</div></td></tr><tr><td style="font-weight:bold;vertical-align:top;">local_hosts</td><td style="vertical-align:top;">:</td><td><div><table><tr><td><div>TecSUS-3-PC.domain.name</div></td></tr><tr><td><div>fe80::487:2eff:2cf4:8cd6%11</div></td></tr><tr><td><div>TecSUS-3-PC</div></td></tr><tr><td><div>::ffff:127.0.0.1</div></td></tr><tr><td><div>::1</div></td></tr><tr><td><div>192.168.0.3</div></td></tr><tr><td><div>127.0.0.1</div></td></tr></table></div></td></tr><tr><td style="font-weight:bold;vertical-align:top;">path_info</td><td style="vertical-align:top;">:</td><td><div>/tecsus_Showcase/forms/car_model_form</div></td></tr><tr><td style="font-weight:bold;vertical-align:top;">query_string</td><td style="vertical-align:top;">:</td><td><div></div></td></tr><tr><td style="font-weight:bold;vertical-align:top;">remote_addr</td><td style="vertical-align:top;">:</td><td><div>127.0.0.1</div></td></tr><tr><td style="font-weight:bold;vertical-align:top;">remote_port</td><td style="vertical-align:top;">:</td><td><div>49434</div></td></tr><tr><td style="font-weight:bold;vertical-align:top;">request_method</td><td style="vertical-align:top;">:</td><td><div>POST</div></td></tr><tr><td style="font-weight:bold;vertical-align:top;">request_uri</td><td style="vertical-align:top;">:</td><td><div>/tecsus_Showcase/forms/car_model_form</div></td></tr><tr><td style="font-weight:bold;vertical-align:top;">script_name</td><td style="vertical-align:top;">:</td><td><div></div></td></tr><tr><td style="font-weight:bold;vertical-align:top;">server_name</td><td style="vertical-align:top;">:</td><td><div>TecSUS-3-PC</div></td></tr><tr><td style="font-weight:bold;vertical-align:top;">server_port</td><td style="vertical-align:top;">:</td><td><div>8000</div></td></tr><tr><td style="font-weight:bold;vertical-align:top;">server_protocol</td><td style="vertical-align:top;">:</td><td><div>HTTP/1.1</div></td></tr><tr><td style="font-weight:bold;vertical-align:top;">server_software</td><td style="vertical-align:top;">:</td><td><div>Rocket 1.2.6</div></td></tr><tr><td style="font-weight:bold;vertical-align:top;">web2py_path</td><td style="vertical-align:top;">:</td><td><div>C:\\Users\\TecSUS-3\\Desktop\\template_site\\web2py</div></td></tr><tr><td style="font-weight:bold;vertical-align:top;">web2py_version</td><td style="vertical-align:top;">:</td><td><div>2.10.4-stable+timestamp.2015.04.26.15.11.54</div></td></tr><tr><td style="font-weight:bold;vertical-align:top;">wsgi.errors</td><td style="vertical-align:top;">:</td><td><div>&lt;open file &#x27;&lt;stderr&gt;&#x27;, mode &#x27;w&#x27; at 0x0047D0D0&gt;</div></td></tr><tr><td style="font-weight:bold;vertical-align:top;">wsgi.file_wrapper</td><td style="vertical-align:top;">:</td><td><div>&lt;class wsgiref.util.FileWrapper at 0x0321BF10&gt;</div></td></tr><tr><td style="font-weight:bold;vertical-align:top;">wsgi.input</td><td style="vertical-align:top;">:</td><td><div>&lt;socket._fileobject object at 0x044F26B0&gt;</div></td></tr><tr><td style="font-weight:bold;vertical-align:top;">wsgi.multiprocess</td><td style="vertical-align:top;">:</td><td><div>False</div></td></tr><tr><td style="font-weight:bold;vertical-align:top;">wsgi.multithread</td><td style="vertical-align:top;">:</td><td><div>True</div></td></tr><tr><td style="font-weight:bold;vertical-align:top;">wsgi.run_once</td><td style="vertical-align:top;">:</td><td><div>False</div></td></tr><tr><td style="font-weight:bold;vertical-align:top;">wsgi.url_scheme</td><td style="vertical-align:top;">:</td><td><div>http</div></td></tr><tr><td style="font-weight:bold;vertical-align:top;">wsgi.version</td><td style="vertical-align:top;">:</td><td><div><table><tr><td><div>1</div></td></tr><tr><td><div>0</div></td></tr></table></div></td></tr><tr><td style="font-weight:bold;vertical-align:top;">wsgi_errors</td><td style="vertical-align:top;">:</td><td><div>&lt;open file &#x27;&lt;stderr&gt;&#x27;, mode &#x27;w&#x27; at 0x0047D0D0&gt;</div></td></tr><tr><td style="font-weight:bold;vertical-align:top;">wsgi_file_wrapper</td><td style="vertical-align:top;">:</td><td><div>&lt;class wsgiref.util.FileWrapper at 0x0321BF10&gt;</div></td></tr><tr><td style="font-weight:bold;vertical-align:top;">wsgi_input</td><td style="vertical-align:top;">:</td><td><div>&lt;socket._fileobject object at 0x044F26B0&gt;</div></td></tr><tr><td style="font-weight:bold;vertical-align:top;">wsgi_multiprocess</td><td style="vertical-align:top;">:</td><td><div>False</div></td></tr><tr><td style="font-weight:bold;vertical-align:top;">wsgi_multithread</td><td style="vertical-align:top;">:</td><td><div>True</div></td></tr><tr><td style="font-weight:bold;vertical-align:top;">wsgi_run_once</td><td style="vertical-align:top;">:</td><td><div>False</div></td></tr><tr><td style="font-weight:bold;vertical-align:top;">wsgi_url_scheme</td><td style="vertical-align:top;">:</td><td><div>http</div></td></tr><tr><td style="font-weight:bold;vertical-align:top;">wsgi_version</td><td style="vertical-align:top;">:</td><td><div><table><tr><td><div>1</div></td></tr><tr><td><div>0</div></td></tr></table></div></td></tr></table></div></td></tr><tr><td style="font-weight:bold;vertical-align:top;">extension</td><td style="vertical-align:top;">:</td><td><div>html</div></td></tr><tr><td style="font-weight:bold;vertical-align:top;">folder</td><td style="vertical-align:top;">:</td><td><div>C:\\Users\\TecSUS-3\\Desktop\\template_site\\web2py\\applications\\tecsus_Showcase\\</div></td></tr><tr><td style="font-weight:bold;vertical-align:top;">function</td><td style="vertical-align:top;">:</td><td><div>car_model_form</div></td></tr><tr><td style="font-weight:bold;vertical-align:top;">global_settings</td><td style="vertical-align:top;">:</td><td><div><table><tr><td style="font-weight:bold;vertical-align:top;">app_folders</td><td style="vertical-align:top;">:</td><td><div>set([&#x27;C:\\\\Users\\\\TecSUS-3\\\\Desktop\\\\template_site\\\\web2py\\\\applications\\\\admin\\\\&#x27;, &#x27;C:\\\\Users\\\\TecSUS-3\\\\Desktop\\\\template_site\\\\web2py\\\\applications\\\\welcome\\\\&#x27;, &#x27;C:\\\\Users\\\\TecSUS-3\\\\Desktop\\\\template_site\\\\web2py\\\\applications\\\\tecsus_Showcase\\\\&#x27;])</div></td></tr><tr><td style="font-weight:bold;vertical-align:top;">applications_parent</td><td style="vertical-align:top;">:</td><td><div>C:\\Users\\TecSUS-3\\Desktop\\template_site\\web2py</div></td></tr><tr><td style="font-weight:bold;vertical-align:top;">cmd_args</td><td style="vertical-align:top;">:</td><td><div><table></table></div></td></tr><tr><td style="font-weight:bold;vertical-align:top;">cmd_options</td><td style="vertical-align:top;">:</td><td><div>&lt;Values at 0x3283cb0: {&#x27;verbose&#x27;: False, &#x27;ip&#x27;: &#x27;127.0.0.1&#x27;, &#x27;debuglevel&#x27;: 30, &#x27;with_scheduler&#x27;: False, &#x27;ips&#x27;: [], &#x27;shutdown_timeout&#x27;: 5, &#x27;taskbar&#x27;: False, &#x27;with_coverage&#x27;: False, &#x27;scheduler_groups&#x27;: None, &#x27;port&#x27;: 8000, &#x27;maxthreads&#x27;: None, &#x27;softcron&#x27;: False, &#x27;server_name&#x27;: &#x27;TecSUS-3-PC&#x27;, &#x27;bpython&#x27;: False, &#x27;nogui&#x27;: False, &#x27;pid_filename&#x27;: &#x27;httpserver.pid&#x27;, &#x27;print_errors&#x27;: False, &#x27;extcron&#x27;: False, &#x27;runcron&#x27;: False, &#x27;run_system_tests&#x27;: False, &#x27;test&#x27;: None, &#x27;folder&#x27;: &#x27;C:\\\\Users\\\\TecSUS-3\\\\Desktop\\\\template_site\\\\web2py&#x27;, &#x27;config&#x27;: &#x27;&#x27;, &#x27;minthreads&#x27;: None, &#x27;shell&#x27;: None, &#x27;run&#x27;: &#x27;&#x27;, &#x27;log_filename&#x27;: &#x27;httpserver.log&#x27;, &#x27;profiler_dir&#x27;: None, &#x27;args&#x27;: [&#x27;&#x27;], &#x27;socket_timeout&#x27;: 5, &#x27;ssl_ca_certificate&#x27;: None, &#x27;scheduler&#x27;: None, &#x27;interfaces&#x27;: None, &#x27;ssl_private_key&#x27;: &#x27;&#x27;, &#x27;gae&#x27;: None, &#x27;password&#x27;: &#x27;&lt;ask&gt;&#x27;, &#x27;request_queue_size&#x27;: 5, &#x27;ssl_certificate&#x27;: &#x27;&#x27;, &#x27;cronjob&#x27;: False, &#x27;numthreads&#x27;: None, &#x27;quiet&#x27;: False, &#x27;import_models&#x27;: False, &#x27;timeout&#x27;: 10, &#x27;plain&#x27;: False, &#x27;nobanner&#x27;: False}&gt;</div></td></tr><tr><td style="font-weight:bold;vertical-align:top;">db_sessions</td><td style="vertical-align:top;">:</td><td><div>set([])</div></td></tr><tr><td style="font-weight:bold;vertical-align:top;">debugging</td><td style="vertical-align:top;">:</td><td><div>False</div></td></tr><tr><td style="font-weight:bold;vertical-align:top;">gluon_parent</td><td style="vertical-align:top;">:</td><td><div>C:\\Users\\TecSUS-3\\Desktop\\template_site\\web2py</div></td></tr><tr><td style="font-weight:bold;vertical-align:top;">is_jython</td><td style="vertical-align:top;">:</td><td><div>False</div></td></tr><tr><td style="font-weight:bold;vertical-align:top;">is_pypy</td><td style="vertical-align:top;">:</td><td><div>False</div></td></tr><tr><td style="font-weight:bold;vertical-align:top;">is_source</td><td style="vertical-align:top;">:</td><td><div>True</div></td></tr><tr><td style="font-weight:bold;vertical-align:top;">local_hosts</td><td style="vertical-align:top;">:</td><td><div><table><tr><td><div>TecSUS-3-PC.domain.name</div></td></tr><tr><td><div>fe80::487:2eff:2cf4:8cd6%11</div></td></tr><tr><td><div>TecSUS-3-PC</div></td></tr><tr><td><div>::ffff:127.0.0.1</div></td></tr><tr><td><div>::1</div></td></tr><tr><td><div>192.168.0.3</div></td></tr><tr><td><div>127.0.0.1</div></td></tr></table></div></td></tr><tr><td style="font-weight:bold;vertical-align:top;">web2py_version</td><td style="vertical-align:top;">:</td><td><div>2.10.4-stable+timestamp.2015.04.26.15.11.54</div></td></tr></table></div></td></tr><tr><td style="font-weight:bold;vertical-align:top;">is_https</td><td style="vertical-align:top;">:</td><td><div>False</div></td></tr><tr><td style="font-weight:bold;vertical-align:top;">is_local</td><td style="vertical-align:top;">:</td><td><div>True</div></td></tr><tr><td style="font-weight:bold;vertical-align:top;">is_restful</td><td style="vertical-align:top;">:</td><td><div>False</div></td></tr><tr><td style="font-weight:bold;vertical-align:top;">is_sheduler</td><td style="vertical-align:top;">:</td><td><div>None</div></td></tr><tr><td style="font-weight:bold;vertical-align:top;">is_shell</td><td style="vertical-align:top;">:</td><td><div>None</div></td></tr><tr><td style="font-weight:bold;vertical-align:top;">now</td><td style="vertical-align:top;">:</td><td><div>datetime.datetime(2015, 7, 14, 16, 43, 58, 677000)</div></td></tr><tr><td style="font-weight:bold;vertical-align:top;">raw_args</td><td style="vertical-align:top;">:</td><td><div></div></td></tr><tr><td style="font-weight:bold;vertical-align:top;">raw_extension</td><td style="vertical-align:top;">:</td><td><div>None</div></td></tr><tr><td style="font-weight:bold;vertical-align:top;">url</td><td style="vertical-align:top;">:</td><td><div>/tecsus_Showcase/forms/car_model_form</div></td></tr><tr><td style="font-weight:bold;vertical-align:top;">utcnow</td><td style="vertical-align:top;">:</td><td><div>datetime.datetime(2015, 7, 14, 19, 43, 58, 677000)</div></td></tr><tr><td style="font-weight:bold;vertical-align:top;">uuid</td><td style="vertical-align:top;">:</td><td><div>tecsus_Showcase/127.0.0.1.2015-07-14.16-43-58.79eeecc0-4ce1-4274-aa25-420d8d4adee3</div></td></tr><tr><td style="font-weight:bold;vertical-align:top;">wsgi</td><td style="vertical-align:top;">:</td><td><div>&lt;gluon.main.LazyWSGI object at 0x047555B0&gt;</div></td></tr></table></div>'
tRp58
sS'frames'
p59
(lp60
(dp61
S'file'
p62
S'C:\\Users\\TecSUS-3\\Desktop\\template_site\\web2py\\gluon\\restricted.py'
p63
sS'dump'
p64
(dp65
S'environment'
p66
S"{'A': <class 'gluon.html.A'>, 'ANY_OF': <class 'gluon.validators.ANY_OF'>, 'ASSIGNJS': <function ASSIGNJS>, 'AppConfig': <function AppConfig>, 'Auth': <class 'gluon.tools.Auth'>, 'B': <class 'gluon.html.B'>, 'BEAUTIFY': <class 'gluon.html.BEAUTIFY'>, 'BODY': <class 'gluon.html.BODY'>, 'BR': <class 'gluon.html.BR'>, 'BUTTON': <class 'gluon.html.BUTTON'>, ...}"
p67
sS'ccode'
p68
S'<code object <module> at 04766458, file "C:\\User...ns\\tecsus_Showcase\\controllers/forms.py", line 4>'
p69
ssS'lnum'
p70
I227
sS'lines'
p71
(dp72
I224
S'            ccode = code'
p73
sI225
S'        else:'
p74
sI226
S'            ccode = compile2(code, layer)'
p75
sI227
S'        exec ccode in environment'
p76
sI228
S'    except HTTP:'
p77
sI229
S'        raise'
p78
sI230
S'    except RestrictedError:'
p79
sI231
S'        # do not encapsulate (obfuscate) the original RestrictedError'
p80
sI222
S'    try:'
p81
sI223
S'        if isinstance(code, types.CodeType):'
p82
ssS'call'
p83
S"(code='# -*- coding: utf-8 -*-\\n\\n#######################...\\nresponse._vars=response._caller(car_model_form)\\n', environment={'A': <class 'gluon.html.A'>, 'ANY_OF': <class 'gluon.validators.ANY_OF'>, 'ASSIGNJS': <function ASSIGNJS>, 'AppConfig': <function AppConfig>, 'Auth': <class 'gluon.tools.Auth'>, 'B': <class 'gluon.html.B'>, 'BEAUTIFY': <class 'gluon.html.BEAUTIFY'>, 'BODY': <class 'gluon.html.BODY'>, 'BR': <class 'gluon.html.BR'>, 'BUTTON': <class 'gluon.html.BUTTON'>, ...}, layer=r'C:\\Users\\TecSUS-3\\Desktop\\template_site\\web2py\\applications\\tecsus_Showcase\\controllers/forms.py')"
p84
sS'func'
p85
S'restricted'
p86
sa(dp87
g62
S'C:\\Users\\TecSUS-3\\Desktop\\template_site\\web2py\\applications\\tecsus_Showcase\\controllers\\forms.py'
p88
sg64
(dp89
sg70
I204
sg71
(dp90
I193
S'    if not accessories_ids:'
p91
sI194
S'        return'
p92
sI195
S''
sI196
S'    if isinstance(accessories_ids,str):'
p93
sI197
S'        accessories_ids = [accessories_ids]'
p94
sI198
S''
sI199
S'    for accessory_id in accessories_ids:'
p95
sI200
S'        db.accessory_list.insert(sale_id=sale_id, accessory_id=accessory_id)'
p96
sI201
S''
sI202
S'    return'
p97
ssg83
S'()'
p98
sg85
S'<module>'
p99
sa(dp100
g62
S'C:\\Users\\TecSUS-3\\Desktop\\template_site\\web2py\\gluon\\globals.py'
p101
sg64
(dp102
S'self'
p103
S'undefined'
p104
sS'f'
S'<function car_model_form>'
p105
ssg70
I393
sg71
(dp106
I388
S"        self.flash = ''            # used by the default view layout"
p107
sI389
S'        self.meta = Storage()      # used by web2py_ajax.html'
p108
sI390
S'        self.menu = []             # used by the default view layout'
p109
sI391
S'        self.files = []            # used by web2py_ajax.html'
p110
sI392
S'        self._vars = None'
p111
sI393
S'        self._caller = lambda f: f()'
p112
sI394
S'        self._view_environment = None'
p113
sI395
S'        self._custom_commit = None'
p114
sI396
S'        self._custom_rollback = None'
p115
sI397
S"        self.generic_patterns = ['*']"
p116
ssg83
S'(f=<function car_model_form>)'
p117
sg85
S'<lambda>'
p118
sa(dp119
g62
S'C:\\Users\\TecSUS-3\\Desktop\\template_site\\web2py\\applications\\tecsus_Showcase\\controllers\\forms.py'
p120
sg64
(dp121
S'car_model'
p122
g104
sS'car_base_price'
p123
g104
sS'db.car_model'
p124
S'<Table car_model (id,car_model,car_base_price)>'
p125
sS'form_base_price'
p126
S"'tes'"
p127
sS'db.car_model.insert'
p128
S'<bound method Table.insert of <Table car_model (id,car_model,car_base_price)>>'
p129
sS'global db'
p130
S'<DAL uri="sqlite://storage.sqlite">'
p131
sS'form_car_model'
p132
S"'tes'"
p133
ssg70
I47
sg71
(dp134
I42
S'    if form.accepts(request,session):'
p135
sI43
S'        # Retriving the form fields'
p136
sI44
S'        form_car_model = form.vars.car_model'
p137
sI45
S'        form_base_price = form.vars.base_price'
p138
sI46
S'        # Inserting in the database'
p139
sI47
S'        db.car_model.insert(car_model=form_car_model, car_base_price=form_base_price)'
p140
sI48
S'        # Tell the user about the insertion'
p141
sI49
S"        response.flash = 'New car: ' + form_car_model"
p142
sI50
S'    elif form.errors:'
p143
sI51
S"        response.flash = 'Form has errors'"
p144
ssg83
S'()'
p145
sg85
S'car_model_form'
p146
sa(dp147
g62
S'C:\\Users\\TecSUS-3\\Desktop\\template_site\\web2py\\gluon\\packages\\dal\\pydal\\objects.py'
p148
sg64
(dp149
S'self._listify'
p150
S'<bound method Table._listify of <Table car_model (id,car_model,car_base_price)>>'
p151
sS'fields'
p152
S"{'car_base_price': 'tes', 'car_model': 'tes'}"
p153
sS'self'
p154
S'<Table car_model (id,car_model,car_base_price)>'
p155
sS'ret'
p156
g104
sS'self._db._adapter'
p157
S'<pydal.adapters.sqlite.SQLiteAdapter object>'
p158
sS'self._db._adapter.insert'
p159
S'<bound method SQLiteAdapter.insert of <pydal.adapters.sqlite.SQLiteAdapter object>>'
p160
sS'self._db'
p161
S'<DAL uri="sqlite://storage.sqlite">'
p162
ssg70
I737
sg71
(dp163
I736
S'        if any(f(fields) for f in self._before_insert): return 0'
p164
sI737
S'        ret =  self._db._adapter.insert(self, self._listify(fields))'
p165
sI738
S'        if ret and self._after_insert:'
p166
sI739
S'            fields = Row(fields)'
p167
sI740
S'            [f(fields,ret) for f in self._after_insert]'
p168
sI741
S'        return ret'
p169
sI732
S''
sI733
S'    def insert(self, **fields):'
p170
sI734
S'        fields = self._defaults(fields)'
p171
sI735
S'        self._attempt_upload(fields)'
p172
ssg83
S"(self=<Table car_model (id,car_model,car_base_price)>, **fields={'car_base_price': 'tes', 'car_model': 'tes'})"
p173
sg85
S'insert'
p174
sa(dp175
g62
S'C:\\Users\\TecSUS-3\\Desktop\\template_site\\web2py\\gluon\\packages\\dal\\pydal\\adapters\\base.py'
p176
sg64
(dp177
S'self._insert'
p178
S'<bound method SQLiteAdapter._insert of <pydal.adapters.sqlite.SQLiteAdapter object>>'
p179
sS'query'
p180
g104
sS'self'
p181
S'<pydal.adapters.sqlite.SQLiteAdapter object>'
p182
sS'fields'
p183
S"[(<pydal.objects.Field object>, 'tes'), (<pydal.objects.Field object>, 'tes')]"
p184
sS'table'
p185
S'<Table car_model (id,car_model,car_base_price)>'
p186
ssg70
I720
sg71
(dp187
I715
S''
sI716
S'    def _insert_empty(self, table):'
p188
sI717
S"        return 'INSERT INTO %s DEFAULT VALUES;' % (table.sqlsafe)"
p189
sI718
S''
sI719
S'    def insert(self, table, fields):'
p190
sI720
S'        query = self._insert(table,fields)'
p191
sI721
S'        try:'
p192
sI722
S'            self.execute(query)'
p193
sI723
S'        except Exception:'
p194
sI724
S'            e = sys.exc_info()[1]'
p195
ssg83
S"(self=<pydal.adapters.sqlite.SQLiteAdapter object>, table=<Table car_model (id,car_model,car_base_price)>, fields=[(<pydal.objects.Field object>, 'tes'), (<pydal.objects.Field object>, 'tes')])"
p196
sg85
g174
sa(dp197
g62
S'C:\\Users\\TecSUS-3\\Desktop\\template_site\\web2py\\gluon\\packages\\dal\\pydal\\adapters\\base.py'
p198
sg64
(dp199
S'f'
g104
sS'fields'
p200
S"[(<pydal.objects.Field object>, 'tes'), (<pydal.objects.Field object>, 'tes')]"
p201
sS'self'
p202
S'<pydal.adapters.sqlite.SQLiteAdapter object>'
p203
sS'values'
p204
g104
sS'v'
g104
sS'self.expand'
p205
S'<bound method SQLiteAdapter.expand of <pydal.adapters.sqlite.SQLiteAdapter object>>'
p206
ssg70
I711
sg71
(dp207
I706
S''
sI707
S'    def _insert(self, table, fields):'
p208
sI708
S'        table_rname = table.sqlsafe'
p209
sI709
S'        if fields:'
p210
sI710
S"            keys = ','.join(f.sqlsafe_name for f, v in fields)"
p211
sI711
S"            values = ','.join(self.expand(v, f.type) for f, v in fields)"
p212
sI712
S"            return 'INSERT INTO %s(%s) VALUES (%s);' % (table_rname, keys, values)"
p213
sI713
S'        else:'
p214
sI714
S'            return self._insert_empty(table)'
p215
sI715
S''
ssg83
S"(self=<pydal.adapters.sqlite.SQLiteAdapter object>, table=<Table car_model (id,car_model,car_base_price)>, fields=[(<pydal.objects.Field object>, 'tes'), (<pydal.objects.Field object>, 'tes')])"
p216
sg85
S'_insert'
p217
sa(dp218
g62
S'C:\\Users\\TecSUS-3\\Desktop\\template_site\\web2py\\gluon\\packages\\dal\\pydal\\adapters\\base.py'
p219
sg64
(dp220
S'f'
S'<pydal.objects.Field object>'
p221
sS'fields'
p222
g104
sS'self'
p223
S'<pydal.adapters.sqlite.SQLiteAdapter object>'
p224
sS'f.type'
p225
S"'double'"
p226
sS'values'
p227
g104
sS'v'
S"'tes'"
p228
sS'self.expand'
p229
S'<bound method SQLiteAdapter.expand of <pydal.adapters.sqlite.SQLiteAdapter object>>'
p230
ssg70
I711
sg71
(dp231
I706
S''
sI707
S'    def _insert(self, table, fields):'
p232
sI708
S'        table_rname = table.sqlsafe'
p233
sI709
S'        if fields:'
p234
sI710
S"            keys = ','.join(f.sqlsafe_name for f, v in fields)"
p235
sI711
S"            values = ','.join(self.expand(v, f.type) for f, v in fields)"
p236
sI712
S"            return 'INSERT INTO %s(%s) VALUES (%s);' % (table_rname, keys, values)"
p237
sI713
S'        else:'
p238
sI714
S'            return self._insert_empty(table)'
p239
sI715
S''
ssg83
S"((f=<pydal.objects.Field object>, v='tes'))"
p240
sg85
S'<genexpr>'
p241
sa(dp242
g62
S'C:\\Users\\TecSUS-3\\Desktop\\template_site\\web2py\\gluon\\packages\\dal\\pydal\\adapters\\base.py'
p243
sg64
(dp244
S'builtinstr'
p245
S"<type 'str'>"
p246
sS'field_type'
p247
S"'double'"
p248
sS'self'
p249
S'<pydal.adapters.sqlite.SQLiteAdapter object>'
p250
sS'expression'
p251
S"'tes'"
p252
sS'self.represent'
p253
S'<bound method SQLiteAdapter.represent of <pydal.adapters.sqlite.SQLiteAdapter object>>'
p254
ssg70
I920
sg71
(dp255
I915
S"                out = '(%s)' % op"
p256
sI916
S'            else:'
p257
sI917
S'                out = op()'
p258
sI918
S'            return out'
p259
sI919
S'        elif field_type:'
p260
sI920
S'            return str(self.represent(expression,field_type))'
p261
sI921
S'        elif isinstance(expression,(list,tuple)):'
p262
sI922
S"            return ','.join(self.represent(item,field_type) \\"
p263
sI923
S'                                for item in expression)'
p264
sI924
S'        elif isinstance(expression, bool):'
p265
ssg83
S"(self=<pydal.adapters.sqlite.SQLiteAdapter object>, expression='tes', field_type='double', colnames=False)"
p266
sg85
S'expand'
p267
sa(dp268
g62
S'C:\\Users\\TecSUS-3\\Desktop\\template_site\\web2py\\gluon\\packages\\dal\\pydal\\adapters\\base.py'
p269
sg64
(dp270
S'builtinrepr'
p271
S'<built-in function repr>'
p272
sS'obj'
p273
S"'tes'"
p274
sS'builtinfloat'
p275
S"<type 'float'>"
p276
ssg70
I1383
sg71
(dp277
I1378
S'                    return repr(obj)'
p278
sI1379
S'            elif isinstance(obj, (Row, Reference)):'
p279
sI1380
S"                return str(obj['id'])"
p280
sI1381
S'            return str(long(obj))'
p281
sI1382
S"        elif fieldtype == 'double':"
p282
sI1383
S'            return repr(float(obj))'
p283
sI1384
S'        if isinstance(obj, unicode):'
p284
sI1385
S'            obj = obj.encode(self.db_codec)'
p285
sI1386
S"        if fieldtype == 'blob':"
p286
sI1387
S'            obj = base64.b64encode(str(obj))'
p287
ssg83
S"(self=<pydal.adapters.sqlite.SQLiteAdapter object>, obj='tes', fieldtype='double')"
p288
sg85
S'represent'
p289
sasS'pyver'
p290
S'Python 2.7.8: C:\\Python27\\python.exe (prefix: C:\\Python27)'
p291
sS'session'
p292
g57
(S's\x1a\x00\x00\x00<div><table></table></div>'
tRp293
sS'etype'
p294
S"<type 'exceptions.ValueError'>"
p295
sS'date'
p296
S'Tue Jul 14 16:43:58 2015'
p297
sS'response'
p298
g57
(S'sO$\x00\x00<div><table><tr><td style="font-weight:bold;vertical-align:top;">body</td><td style="vertical-align:top;">:</td><td><div>&lt;cStringIO.StringO object at 0x046FFDC0&gt;</div></td></tr><tr><td style="font-weight:bold;vertical-align:top;">cookies</td><td style="vertical-align:top;">:</td><td><div><table><tr><td style="font-weight:bold;vertical-align:top;">session_id_tecsus_showcase</td><td style="vertical-align:top;">:</td><td><div>127.0.0.1-2b48ba68-563c-48f6-8dcb-d82011dd89ab<table><tr><td style="font-weight:bold;vertical-align:top;">comment</td><td style="vertical-align:top;">:</td><td><div></div></td></tr><tr><td style="font-weight:bold;vertical-align:top;">domain</td><td style="vertical-align:top;">:</td><td><div></div></td></tr><tr><td style="font-weight:bold;vertical-align:top;">expires</td><td style="vertical-align:top;">:</td><td><div></div></td></tr><tr><td style="font-weight:bold;vertical-align:top;">httponly</td><td style="vertical-align:top;">:</td><td><div></div></td></tr><tr><td style="font-weight:bold;vertical-align:top;">max-age</td><td style="vertical-align:top;">:</td><td><div></div></td></tr><tr><td style="font-weight:bold;vertical-align:top;">path</td><td style="vertical-align:top;">:</td><td><div>/</div></td></tr><tr><td style="font-weight:bold;vertical-align:top;">secure</td><td style="vertical-align:top;">:</td><td><div></div></td></tr><tr><td style="font-weight:bold;vertical-align:top;">version</td><td style="vertical-align:top;">:</td><td><div></div></td></tr></table></div></td></tr></table></div></td></tr><tr><td style="font-weight:bold;vertical-align:top;">delimiters</td><td style="vertical-align:top;">:</td><td><div><table><tr><td><div>{{</div></td></tr><tr><td><div>}}</div></td></tr></table></div></td></tr><tr><td style="font-weight:bold;vertical-align:top;">files</td><td style="vertical-align:top;">:</td><td><div><table></table></div></td></tr><tr><td style="font-weight:bold;vertical-align:top;">flash</td><td style="vertical-align:top;">:</td><td><div></div></td></tr><tr><td style="font-weight:bold;vertical-align:top;">form_label_separator</td><td style="vertical-align:top;">:</td><td><div></div></td></tr><tr><td style="font-weight:bold;vertical-align:top;">formstyle</td><td style="vertical-align:top;">:</td><td><div>bootstrap3_inline</div></td></tr><tr><td style="font-weight:bold;vertical-align:top;">generic_patterns</td><td style="vertical-align:top;">:</td><td><div><table><tr><td><div>*</div></td></tr></table></div></td></tr><tr><td style="font-weight:bold;vertical-align:top;">google_analytics_id</td><td style="vertical-align:top;">:</td><td><div>None</div></td></tr><tr><td style="font-weight:bold;vertical-align:top;">headers</td><td style="vertical-align:top;">:</td><td><div><table><tr><td style="font-weight:bold;vertical-align:top;">X-Powered-By</td><td style="vertical-align:top;">:</td><td><div>web2py</div></td></tr></table></div></td></tr><tr><td style="font-weight:bold;vertical-align:top;">logo</td><td style="vertical-align:top;">:</td><td><div><a class="navbar-brand" href="http://www.web2py.com/" id="web2py-logo"><b>web<span>2</span>py</b>&trade;&nbsp;</a></div></td></tr><tr><td style="font-weight:bold;vertical-align:top;">menu</td><td style="vertical-align:top;">:</td><td><div><table><tr><td><div><table><tr><td><div>Forms</div></td></tr><tr><td><div>True</div></td></tr><tr><td><div>/tecsus_Showcase/default/index</div></td></tr><tr><td><div><table><tr><td><div><table><tr><td><div>Car Model (FORM)</div></td></tr><tr><td><div>True</div></td></tr><tr><td><div>/tecsus_Showcase/forms/car_model_form</div></td></tr><tr><td><div>[]</div></td></tr></table></div></td></tr><tr><td><div><table><tr><td><div>Vendor (SQLFORM)</div></td></tr><tr><td><div>True</div></td></tr><tr><td><div>/tecsus_Showcase/forms/vendor_sqlform</div></td></tr><tr><td><div>[]</div></td></tr></table></div></td></tr><tr><td><div><table><tr><td><div>Accessory (CRUD)</div></td></tr><tr><td><div>True</div></td></tr><tr><td><div>/tecsus_Showcase/forms/accessory_crud</div></td></tr><tr><td><div>[]</div></td></tr></table></div></td></tr><tr><td><div><table><tr><td><div>Sale (SQLFORM.factory)</div></td></tr><tr><td><div>True</div></td></tr><tr><td><div>/tecsus_Showcase/forms/sale_sqlform_factory</div></td></tr><tr><td><div>[]</div></td></tr></table></div></td></tr></table></div></td></tr></table></div></td></tr><tr><td><div><table><tr><td><div>Grids</div></td></tr><tr><td><div>True</div></td></tr><tr><td><div>/tecsus_Showcase/default/index</div></td></tr><tr><td><div><table><tr><td><div><table><tr><td><div>Database lists (smartgrid)</div></td></tr><tr><td><div>True</div></td></tr><tr><td><div>/tecsus_Showcase/grids/database_lists_smartgrid</div></td></tr><tr><td><div>[]</div></td></tr></table></div></td></tr><tr><td><div><table><tr><td><div>Database lists (grid)</div></td></tr><tr><td><div>True</div></td></tr><tr><td><div>/tecsus_Showcase/grids/database_lists_grid</div></td></tr><tr><td><div>[]</div></td></tr></table></div></td></tr></table></div></td></tr></table></div></td></tr></table></div></td></tr><tr><td style="font-weight:bold;vertical-align:top;">meta</td><td style="vertical-align:top;">:</td><td><div><table><tr><td style="font-weight:bold;vertical-align:top;">author</td><td style="vertical-align:top;">:</td><td><div>Your Name &lt;you@example.com&gt;</div></td></tr><tr><td style="font-weight:bold;vertical-align:top;">description</td><td style="vertical-align:top;">:</td><td><div>a cool new app</div></td></tr><tr><td style="font-weight:bold;vertical-align:top;">generator</td><td style="vertical-align:top;">:</td><td><div>Web2py Web Framework</div></td></tr><tr><td style="font-weight:bold;vertical-align:top;">keywords</td><td style="vertical-align:top;">:</td><td><div>web2py, python, framework</div></td></tr></table></div></td></tr><tr><td style="font-weight:bold;vertical-align:top;">models_to_run</td><td style="vertical-align:top;">:</td><td><div><table><tr><td><div>^\\w+\\.py$</div></td></tr><tr><td><div>^forms/\\w+\\.py$</div></td></tr><tr><td><div>^forms/car_model_form/\\w+\\.py$</div></td></tr></table></div></td></tr><tr><td style="font-weight:bold;vertical-align:top;">postprocessing</td><td style="vertical-align:top;">:</td><td><div><table></table></div></td></tr><tr><td style="font-weight:bold;vertical-align:top;">session_client</td><td style="vertical-align:top;">:</td><td><div>127.0.0.1</div></td></tr><tr><td style="font-weight:bold;vertical-align:top;">session_cookie_compression_level</td><td style="vertical-align:top;">:</td><td><div>None</div></td></tr><tr><td style="font-weight:bold;vertical-align:top;">session_cookie_expires</td><td style="vertical-align:top;">:</td><td><div>None</div></td></tr><tr><td style="font-weight:bold;vertical-align:top;">session_cookie_key</td><td style="vertical-align:top;">:</td><td><div>None</div></td></tr><tr><td style="font-weight:bold;vertical-align:top;">session_data_name</td><td style="vertical-align:top;">:</td><td><div>session_data_tecsus_showcase</div></td></tr><tr><td style="font-weight:bold;vertical-align:top;">session_file</td><td style="vertical-align:top;">:</td><td><div>&lt;open file &#x27;C:\\\\Users\\\\TecSUS-3\\\\Desktop\\\\template_site\\\\web2py\\\\applications\\\\tecsus_Showcase\\\\sessions\\\\062\\\\1ec\\\\127.0.0.1-2b48ba68-563c-48f6-8dcb-d82011dd89ab&#x27;, mode &#x27;rb+&#x27; at 0x042419C0&gt;</div></td></tr><tr><td style="font-weight:bold;vertical-align:top;">session_filename</td><td style="vertical-align:top;">:</td><td><div>C:\\Users\\TecSUS-3\\Desktop\\template_site\\web2py\\applications\\tecsus_Showcase\\sessions\\127.0.0.1-2b48ba68-563c-48f6-8dcb-d82011dd89ab</div></td></tr><tr><td style="font-weight:bold;vertical-align:top;">session_hash</td><td style="vertical-align:top;">:</td><td><div>95e4420bc4cd86ea1c23e243978921dc</div></td></tr><tr><td style="font-weight:bold;vertical-align:top;">session_id</td><td style="vertical-align:top;">:</td><td><div>127.0.0.1-2b48ba68-563c-48f6-8dcb-d82011dd89ab</div></td></tr><tr><td style="font-weight:bold;vertical-align:top;">session_id_name</td><td style="vertical-align:top;">:</td><td><div>session_id_tecsus_showcase</div></td></tr><tr><td style="font-weight:bold;vertical-align:top;">session_locked</td><td style="vertical-align:top;">:</td><td><div>True</div></td></tr><tr><td style="font-weight:bold;vertical-align:top;">session_masterapp</td><td style="vertical-align:top;">:</td><td><div>tecsus_Showcase</div></td></tr><tr><td style="font-weight:bold;vertical-align:top;">session_new</td><td style="vertical-align:top;">:</td><td><div>False</div></td></tr><tr><td style="font-weight:bold;vertical-align:top;">session_storage_type</td><td style="vertical-align:top;">:</td><td><div>file</div></td></tr><tr><td style="font-weight:bold;vertical-align:top;">status</td><td style="vertical-align:top;">:</td><td><div>200</div></td></tr><tr><td style="font-weight:bold;vertical-align:top;">subtitle</td><td style="vertical-align:top;">:</td><td><div></div></td></tr><tr><td style="font-weight:bold;vertical-align:top;">title</td><td style="vertical-align:top;">:</td><td><div>Tecsus Showcase</div></td></tr><tr><td style="font-weight:bold;vertical-align:top;">view</td><td style="vertical-align:top;">:</td><td><div>forms/car_model_form.html</div></td></tr></table></div>'
tRp299
sS'locals'
p300
(dp301
S'obj'
p302
S"'tes'"
p303
sS'self'
p304
S'<pydal.adapters.sqlite.SQLiteAdapter object>'
p305
sS'field_is_type'
p306
S'<built-in method startswith of str object>'
p307
sS'r'
S'None'
p308
sS'fieldtype'
p309
S"'double'"
p310
sssS'traceback'
p311
S'Traceback (most recent call last):\n  File "C:\\Users\\TecSUS-3\\Desktop\\template_site\\web2py\\gluon\\restricted.py", line 227, in restricted\n    exec ccode in environment\n  File "C:\\Users\\TecSUS-3\\Desktop\\template_site\\web2py\\applications\\tecsus_Showcase\\controllers/forms.py", line 204, in <module>\n  File "C:\\Users\\TecSUS-3\\Desktop\\template_site\\web2py\\gluon\\globals.py", line 393, in <lambda>\n    self._caller = lambda f: f()\n  File "C:\\Users\\TecSUS-3\\Desktop\\template_site\\web2py\\applications\\tecsus_Showcase\\controllers/forms.py", line 47, in car_model_form\n    db.car_model.insert(car_model=form_car_model, car_base_price=form_base_price)\n  File "C:\\Users\\TecSUS-3\\Desktop\\template_site\\web2py\\gluon\\packages\\dal\\pydal\\objects.py", line 737, in insert\n    ret =  self._db._adapter.insert(self, self._listify(fields))\n  File "C:\\Users\\TecSUS-3\\Desktop\\template_site\\web2py\\gluon\\packages\\dal\\pydal\\adapters\\base.py", line 720, in insert\n    query = self._insert(table,fields)\n  File "C:\\Users\\TecSUS-3\\Desktop\\template_site\\web2py\\gluon\\packages\\dal\\pydal\\adapters\\base.py", line 711, in _insert\n    values = \',\'.join(self.expand(v, f.type) for f, v in fields)\n  File "C:\\Users\\TecSUS-3\\Desktop\\template_site\\web2py\\gluon\\packages\\dal\\pydal\\adapters\\base.py", line 711, in <genexpr>\n    values = \',\'.join(self.expand(v, f.type) for f, v in fields)\n  File "C:\\Users\\TecSUS-3\\Desktop\\template_site\\web2py\\gluon\\packages\\dal\\pydal\\adapters\\base.py", line 920, in expand\n    return str(self.represent(expression,field_type))\n  File "C:\\Users\\TecSUS-3\\Desktop\\template_site\\web2py\\gluon\\packages\\dal\\pydal\\adapters\\base.py", line 1383, in represent\n    return repr(float(obj))\nValueError: could not convert string to float: tes\n'
p312
s.